Archive member included to satisfy reference by file (symbol)

D:\CODEX\Dev-Cpp\TDM-GCC3264\x86_64-w64-mingw32\lib/libuser32.a(dcjzs00619.o)
                              C:\Users\ARABBI~1\AppData\Local\Temp\ccJboNLv.o (symbol from plugin) (MessageBoxW)
D:\CODEX\Dev-Cpp\TDM-GCC3264\x86_64-w64-mingw32\lib/libuser32.a(dcjzh.o)
                              D:\CODEX\Dev-Cpp\TDM-GCC3264\x86_64-w64-mingw32\lib/libuser32.a(dcjzs00619.o) (_head_lib64_libuser32_a)
D:\CODEX\Dev-Cpp\TDM-GCC3264\x86_64-w64-mingw32\lib/libuser32.a(dcjzt.o)
                              D:\CODEX\Dev-Cpp\TDM-GCC3264\x86_64-w64-mingw32\lib/libuser32.a(dcjzh.o) (__lib64_libuser32_a_iname)
D:\CODEX\Dev-Cpp\TDM-GCC3264\x86_64-w64-mingw32\lib/libkernel32.a(dwdrs01583.o)
                              D:/CODEX/Dev-Cpp/TDM-GCC3264/bin/../lib/gcc/x86_64-w64-mingw32/10.3.0/../../../../x86_64-w64-mingw32/lib/../lib/crt2.o (__C_specific_handler)
D:\CODEX\Dev-Cpp\TDM-GCC3264\x86_64-w64-mingw32\lib/libkernel32.a(dwdrs01409.o)
                              C:\Users\ARABBI~1\AppData\Local\Temp\ccJboNLv.o (symbol from plugin) (Sleep)
D:\CODEX\Dev-Cpp\TDM-GCC3264\x86_64-w64-mingw32\lib/libkernel32.a(dwdrs01393.o)
                              D:/CODEX/Dev-Cpp/TDM-GCC3264/bin/../lib/gcc/x86_64-w64-mingw32/10.3.0/../../../../x86_64-w64-mingw32/lib/../lib/crt2.o (__imp_SetUnhandledExceptionFilter)
D:\CODEX\Dev-Cpp\TDM-GCC3264\x86_64-w64-mingw32\lib/libkernel32.a(dwdrs00742.o)
                              D:/CODEX/Dev-Cpp/TDM-GCC3264/bin/../lib/gcc/x86_64-w64-mingw32/10.3.0/../../../../x86_64-w64-mingw32/lib/../lib/crt2.o (__imp_GetStartupInfoA)
D:\CODEX\Dev-Cpp\TDM-GCC3264\x86_64-w64-mingw32\lib/libkernel32.a(dwdrs00649.o)
                              C:\Users\ARABBI~1\AppData\Local\Temp\ccJboNLv.o (symbol from plugin) (GetModuleFileNameW)
D:\CODEX\Dev-Cpp\TDM-GCC3264\x86_64-w64-mingw32\lib/libkernel32.a(dwdrs00238.o)
                              C:\Users\ARABBI~1\AppData\Local\Temp\ccJboNLv.o (symbol from plugin) (CreateProcessW)
D:\CODEX\Dev-Cpp\TDM-GCC3264\x86_64-w64-mingw32\lib/libkernel32.a(dwdrh.o)
                              D:\CODEX\Dev-Cpp\TDM-GCC3264\x86_64-w64-mingw32\lib/libkernel32.a(dwdrs01583.o) (_head_lib64_libkernel32_a)
D:\CODEX\Dev-Cpp\TDM-GCC3264\x86_64-w64-mingw32\lib/libkernel32.a(dwdrt.o)
                              D:\CODEX\Dev-Cpp\TDM-GCC3264\x86_64-w64-mingw32\lib/libkernel32.a(dwdrh.o) (__lib64_libkernel32_a_iname)
D:/CODEX/Dev-Cpp/TDM-GCC3264/bin/../lib/gcc/x86_64-w64-mingw32/10.3.0\libstdc++.a(del_ops.o)
                              C:\Users\ARABBI~1\AppData\Local\Temp\ccJboNLv.o (symbol from plugin) (operator delete(void*, unsigned long long))
D:/CODEX/Dev-Cpp/TDM-GCC3264/bin/../lib/gcc/x86_64-w64-mingw32/10.3.0\libstdc++.a(new_op.o)
                              C:\Users\ARABBI~1\AppData\Local\Temp\ccJboNLv.o (symbol from plugin) (operator new(unsigned long long))
D:/CODEX/Dev-Cpp/TDM-GCC3264/bin/../lib/gcc/x86_64-w64-mingw32/10.3.0\libstdc++.a(si_class_type_info.o)
                              D:/CODEX/Dev-Cpp/TDM-GCC3264/bin/../lib/gcc/x86_64-w64-mingw32/10.3.0\libstdc++.a(new_op.o) (vtable for __cxxabiv1::__si_class_type_info)
D:/CODEX/Dev-Cpp/TDM-GCC3264/bin/../lib/gcc/x86_64-w64-mingw32/10.3.0\libstdc++.a(tinfo.o)
                              D:/CODEX/Dev-Cpp/TDM-GCC3264/bin/../lib/gcc/x86_64-w64-mingw32/10.3.0\libstdc++.a(si_class_type_info.o) (std::type_info::__is_pointer_p() const)
D:/CODEX/Dev-Cpp/TDM-GCC3264/bin/../lib/gcc/x86_64-w64-mingw32/10.3.0\libstdc++.a(bad_alloc.o)
                              D:/CODEX/Dev-Cpp/TDM-GCC3264/bin/../lib/gcc/x86_64-w64-mingw32/10.3.0\libstdc++.a(new_op.o) (std::bad_alloc::~bad_alloc())
D:/CODEX/Dev-Cpp/TDM-GCC3264/bin/../lib/gcc/x86_64-w64-mingw32/10.3.0\libstdc++.a(class_type_info.o)
                              D:/CODEX/Dev-Cpp/TDM-GCC3264/bin/../lib/gcc/x86_64-w64-mingw32/10.3.0\libstdc++.a(si_class_type_info.o) (__cxxabiv1::__class_type_info::__do_upcast(__cxxabiv1::__class_type_info const*, void**) const)
D:/CODEX/Dev-Cpp/TDM-GCC3264/bin/../lib/gcc/x86_64-w64-mingw32/10.3.0\libstdc++.a(del_op.o)
                              D:/CODEX/Dev-Cpp/TDM-GCC3264/bin/../lib/gcc/x86_64-w64-mingw32/10.3.0\libstdc++.a(del_ops.o) (operator delete(void*))
D:/CODEX/Dev-Cpp/TDM-GCC3264/bin/../lib/gcc/x86_64-w64-mingw32/10.3.0\libstdc++.a(eh_alloc.o)
                              D:/CODEX/Dev-Cpp/TDM-GCC3264/bin/../lib/gcc/x86_64-w64-mingw32/10.3.0\libstdc++.a(new_op.o) (__cxa_allocate_exception)
D:/CODEX/Dev-Cpp/TDM-GCC3264/bin/../lib/gcc/x86_64-w64-mingw32/10.3.0\libstdc++.a(eh_exception.o)
                              D:/CODEX/Dev-Cpp/TDM-GCC3264/bin/../lib/gcc/x86_64-w64-mingw32/10.3.0\libstdc++.a(bad_alloc.o) (std::exception::~exception())
D:/CODEX/Dev-Cpp/TDM-GCC3264/bin/../lib/gcc/x86_64-w64-mingw32/10.3.0\libstdc++.a(eh_personality.o)
                              D:/CODEX/Dev-Cpp/TDM-GCC3264/bin/../lib/gcc/x86_64-w64-mingw32/10.3.0\libstdc++.a(eh_alloc.o) (__cxa_call_unexpected)
D:/CODEX/Dev-Cpp/TDM-GCC3264/bin/../lib/gcc/x86_64-w64-mingw32/10.3.0\libstdc++.a(eh_terminate.o)
                              D:/CODEX/Dev-Cpp/TDM-GCC3264/bin/../lib/gcc/x86_64-w64-mingw32/10.3.0\libstdc++.a(eh_personality.o) (__cxxabiv1::__terminate(void (*)()))
D:/CODEX/Dev-Cpp/TDM-GCC3264/bin/../lib/gcc/x86_64-w64-mingw32/10.3.0\libstdc++.a(eh_throw.o)
                              D:/CODEX/Dev-Cpp/TDM-GCC3264/bin/../lib/gcc/x86_64-w64-mingw32/10.3.0\libstdc++.a(new_op.o) (__cxa_throw)
D:/CODEX/Dev-Cpp/TDM-GCC3264/bin/../lib/gcc/x86_64-w64-mingw32/10.3.0\libstdc++.a(eh_unex_handler.o)
                              D:/CODEX/Dev-Cpp/TDM-GCC3264/bin/../lib/gcc/x86_64-w64-mingw32/10.3.0\libstdc++.a(eh_terminate.o) (__shmem_init_eh_unex_handler__unexpected_handler)
D:/CODEX/Dev-Cpp/TDM-GCC3264/bin/../lib/gcc/x86_64-w64-mingw32/10.3.0\libstdc++.a(new_handler.o)
                              D:/CODEX/Dev-Cpp/TDM-GCC3264/bin/../lib/gcc/x86_64-w64-mingw32/10.3.0\libstdc++.a(new_op.o) (std::get_new_handler())
D:/CODEX/Dev-Cpp/TDM-GCC3264/bin/../lib/gcc/x86_64-w64-mingw32/10.3.0\libstdc++.a(pure.o)
                              D:/CODEX/Dev-Cpp/TDM-GCC3264/bin/../lib/gcc/x86_64-w64-mingw32/10.3.0\libstdc++.a(eh_exception.o) (__cxa_pure_virtual)
D:/CODEX/Dev-Cpp/TDM-GCC3264/bin/../lib/gcc/x86_64-w64-mingw32/10.3.0\libstdc++.a(vterminate.o)
                              D:/CODEX/Dev-Cpp/TDM-GCC3264/bin/../lib/gcc/x86_64-w64-mingw32/10.3.0\libstdc++.a(eh_terminate.o) (__gnu_cxx::__verbose_terminate_handler())
D:/CODEX/Dev-Cpp/TDM-GCC3264/bin/../lib/gcc/x86_64-w64-mingw32/10.3.0\libstdc++.a(cp-demangle.o)
                              D:/CODEX/Dev-Cpp/TDM-GCC3264/bin/../lib/gcc/x86_64-w64-mingw32/10.3.0\libstdc++.a(vterminate.o) (__cxa_demangle)
D:/CODEX/Dev-Cpp/TDM-GCC3264/bin/../lib/gcc/x86_64-w64-mingw32/10.3.0\libstdc++.a(eh_call.o)
                              D:/CODEX/Dev-Cpp/TDM-GCC3264/bin/../lib/gcc/x86_64-w64-mingw32/10.3.0\libstdc++.a(eh_personality.o) (__cxa_call_terminate)
D:/CODEX/Dev-Cpp/TDM-GCC3264/bin/../lib/gcc/x86_64-w64-mingw32/10.3.0\libstdc++.a(eh_catch.o)
                              D:/CODEX/Dev-Cpp/TDM-GCC3264/bin/../lib/gcc/x86_64-w64-mingw32/10.3.0\libstdc++.a(eh_personality.o) (__cxa_begin_catch)
D:/CODEX/Dev-Cpp/TDM-GCC3264/bin/../lib/gcc/x86_64-w64-mingw32/10.3.0\libstdc++.a(eh_globals.o)
                              D:/CODEX/Dev-Cpp/TDM-GCC3264/bin/../lib/gcc/x86_64-w64-mingw32/10.3.0\libstdc++.a(eh_personality.o) (__cxa_get_globals_fast)
D:/CODEX/Dev-Cpp/TDM-GCC3264/bin/../lib/gcc/x86_64-w64-mingw32/10.3.0\libstdc++.a(eh_term_handler.o)
                              D:/CODEX/Dev-Cpp/TDM-GCC3264/bin/../lib/gcc/x86_64-w64-mingw32/10.3.0\libstdc++.a(eh_terminate.o) (__shmem_init_eh_term_handler__terminate_handler)
D:/CODEX/Dev-Cpp/TDM-GCC3264/bin/../lib/gcc/x86_64-w64-mingw32/10.3.0\libstdc++.a(eh_type.o)
                              D:/CODEX/Dev-Cpp/TDM-GCC3264/bin/../lib/gcc/x86_64-w64-mingw32/10.3.0\libstdc++.a(vterminate.o) (__cxa_current_exception_type)
D:\CODEX\Dev-Cpp\TDM-GCC3264\x86_64-w64-mingw32\lib/libmingw32.a(lib64_libmingw32_a-gccmain.o)
                              D:/CODEX/Dev-Cpp/TDM-GCC3264/bin/../lib/gcc/x86_64-w64-mingw32/10.3.0/../../../../x86_64-w64-mingw32/lib/../lib/crt2.o (__main)
D:\CODEX\Dev-Cpp\TDM-GCC3264\x86_64-w64-mingw32\lib/libmingw32.a(lib64_libmingw32_a-natstart.o)
                              D:/CODEX/Dev-Cpp/TDM-GCC3264/bin/../lib/gcc/x86_64-w64-mingw32/10.3.0/../../../../x86_64-w64-mingw32/lib/../lib/crt2.o (__native_startup_lock)
D:\CODEX\Dev-Cpp\TDM-GCC3264\x86_64-w64-mingw32\lib/libmingw32.a(lib64_libmingw32_a-wildcard.o)
                              D:/CODEX/Dev-Cpp/TDM-GCC3264/bin/../lib/gcc/x86_64-w64-mingw32/10.3.0/../../../../x86_64-w64-mingw32/lib/../lib/crt2.o (_dowildcard)
D:\CODEX\Dev-Cpp\TDM-GCC3264\x86_64-w64-mingw32\lib/libmingw32.a(lib64_libmingw32_a-charmax.o)
                              D:/CODEX/Dev-Cpp/TDM-GCC3264/bin/../lib/gcc/x86_64-w64-mingw32/10.3.0/../../../../x86_64-w64-mingw32/lib/../lib/crt2.o (mingw_initcharmax)
D:\CODEX\Dev-Cpp\TDM-GCC3264\x86_64-w64-mingw32\lib/libmingw32.a(lib64_libmingw32_a-dllargv.o)
                              D:/CODEX/Dev-Cpp/TDM-GCC3264/bin/../lib/gcc/x86_64-w64-mingw32/10.3.0/../../../../x86_64-w64-mingw32/lib/../lib/crt2.o (_setargv)
D:\CODEX\Dev-Cpp\TDM-GCC3264\x86_64-w64-mingw32\lib/libmingw32.a(lib64_libmingw32_a-_newmode.o)
                              D:/CODEX/Dev-Cpp/TDM-GCC3264/bin/../lib/gcc/x86_64-w64-mingw32/10.3.0/../../../../x86_64-w64-mingw32/lib/../lib/crt2.o (_newmode)
D:\CODEX\Dev-Cpp\TDM-GCC3264\x86_64-w64-mingw32\lib/libmingw32.a(lib64_libmingw32_a-tlssup.o)
                              D:/CODEX/Dev-Cpp/TDM-GCC3264/bin/../lib/gcc/x86_64-w64-mingw32/10.3.0/../../../../x86_64-w64-mingw32/lib/../lib/crt2.o (mingw_initltssuo_force)
D:\CODEX\Dev-Cpp\TDM-GCC3264\x86_64-w64-mingw32\lib/libmingw32.a(lib64_libmingw32_a-xncommod.o)
                              D:/CODEX/Dev-Cpp/TDM-GCC3264/bin/../lib/gcc/x86_64-w64-mingw32/10.3.0/../../../../x86_64-w64-mingw32/lib/../lib/crt2.o (_commode)
D:\CODEX\Dev-Cpp\TDM-GCC3264\x86_64-w64-mingw32\lib/libmingw32.a(lib64_libmingw32_a-cinitexe.o)
                              D:/CODEX/Dev-Cpp/TDM-GCC3264/bin/../lib/gcc/x86_64-w64-mingw32/10.3.0/../../../../x86_64-w64-mingw32/lib/../lib/crt2.o (__xc_z)
D:\CODEX\Dev-Cpp\TDM-GCC3264\x86_64-w64-mingw32\lib/libmingw32.a(lib64_libmingw32_a-merr.o)
                              D:/CODEX/Dev-Cpp/TDM-GCC3264/bin/../lib/gcc/x86_64-w64-mingw32/10.3.0/../../../../x86_64-w64-mingw32/lib/../lib/crt2.o (_matherr)
D:\CODEX\Dev-Cpp\TDM-GCC3264\x86_64-w64-mingw32\lib/libmingw32.a(lib64_libmingw32_a-CRT_fp10.o)
                              D:/CODEX/Dev-Cpp/TDM-GCC3264/bin/../lib/gcc/x86_64-w64-mingw32/10.3.0/../../../../x86_64-w64-mingw32/lib/../lib/crt2.o (_fpreset)
D:\CODEX\Dev-Cpp\TDM-GCC3264\x86_64-w64-mingw32\lib/libmingw32.a(lib64_libmingw32_a-mingw_helpers.o)
                              D:/CODEX/Dev-Cpp/TDM-GCC3264/bin/../lib/gcc/x86_64-w64-mingw32/10.3.0/../../../../x86_64-w64-mingw32/lib/../lib/crt2.o (mingw_app_type)
D:\CODEX\Dev-Cpp\TDM-GCC3264\x86_64-w64-mingw32\lib/libmingw32.a(lib64_libmingw32_a-pseudo-reloc.o)
                              D:/CODEX/Dev-Cpp/TDM-GCC3264/bin/../lib/gcc/x86_64-w64-mingw32/10.3.0/../../../../x86_64-w64-mingw32/lib/../lib/crt2.o (_pei386_runtime_relocator)
D:\CODEX\Dev-Cpp\TDM-GCC3264\x86_64-w64-mingw32\lib/libmingw32.a(lib64_libmingw32_a-usermatherr.o)
                              D:/CODEX/Dev-Cpp/TDM-GCC3264/bin/../lib/gcc/x86_64-w64-mingw32/10.3.0/../../../../x86_64-w64-mingw32/lib/../lib/crt2.o (__mingw_setusermatherr)
D:\CODEX\Dev-Cpp\TDM-GCC3264\x86_64-w64-mingw32\lib/libmingw32.a(lib64_libmingw32_a-xtxtmode.o)
                              D:/CODEX/Dev-Cpp/TDM-GCC3264/bin/../lib/gcc/x86_64-w64-mingw32/10.3.0/../../../../x86_64-w64-mingw32/lib/../lib/crt2.o (_fmode)
D:\CODEX\Dev-Cpp\TDM-GCC3264\x86_64-w64-mingw32\lib/libmingw32.a(lib64_libmingw32_a-crt_handler.o)
                              D:/CODEX/Dev-Cpp/TDM-GCC3264/bin/../lib/gcc/x86_64-w64-mingw32/10.3.0/../../../../x86_64-w64-mingw32/lib/../lib/crt2.o (_gnu_exception_handler)
D:\CODEX\Dev-Cpp\TDM-GCC3264\x86_64-w64-mingw32\lib/libmingw32.a(lib64_libmingw32_a-tlsthrd.o)
                              D:\CODEX\Dev-Cpp\TDM-GCC3264\x86_64-w64-mingw32\lib/libmingw32.a(lib64_libmingw32_a-tlssup.o) (__mingw_TLScallback)
D:\CODEX\Dev-Cpp\TDM-GCC3264\x86_64-w64-mingw32\lib/libmingw32.a(lib64_libmingw32_a-tlsmcrt.o)
                              D:\CODEX\Dev-Cpp\TDM-GCC3264\x86_64-w64-mingw32\lib/libmingw32.a(lib64_libmingw32_a-tlssup.o) (_CRT_MT)
D:\CODEX\Dev-Cpp\TDM-GCC3264\x86_64-w64-mingw32\lib/libmingw32.a(lib64_libmingw32_a-pseudo-reloc-list.o)
                              D:\CODEX\Dev-Cpp\TDM-GCC3264\x86_64-w64-mingw32\lib/libmingw32.a(lib64_libmingw32_a-pseudo-reloc.o) (__RUNTIME_PSEUDO_RELOC_LIST__)
D:\CODEX\Dev-Cpp\TDM-GCC3264\x86_64-w64-mingw32\lib/libmingw32.a(lib64_libmingw32_a-pesect.o)
                              D:\CODEX\Dev-Cpp\TDM-GCC3264\x86_64-w64-mingw32\lib/libmingw32.a(lib64_libmingw32_a-pseudo-reloc.o) (__mingw_GetSectionForAddress)
D:/CODEX/Dev-Cpp/TDM-GCC3264/bin/../lib/gcc/x86_64-w64-mingw32/10.3.0/libgcc_s.a(d000018.o)
                              D:/CODEX/Dev-Cpp/TDM-GCC3264/bin/../lib/gcc/x86_64-w64-mingw32/10.3.0\libstdc++.a(eh_personality.o) (_Unwind_SetIP)
D:/CODEX/Dev-Cpp/TDM-GCC3264/bin/../lib/gcc/x86_64-w64-mingw32/10.3.0/libgcc_s.a(d000017.o)
                              D:/CODEX/Dev-Cpp/TDM-GCC3264/bin/../lib/gcc/x86_64-w64-mingw32/10.3.0\libstdc++.a(eh_personality.o) (_Unwind_SetGR)
D:/CODEX/Dev-Cpp/TDM-GCC3264/bin/../lib/gcc/x86_64-w64-mingw32/10.3.0/libgcc_s.a(d000016.o)
                              D:/CODEX/Dev-Cpp/TDM-GCC3264/bin/../lib/gcc/x86_64-w64-mingw32/10.3.0\libstdc++.a(eh_throw.o) (_Unwind_Resume_or_Rethrow)
D:/CODEX/Dev-Cpp/TDM-GCC3264/bin/../lib/gcc/x86_64-w64-mingw32/10.3.0/libgcc_s.a(d000015.o)
                              D:/CODEX/Dev-Cpp/TDM-GCC3264/bin/../lib/gcc/x86_64-w64-mingw32/10.3.0\libstdc++.a(eh_alloc.o) (_Unwind_Resume)
D:/CODEX/Dev-Cpp/TDM-GCC3264/bin/../lib/gcc/x86_64-w64-mingw32/10.3.0/libgcc_s.a(d000014.o)
                              D:/CODEX/Dev-Cpp/TDM-GCC3264/bin/../lib/gcc/x86_64-w64-mingw32/10.3.0\libstdc++.a(eh_throw.o) (_Unwind_RaiseException)
D:/CODEX/Dev-Cpp/TDM-GCC3264/bin/../lib/gcc/x86_64-w64-mingw32/10.3.0/libgcc_s.a(d000013.o)
                              D:/CODEX/Dev-Cpp/TDM-GCC3264/bin/../lib/gcc/x86_64-w64-mingw32/10.3.0\libstdc++.a(eh_personality.o) (_Unwind_GetTextRelBase)
D:/CODEX/Dev-Cpp/TDM-GCC3264/bin/../lib/gcc/x86_64-w64-mingw32/10.3.0/libgcc_s.a(d000012.o)
                              D:/CODEX/Dev-Cpp/TDM-GCC3264/bin/../lib/gcc/x86_64-w64-mingw32/10.3.0\libstdc++.a(eh_personality.o) (_Unwind_GetRegionStart)
D:/CODEX/Dev-Cpp/TDM-GCC3264/bin/../lib/gcc/x86_64-w64-mingw32/10.3.0/libgcc_s.a(d000011.o)
                              D:/CODEX/Dev-Cpp/TDM-GCC3264/bin/../lib/gcc/x86_64-w64-mingw32/10.3.0\libstdc++.a(eh_personality.o) (_Unwind_GetLanguageSpecificData)
D:/CODEX/Dev-Cpp/TDM-GCC3264/bin/../lib/gcc/x86_64-w64-mingw32/10.3.0/libgcc_s.a(d000010.o)
                              D:/CODEX/Dev-Cpp/TDM-GCC3264/bin/../lib/gcc/x86_64-w64-mingw32/10.3.0\libstdc++.a(eh_personality.o) (_Unwind_GetIPInfo)
D:/CODEX/Dev-Cpp/TDM-GCC3264/bin/../lib/gcc/x86_64-w64-mingw32/10.3.0/libgcc_s.a(d000007.o)
                              D:/CODEX/Dev-Cpp/TDM-GCC3264/bin/../lib/gcc/x86_64-w64-mingw32/10.3.0\libstdc++.a(eh_personality.o) (_Unwind_GetDataRelBase)
D:/CODEX/Dev-Cpp/TDM-GCC3264/bin/../lib/gcc/x86_64-w64-mingw32/10.3.0/libgcc_s.a(d000003.o)
                              D:/CODEX/Dev-Cpp/TDM-GCC3264/bin/../lib/gcc/x86_64-w64-mingw32/10.3.0\libstdc++.a(eh_catch.o) (_Unwind_DeleteException)
D:/CODEX/Dev-Cpp/TDM-GCC3264/bin/../lib/gcc/x86_64-w64-mingw32/10.3.0/libgcc_s.a(d000001.o)
                              D:/CODEX/Dev-Cpp/TDM-GCC3264/bin/../lib/gcc/x86_64-w64-mingw32/10.3.0\libstdc++.a(eh_personality.o) (_GCC_specific_handler)
D:/CODEX/Dev-Cpp/TDM-GCC3264/bin/../lib/gcc/x86_64-w64-mingw32/10.3.0/libgcc_s.a(d000000.o)
                              D:/CODEX/Dev-Cpp/TDM-GCC3264/bin/../lib/gcc/x86_64-w64-mingw32/10.3.0/libgcc_s.a(d000018.o) (_head_libgcc_s_seh_64_1_dll)
D:/CODEX/Dev-Cpp/TDM-GCC3264/bin/../lib/gcc/x86_64-w64-mingw32/10.3.0/libgcc_s.a(d000123.o)
                              D:/CODEX/Dev-Cpp/TDM-GCC3264/bin/../lib/gcc/x86_64-w64-mingw32/10.3.0/libgcc_s.a(d000000.o) (libgcc_s_seh_64_1_dll_iname)
D:/CODEX/Dev-Cpp/TDM-GCC3264/bin/../lib/gcc/x86_64-w64-mingw32/10.3.0/libgcc.a(_chkstk_ms.o)
                              D:/CODEX/Dev-Cpp/TDM-GCC3264/bin/../lib/gcc/x86_64-w64-mingw32/10.3.0\libstdc++.a(cp-demangle.o) (___chkstk_ms)
D:/CODEX/Dev-Cpp/TDM-GCC3264/bin/../lib/gcc/x86_64-w64-mingw32/10.3.0/libgcc.a(_ctors.o)
                              D:\CODEX\Dev-Cpp\TDM-GCC3264\x86_64-w64-mingw32\lib/libmingw32.a(lib64_libmingw32_a-gccmain.o) (__DTOR_LIST__)
D:/CODEX/Dev-Cpp/TDM-GCC3264/bin/../lib/gcc/x86_64-w64-mingw32/10.3.0/libgcc.a(eh_shmem3_mingw.o)
                              D:/CODEX/Dev-Cpp/TDM-GCC3264/bin/../lib/gcc/x86_64-w64-mingw32/10.3.0\libstdc++.a(eh_terminate.o) (__eh_shmem3_gcc_tdm_init_local_region)
D:\CODEX\Dev-Cpp\TDM-GCC3264\x86_64-w64-mingw32\lib/libpthread.a(libwinpthread_la-mutex.o)
                              D:/CODEX/Dev-Cpp/TDM-GCC3264/bin/../lib/gcc/x86_64-w64-mingw32/10.3.0\libstdc++.a(eh_alloc.o) (pthread_mutex_lock)
D:\CODEX\Dev-Cpp\TDM-GCC3264\x86_64-w64-mingw32\lib/libpthread.a(libwinpthread_la-thread.o)
                              D:/CODEX/Dev-Cpp/TDM-GCC3264/bin/../lib/gcc/x86_64-w64-mingw32/10.3.0\libstdc++.a(eh_globals.o) (pthread_key_create)
D:\CODEX\Dev-Cpp\TDM-GCC3264\x86_64-w64-mingw32\lib/libpthread.a(libwinpthread_la-shmem3_mingw.o)
                              D:\CODEX\Dev-Cpp\TDM-GCC3264\x86_64-w64-mingw32\lib/libpthread.a(libwinpthread_la-thread.o) (__shmem3_winpthreads_tdm_init_local_region)
D:\CODEX\Dev-Cpp\TDM-GCC3264\x86_64-w64-mingw32\lib/libpthread.a(libwinpthread_la-misc.o)
                              D:\CODEX\Dev-Cpp\TDM-GCC3264\x86_64-w64-mingw32\lib/libpthread.a(libwinpthread_la-mutex.o) (_pthread_time_in_ms)
D:\CODEX\Dev-Cpp\TDM-GCC3264\x86_64-w64-mingw32\lib/libpthread.a(libwinpthread_la-rwlock.o)
                              D:\CODEX\Dev-Cpp\TDM-GCC3264\x86_64-w64-mingw32\lib/libpthread.a(libwinpthread_la-thread.o) (pthread_rwlock_rdlock)
D:\CODEX\Dev-Cpp\TDM-GCC3264\x86_64-w64-mingw32\lib/libpthread.a(libwinpthread_la-spinlock.o)
                              D:\CODEX\Dev-Cpp\TDM-GCC3264\x86_64-w64-mingw32\lib/libpthread.a(libwinpthread_la-thread.o) (pthread_spin_destroy)
D:\CODEX\Dev-Cpp\TDM-GCC3264\x86_64-w64-mingw32\lib/libpthread.a(libwinpthread_la-cond.o)
                              D:\CODEX\Dev-Cpp\TDM-GCC3264\x86_64-w64-mingw32\lib/libpthread.a(libwinpthread_la-rwlock.o) (pthread_cond_init)
D:\CODEX\Dev-Cpp\TDM-GCC3264\x86_64-w64-mingw32\lib/libpthread.a(libwinpthread_la-sched.o)
                              D:\CODEX\Dev-Cpp\TDM-GCC3264\x86_64-w64-mingw32\lib/libpthread.a(libwinpthread_la-cond.o) (sched_yield)
D:\CODEX\Dev-Cpp\TDM-GCC3264\x86_64-w64-mingw32\lib/libkernel32.a(dwdrs01502.o)
                              D:/CODEX/Dev-Cpp/TDM-GCC3264/bin/../lib/gcc/x86_64-w64-mingw32/10.3.0/libgcc.a(eh_shmem3_mingw.o) (__imp_WaitForSingleObject)
D:\CODEX\Dev-Cpp\TDM-GCC3264\x86_64-w64-mingw32\lib/libkernel32.a(dwdrs01500.o)
                              D:\CODEX\Dev-Cpp\TDM-GCC3264\x86_64-w64-mingw32\lib/libpthread.a(libwinpthread_la-misc.o) (__imp_WaitForMultipleObjects)
D:\CODEX\Dev-Cpp\TDM-GCC3264\x86_64-w64-mingw32\lib/libkernel32.a(dwdrs01493.o)
                              D:\CODEX\Dev-Cpp\TDM-GCC3264\x86_64-w64-mingw32\lib/libmingw32.a(lib64_libmingw32_a-pseudo-reloc.o) (__imp_VirtualQuery)
D:\CODEX\Dev-Cpp\TDM-GCC3264\x86_64-w64-mingw32\lib/libkernel32.a(dwdrs01491.o)
                              D:\CODEX\Dev-Cpp\TDM-GCC3264\x86_64-w64-mingw32\lib/libmingw32.a(lib64_libmingw32_a-pseudo-reloc.o) (__imp_VirtualProtect)
D:\CODEX\Dev-Cpp\TDM-GCC3264\x86_64-w64-mingw32\lib/libkernel32.a(dwdrs01451.o)
                              D:\CODEX\Dev-Cpp\TDM-GCC3264\x86_64-w64-mingw32\lib/libpthread.a(libwinpthread_la-cond.o) (__imp_TryEnterCriticalSection)
D:\CODEX\Dev-Cpp\TDM-GCC3264\x86_64-w64-mingw32\lib/libkernel32.a(dwdrs01445.o)
                              D:\CODEX\Dev-Cpp\TDM-GCC3264\x86_64-w64-mingw32\lib/libpthread.a(libwinpthread_la-thread.o) (__imp_TlsSetValue)
D:\CODEX\Dev-Cpp\TDM-GCC3264\x86_64-w64-mingw32\lib/libkernel32.a(dwdrs01444.o)
                              D:\CODEX\Dev-Cpp\TDM-GCC3264\x86_64-w64-mingw32\lib/libmingw32.a(lib64_libmingw32_a-tlsthrd.o) (__imp_TlsGetValue)
D:\CODEX\Dev-Cpp\TDM-GCC3264\x86_64-w64-mingw32\lib/libkernel32.a(dwdrs01442.o)
                              D:\CODEX\Dev-Cpp\TDM-GCC3264\x86_64-w64-mingw32\lib/libpthread.a(libwinpthread_la-thread.o) (__imp_TlsAlloc)
D:\CODEX\Dev-Cpp\TDM-GCC3264\x86_64-w64-mingw32\lib/libkernel32.a(dwdrs01417.o)
                              D:\CODEX\Dev-Cpp\TDM-GCC3264\x86_64-w64-mingw32\lib/libpthread.a(libwinpthread_la-thread.o) (__imp_SuspendThread)
D:\CODEX\Dev-Cpp\TDM-GCC3264\x86_64-w64-mingw32\lib/libkernel32.a(dwdrs01377.o)
                              D:\CODEX\Dev-Cpp\TDM-GCC3264\x86_64-w64-mingw32\lib/libpthread.a(libwinpthread_la-thread.o) (__imp_SetThreadPriority)
D:\CODEX\Dev-Cpp\TDM-GCC3264\x86_64-w64-mingw32\lib/libkernel32.a(dwdrs01367.o)
                              D:\CODEX\Dev-Cpp\TDM-GCC3264\x86_64-w64-mingw32\lib/libpthread.a(libwinpthread_la-thread.o) (__imp_SetThreadContext)
D:\CODEX\Dev-Cpp\TDM-GCC3264\x86_64-w64-mingw32\lib/libkernel32.a(dwdrs01344.o)
                              D:\CODEX\Dev-Cpp\TDM-GCC3264\x86_64-w64-mingw32\lib/libpthread.a(libwinpthread_la-thread.o) (__imp_SetProcessAffinityMask)
D:\CODEX\Dev-Cpp\TDM-GCC3264\x86_64-w64-mingw32\lib/libkernel32.a(dwdrs01333.o)
                              D:\CODEX\Dev-Cpp\TDM-GCC3264\x86_64-w64-mingw32\lib/libpthread.a(libwinpthread_la-thread.o) (__imp_SetLastError)
D:\CODEX\Dev-Cpp\TDM-GCC3264\x86_64-w64-mingw32\lib/libkernel32.a(dwdrs01305.o)
                              D:\CODEX\Dev-Cpp\TDM-GCC3264\x86_64-w64-mingw32\lib/libpthread.a(libwinpthread_la-mutex.o) (__imp_SetEvent)
D:\CODEX\Dev-Cpp\TDM-GCC3264\x86_64-w64-mingw32\lib/libkernel32.a(dwdrs01220.o)
                              D:\CODEX\Dev-Cpp\TDM-GCC3264\x86_64-w64-mingw32\lib/libpthread.a(libwinpthread_la-thread.o) (__imp_ResumeThread)
D:\CODEX\Dev-Cpp\TDM-GCC3264\x86_64-w64-mingw32\lib/libkernel32.a(dwdrs01213.o)
                              D:\CODEX\Dev-Cpp\TDM-GCC3264\x86_64-w64-mingw32\lib/libpthread.a(libwinpthread_la-thread.o) (__imp_ResetEvent)
D:\CODEX\Dev-Cpp\TDM-GCC3264\x86_64-w64-mingw32\lib/libkernel32.a(dwdrs01206.o)
                              D:\CODEX\Dev-Cpp\TDM-GCC3264\x86_64-w64-mingw32\lib/libpthread.a(libwinpthread_la-thread.o) (__imp_RemoveVectoredExceptionHandler)
D:\CODEX\Dev-Cpp\TDM-GCC3264\x86_64-w64-mingw32\lib/libkernel32.a(dwdrs01195.o)
                              D:\CODEX\Dev-Cpp\TDM-GCC3264\x86_64-w64-mingw32\lib/libpthread.a(libwinpthread_la-cond.o) (__imp_ReleaseSemaphore)
D:\CODEX\Dev-Cpp\TDM-GCC3264\x86_64-w64-mingw32\lib/libkernel32.a(dwdrs01191.o)
                              D:/CODEX/Dev-Cpp/TDM-GCC3264/bin/../lib/gcc/x86_64-w64-mingw32/10.3.0/libgcc.a(eh_shmem3_mingw.o) (__imp_ReleaseMutex)
D:\CODEX\Dev-Cpp\TDM-GCC3264\x86_64-w64-mingw32\lib/libkernel32.a(dwdrs01152.o)
                              D:\CODEX\Dev-Cpp\TDM-GCC3264\x86_64-w64-mingw32\lib/libpthread.a(libwinpthread_la-thread.o) (__imp_RaiseException)
D:\CODEX\Dev-Cpp\TDM-GCC3264\x86_64-w64-mingw32\lib/libkernel32.a(dwdrs01131.o)
                              D:\CODEX\Dev-Cpp\TDM-GCC3264\x86_64-w64-mingw32\lib/libpthread.a(libwinpthread_la-misc.o) (__imp_QueryPerformanceFrequency)
D:\CODEX\Dev-Cpp\TDM-GCC3264\x86_64-w64-mingw32\lib/libkernel32.a(dwdrs01130.o)
                              D:\CODEX\Dev-Cpp\TDM-GCC3264\x86_64-w64-mingw32\lib/libpthread.a(libwinpthread_la-misc.o) (__imp_QueryPerformanceCounter)
D:\CODEX\Dev-Cpp\TDM-GCC3264\x86_64-w64-mingw32\lib/libkernel32.a(dwdrs01077.o)
                              D:/CODEX/Dev-Cpp/TDM-GCC3264/bin/../lib/gcc/x86_64-w64-mingw32/10.3.0/libgcc.a(eh_shmem3_mingw.o) (__imp_OutputDebugStringA)
D:\CODEX\Dev-Cpp\TDM-GCC3264\x86_64-w64-mingw32\lib/libkernel32.a(dwdrs01068.o)
                              D:\CODEX\Dev-Cpp\TDM-GCC3264\x86_64-w64-mingw32\lib/libpthread.a(libwinpthread_la-sched.o) (__imp_OpenProcess)
D:\CODEX\Dev-Cpp\TDM-GCC3264\x86_64-w64-mingw32\lib/libkernel32.a(dwdrs01001.o)
                              D:/CODEX/Dev-Cpp/TDM-GCC3264/bin/../lib/gcc/x86_64-w64-mingw32/10.3.0/libgcc.a(eh_shmem3_mingw.o) (__imp_LocalFree)
D:\CODEX\Dev-Cpp\TDM-GCC3264\x86_64-w64-mingw32\lib/libkernel32.a(dwdrs00983.o)
                              D:\CODEX\Dev-Cpp\TDM-GCC3264\x86_64-w64-mingw32\lib/libmingw32.a(lib64_libmingw32_a-tlsthrd.o) (__imp_LeaveCriticalSection)
D:\CODEX\Dev-Cpp\TDM-GCC3264\x86_64-w64-mingw32\lib/libkernel32.a(dwdrs00919.o)
                              D:/CODEX/Dev-Cpp/TDM-GCC3264/bin/../lib/gcc/x86_64-w64-mingw32/10.3.0/libgcc.a(eh_shmem3_mingw.o) (__imp_IsDebuggerPresent)
D:\CODEX\Dev-Cpp\TDM-GCC3264\x86_64-w64-mingw32\lib/libkernel32.a(dwdrs00891.o)
                              D:\CODEX\Dev-Cpp\TDM-GCC3264\x86_64-w64-mingw32\lib/libmingw32.a(lib64_libmingw32_a-tlsthrd.o) (__imp_InitializeCriticalSection)
D:\CODEX\Dev-Cpp\TDM-GCC3264\x86_64-w64-mingw32\lib/libkernel32.a(dwdrs00798.o)
                              D:\CODEX\Dev-Cpp\TDM-GCC3264\x86_64-w64-mingw32\lib/libpthread.a(libwinpthread_la-misc.o) (__imp_GetTickCount)
D:\CODEX\Dev-Cpp\TDM-GCC3264\x86_64-w64-mingw32\lib/libkernel32.a(dwdrs00792.o)
                              D:\CODEX\Dev-Cpp\TDM-GCC3264\x86_64-w64-mingw32\lib/libpthread.a(libwinpthread_la-thread.o) (__imp_GetThreadPriority)
D:\CODEX\Dev-Cpp\TDM-GCC3264\x86_64-w64-mingw32\lib/libkernel32.a(dwdrs00782.o)
                              D:\CODEX\Dev-Cpp\TDM-GCC3264\x86_64-w64-mingw32\lib/libpthread.a(libwinpthread_la-thread.o) (__imp_GetThreadContext)
D:\CODEX\Dev-Cpp\TDM-GCC3264\x86_64-w64-mingw32\lib/libkernel32.a(dwdrs00768.o)
                              D:\CODEX\Dev-Cpp\TDM-GCC3264\x86_64-w64-mingw32\lib/libpthread.a(libwinpthread_la-misc.o) (__imp_GetSystemTimeAsFileTime)
D:\CODEX\Dev-Cpp\TDM-GCC3264\x86_64-w64-mingw32\lib/libkernel32.a(dwdrs00710.o)
                              D:\CODEX\Dev-Cpp\TDM-GCC3264\x86_64-w64-mingw32\lib/libpthread.a(libwinpthread_la-thread.o) (__imp_GetProcessAffinityMask)
D:\CODEX\Dev-Cpp\TDM-GCC3264\x86_64-w64-mingw32\lib/libkernel32.a(dwdrs00629.o)
                              D:\CODEX\Dev-Cpp\TDM-GCC3264\x86_64-w64-mingw32\lib/libmingw32.a(lib64_libmingw32_a-pseudo-reloc.o) (__imp_GetLastError)
D:\CODEX\Dev-Cpp\TDM-GCC3264\x86_64-w64-mingw32\lib/libkernel32.a(dwdrs00626.o)
                              D:\CODEX\Dev-Cpp\TDM-GCC3264\x86_64-w64-mingw32\lib/libpthread.a(libwinpthread_la-thread.o) (__imp_GetHandleInformation)
D:\CODEX\Dev-Cpp\TDM-GCC3264\x86_64-w64-mingw32\lib/libkernel32.a(dwdrs00556.o)
                              D:\CODEX\Dev-Cpp\TDM-GCC3264\x86_64-w64-mingw32\lib/libpthread.a(libwinpthread_la-mutex.o) (__imp_GetCurrentThreadId)
D:\CODEX\Dev-Cpp\TDM-GCC3264\x86_64-w64-mingw32\lib/libkernel32.a(dwdrs00555.o)
                              D:\CODEX\Dev-Cpp\TDM-GCC3264\x86_64-w64-mingw32\lib/libpthread.a(libwinpthread_la-thread.o) (__imp_GetCurrentThread)
D:\CODEX\Dev-Cpp\TDM-GCC3264\x86_64-w64-mingw32\lib/libkernel32.a(dwdrs00552.o)
                              D:/CODEX/Dev-Cpp/TDM-GCC3264/bin/../lib/gcc/x86_64-w64-mingw32/10.3.0/libgcc.a(eh_shmem3_mingw.o) (__imp_GetCurrentProcessId)
D:\CODEX\Dev-Cpp\TDM-GCC3264\x86_64-w64-mingw32\lib/libkernel32.a(dwdrs00551.o)
                              D:\CODEX\Dev-Cpp\TDM-GCC3264\x86_64-w64-mingw32\lib/libpthread.a(libwinpthread_la-thread.o) (__imp_GetCurrentProcess)
D:\CODEX\Dev-Cpp\TDM-GCC3264\x86_64-w64-mingw32\lib/libkernel32.a(dwdrs00459.o)
                              D:/CODEX/Dev-Cpp/TDM-GCC3264/bin/../lib/gcc/x86_64-w64-mingw32/10.3.0/libgcc.a(eh_shmem3_mingw.o) (__imp_GetAtomNameA)
D:\CODEX\Dev-Cpp\TDM-GCC3264\x86_64-w64-mingw32\lib/libkernel32.a(dwdrs00437.o)
                              D:/CODEX/Dev-Cpp/TDM-GCC3264/bin/../lib/gcc/x86_64-w64-mingw32/10.3.0/libgcc.a(eh_shmem3_mingw.o) (__imp_FormatMessageA)
D:\CODEX\Dev-Cpp\TDM-GCC3264\x86_64-w64-mingw32\lib/libkernel32.a(dwdrs00386.o)
                              D:/CODEX/Dev-Cpp/TDM-GCC3264/bin/../lib/gcc/x86_64-w64-mingw32/10.3.0/libgcc.a(eh_shmem3_mingw.o) (__imp_FindAtomA)
D:\CODEX\Dev-Cpp\TDM-GCC3264\x86_64-w64-mingw32\lib/libkernel32.a(dwdrs00318.o)
                              D:\CODEX\Dev-Cpp\TDM-GCC3264\x86_64-w64-mingw32\lib/libmingw32.a(lib64_libmingw32_a-tlsthrd.o) (__imp_EnterCriticalSection)
D:\CODEX\Dev-Cpp\TDM-GCC3264\x86_64-w64-mingw32\lib/libkernel32.a(dwdrs00312.o)
                              D:\CODEX\Dev-Cpp\TDM-GCC3264\x86_64-w64-mingw32\lib/libpthread.a(libwinpthread_la-thread.o) (__imp_DuplicateHandle)
D:\CODEX\Dev-Cpp\TDM-GCC3264\x86_64-w64-mingw32\lib/libkernel32.a(dwdrs00282.o)
                              D:\CODEX\Dev-Cpp\TDM-GCC3264\x86_64-w64-mingw32\lib/libmingw32.a(lib64_libmingw32_a-tlsthrd.o) (__imp_DeleteCriticalSection)
D:\CODEX\Dev-Cpp\TDM-GCC3264\x86_64-w64-mingw32\lib/libkernel32.a(dwdrs00280.o)
                              D:/CODEX/Dev-Cpp/TDM-GCC3264/bin/../lib/gcc/x86_64-w64-mingw32/10.3.0/libgcc.a(eh_shmem3_mingw.o) (__imp_DeleteAtom)
D:\CODEX\Dev-Cpp\TDM-GCC3264\x86_64-w64-mingw32\lib/libkernel32.a(dwdrs00242.o)
                              D:\CODEX\Dev-Cpp\TDM-GCC3264\x86_64-w64-mingw32\lib/libpthread.a(libwinpthread_la-cond.o) (__imp_CreateSemaphoreA)
D:\CODEX\Dev-Cpp\TDM-GCC3264\x86_64-w64-mingw32\lib/libkernel32.a(dwdrs00223.o)
                              D:/CODEX/Dev-Cpp/TDM-GCC3264/bin/../lib/gcc/x86_64-w64-mingw32/10.3.0/libgcc.a(eh_shmem3_mingw.o) (__imp_CreateMutexA)
D:\CODEX\Dev-Cpp\TDM-GCC3264\x86_64-w64-mingw32\lib/libkernel32.a(dwdrs00196.o)
                              D:\CODEX\Dev-Cpp\TDM-GCC3264\x86_64-w64-mingw32\lib/libpthread.a(libwinpthread_la-mutex.o) (__imp_CreateEventA)
D:\CODEX\Dev-Cpp\TDM-GCC3264\x86_64-w64-mingw32\lib/libkernel32.a(dwdrs00140.o)
                              D:/CODEX/Dev-Cpp/TDM-GCC3264/bin/../lib/gcc/x86_64-w64-mingw32/10.3.0/libgcc.a(eh_shmem3_mingw.o) (__imp_CloseHandle)
D:\CODEX\Dev-Cpp\TDM-GCC3264\x86_64-w64-mingw32\lib/libkernel32.a(dwdrs00019.o)
                              D:\CODEX\Dev-Cpp\TDM-GCC3264\x86_64-w64-mingw32\lib/libpthread.a(libwinpthread_la-thread.o) (__imp_AddVectoredExceptionHandler)
D:\CODEX\Dev-Cpp\TDM-GCC3264\x86_64-w64-mingw32\lib/libkernel32.a(dwdrs00004.o)
                              D:/CODEX/Dev-Cpp/TDM-GCC3264/bin/../lib/gcc/x86_64-w64-mingw32/10.3.0/libgcc.a(eh_shmem3_mingw.o) (__imp_AddAtomA)
D:\CODEX\Dev-Cpp\TDM-GCC3264\x86_64-w64-mingw32\lib/libmingwex.a(lib64_libmingwex_a-mingw_matherr.o)
                              D:/CODEX/Dev-Cpp/TDM-GCC3264/bin/../lib/gcc/x86_64-w64-mingw32/10.3.0/../../../../x86_64-w64-mingw32/lib/../lib/crt2.o (_MINGW_INSTALL_DEBUG_MATHERR)
D:\CODEX\Dev-Cpp\TDM-GCC3264\x86_64-w64-mingw32\lib/libmingwex.a(lib64_libmingwex_a-mingw_vfprintfw.o)
                              C:\Users\ARABBI~1\AppData\Local\Temp\ccJboNLv.o (symbol from plugin) (__mingw_vfwprintf)
D:\CODEX\Dev-Cpp\TDM-GCC3264\x86_64-w64-mingw32\lib/libmingwex.a(lib64_libmingwex_a-mingw_vsprintf.o)
                              D:/CODEX/Dev-Cpp/TDM-GCC3264/bin/../lib/gcc/x86_64-w64-mingw32/10.3.0\libstdc++.a(cp-demangle.o) (__mingw_vsprintf)
D:\CODEX\Dev-Cpp\TDM-GCC3264\x86_64-w64-mingw32\lib/libmingwex.a(lib64_libmingwex_a-mingw_pformat.o)
                              D:\CODEX\Dev-Cpp\TDM-GCC3264\x86_64-w64-mingw32\lib/libmingwex.a(lib64_libmingwex_a-mingw_vsprintf.o) (__mingw_pformat)
D:\CODEX\Dev-Cpp\TDM-GCC3264\x86_64-w64-mingw32\lib/libmingwex.a(lib64_libmingwex_a-mingw_pformatw.o)
                              D:\CODEX\Dev-Cpp\TDM-GCC3264\x86_64-w64-mingw32\lib/libmingwex.a(lib64_libmingwex_a-mingw_vfprintfw.o) (__mingw_wpformat)
D:\CODEX\Dev-Cpp\TDM-GCC3264\x86_64-w64-mingw32\lib/libmingwex.a(lib64_libmingwex_a-dmisc.o)
                              D:\CODEX\Dev-Cpp\TDM-GCC3264\x86_64-w64-mingw32\lib/libmingwex.a(lib64_libmingwex_a-mingw_pformat.o) (__freedtoa)
D:\CODEX\Dev-Cpp\TDM-GCC3264\x86_64-w64-mingw32\lib/libmingwex.a(lib64_libmingwex_a-gdtoa.o)
                              D:\CODEX\Dev-Cpp\TDM-GCC3264\x86_64-w64-mingw32\lib/libmingwex.a(lib64_libmingwex_a-mingw_pformat.o) (__gdtoa)
D:\CODEX\Dev-Cpp\TDM-GCC3264\x86_64-w64-mingw32\lib/libmingwex.a(lib64_libmingwex_a-gmisc.o)
                              D:\CODEX\Dev-Cpp\TDM-GCC3264\x86_64-w64-mingw32\lib/libmingwex.a(lib64_libmingwex_a-gdtoa.o) (__rshift_D2A)
D:\CODEX\Dev-Cpp\TDM-GCC3264\x86_64-w64-mingw32\lib/libmingwex.a(lib64_libmingwex_a-misc.o)
                              D:\CODEX\Dev-Cpp\TDM-GCC3264\x86_64-w64-mingw32\lib/libmingwex.a(lib64_libmingwex_a-dmisc.o) (__Balloc_D2A)
D:\CODEX\Dev-Cpp\TDM-GCC3264\x86_64-w64-mingw32\lib/libmingwex.a(lib64_libmingwex_a-strnlen.o)
                              D:\CODEX\Dev-Cpp\TDM-GCC3264\x86_64-w64-mingw32\lib/libmingwex.a(lib64_libmingwex_a-mingw_pformat.o) (strnlen)
D:\CODEX\Dev-Cpp\TDM-GCC3264\x86_64-w64-mingw32\lib/libmingwex.a(lib64_libmingwex_a-wcsnlen.o)
                              D:\CODEX\Dev-Cpp\TDM-GCC3264\x86_64-w64-mingw32\lib/libmingwex.a(lib64_libmingwex_a-mingw_pformat.o) (wcsnlen)
D:\CODEX\Dev-Cpp\TDM-GCC3264\x86_64-w64-mingw32\lib/libmsvcrt.a(dcfxs01283.o)
                              D:\CODEX\Dev-Cpp\TDM-GCC3264\x86_64-w64-mingw32\lib/libmingwex.a(lib64_libmingwex_a-mingw_pformat.o) (wcslen)
D:\CODEX\Dev-Cpp\TDM-GCC3264\x86_64-w64-mingw32\lib/libmsvcrt.a(dcfxs01258.o)
                              D:\CODEX\Dev-Cpp\TDM-GCC3264\x86_64-w64-mingw32\lib/libmingw32.a(lib64_libmingw32_a-pseudo-reloc.o) (vfprintf)
D:\CODEX\Dev-Cpp\TDM-GCC3264\x86_64-w64-mingw32\lib/libmsvcrt.a(dcfxs01222.o)
                              D:\CODEX\Dev-Cpp\TDM-GCC3264\x86_64-w64-mingw32\lib/libmingw32.a(lib64_libmingw32_a-pesect.o) (strncmp)
D:\CODEX\Dev-Cpp\TDM-GCC3264\x86_64-w64-mingw32\lib/libmsvcrt.a(dcfxs01219.o)
                              D:/CODEX/Dev-Cpp/TDM-GCC3264/bin/../lib/gcc/x86_64-w64-mingw32/10.3.0/../../../../x86_64-w64-mingw32/lib/../lib/crt2.o (strlen)
D:\CODEX\Dev-Cpp\TDM-GCC3264\x86_64-w64-mingw32\lib/libmsvcrt.a(dcfxs01217.o)
                              D:\CODEX\Dev-Cpp\TDM-GCC3264\x86_64-w64-mingw32\lib/libmingwex.a(lib64_libmingwex_a-mingw_pformat.o) (strerror)
D:\CODEX\Dev-Cpp\TDM-GCC3264\x86_64-w64-mingw32\lib/libmsvcrt.a(dcfxs01212.o)
                              D:/CODEX/Dev-Cpp/TDM-GCC3264/bin/../lib/gcc/x86_64-w64-mingw32/10.3.0\libstdc++.a(tinfo.o) (strcmp)
D:\CODEX\Dev-Cpp\TDM-GCC3264\x86_64-w64-mingw32\lib/libmsvcrt.a(dcfxs01196.o)
                              D:\CODEX\Dev-Cpp\TDM-GCC3264\x86_64-w64-mingw32\lib/libmingw32.a(lib64_libmingw32_a-crt_handler.o) (signal)
D:\CODEX\Dev-Cpp\TDM-GCC3264\x86_64-w64-mingw32\lib/libmsvcrt.a(dcfxs01187.o)
                              D:/CODEX/Dev-Cpp/TDM-GCC3264/bin/../lib/gcc/x86_64-w64-mingw32/10.3.0\libstdc++.a(cp-demangle.o) (realloc)
D:\CODEX\Dev-Cpp\TDM-GCC3264\x86_64-w64-mingw32\lib/libmsvcrt.a(dcfxs01174.o)
                              D:\CODEX\Dev-Cpp\TDM-GCC3264\x86_64-w64-mingw32\lib/libpthread.a(libwinpthread_la-thread.o) (printf)
D:\CODEX\Dev-Cpp\TDM-GCC3264\x86_64-w64-mingw32\lib/libmsvcrt.a(dcfxs01166.o)
                              D:\CODEX\Dev-Cpp\TDM-GCC3264\x86_64-w64-mingw32\lib/libpthread.a(libwinpthread_la-thread.o) (memset)
D:\CODEX\Dev-Cpp\TDM-GCC3264\x86_64-w64-mingw32\lib/libmsvcrt.a(dcfxs01165.o)
                              D:\CODEX\Dev-Cpp\TDM-GCC3264\x86_64-w64-mingw32\lib/libpthread.a(libwinpthread_la-thread.o) (memmove)
D:\CODEX\Dev-Cpp\TDM-GCC3264\x86_64-w64-mingw32\lib/libmsvcrt.a(dcfxs01164.o)
                              D:/CODEX/Dev-Cpp/TDM-GCC3264/bin/../lib/gcc/x86_64-w64-mingw32/10.3.0/../../../../x86_64-w64-mingw32/lib/../lib/crt2.o (memcpy)
D:\CODEX\Dev-Cpp\TDM-GCC3264\x86_64-w64-mingw32\lib/libmsvcrt.a(dcfxs01156.o)
                              D:/CODEX/Dev-Cpp/TDM-GCC3264/bin/../lib/gcc/x86_64-w64-mingw32/10.3.0/../../../../x86_64-w64-mingw32/lib/../lib/crt2.o (malloc)
D:\CODEX\Dev-Cpp\TDM-GCC3264\x86_64-w64-mingw32\lib/libmsvcrt.a(dcfxs01155.o)
                              D:\CODEX\Dev-Cpp\TDM-GCC3264\x86_64-w64-mingw32\lib/libpthread.a(libwinpthread_la-thread.o) (__imp_longjmp)
D:\CODEX\Dev-Cpp\TDM-GCC3264\x86_64-w64-mingw32\lib/libmsvcrt.a(dcfxs01149.o)
                              D:\CODEX\Dev-Cpp\TDM-GCC3264\x86_64-w64-mingw32\lib/libmingwex.a(lib64_libmingwex_a-mingw_pformat.o) (localeconv)
D:\CODEX\Dev-Cpp\TDM-GCC3264\x86_64-w64-mingw32\lib/libmsvcrt.a(dcfxs01109.o)
                              D:/CODEX/Dev-Cpp/TDM-GCC3264/bin/../lib/gcc/x86_64-w64-mingw32/10.3.0\libstdc++.a(vterminate.o) (fwrite)
D:\CODEX\Dev-Cpp\TDM-GCC3264\x86_64-w64-mingw32\lib/libmsvcrt.a(dcfxs01106.o)
                              D:\CODEX\Dev-Cpp\TDM-GCC3264\x86_64-w64-mingw32\lib/libmingwex.a(lib64_libmingwex_a-mingw_pformatw.o) (__ms_fwprintf)
D:\CODEX\Dev-Cpp\TDM-GCC3264\x86_64-w64-mingw32\lib/libmsvcrt.a(dcfxs01097.o)
                              D:/CODEX/Dev-Cpp/TDM-GCC3264/bin/../lib/gcc/x86_64-w64-mingw32/10.3.0\libstdc++.a(del_op.o) (free)
D:\CODEX\Dev-Cpp\TDM-GCC3264\x86_64-w64-mingw32\lib/libmsvcrt.a(dcfxs01094.o)
                              D:\CODEX\Dev-Cpp\TDM-GCC3264\x86_64-w64-mingw32\lib/libmingwex.a(lib64_libmingwex_a-mingw_pformatw.o) (fputwc)
D:\CODEX\Dev-Cpp\TDM-GCC3264\x86_64-w64-mingw32\lib/libmsvcrt.a(dcfxs01093.o)
                              D:/CODEX/Dev-Cpp/TDM-GCC3264/bin/../lib/gcc/x86_64-w64-mingw32/10.3.0\libstdc++.a(vterminate.o) (fputs)
D:\CODEX\Dev-Cpp\TDM-GCC3264\x86_64-w64-mingw32\lib/libmsvcrt.a(dcfxs01092.o)
                              D:/CODEX/Dev-Cpp/TDM-GCC3264/bin/../lib/gcc/x86_64-w64-mingw32/10.3.0\libstdc++.a(vterminate.o) (fputc)
D:\CODEX\Dev-Cpp\TDM-GCC3264\x86_64-w64-mingw32\lib/libmsvcrt.a(dcfxs01090.o)
                              D:\CODEX\Dev-Cpp\TDM-GCC3264\x86_64-w64-mingw32\lib/libmingw32.a(lib64_libmingw32_a-merr.o) (fprintf)
D:\CODEX\Dev-Cpp\TDM-GCC3264\x86_64-w64-mingw32\lib/libmsvcrt.a(dcfxs01068.o)
                              D:/CODEX/Dev-Cpp/TDM-GCC3264/bin/../lib/gcc/x86_64-w64-mingw32/10.3.0/../../../../x86_64-w64-mingw32/lib/../lib/crt2.o (exit)
D:\CODEX\Dev-Cpp\TDM-GCC3264\x86_64-w64-mingw32\lib/libmsvcrt.a(dcfxs01054.o)
                              D:\CODEX\Dev-Cpp\TDM-GCC3264\x86_64-w64-mingw32\lib/libmingw32.a(lib64_libmingw32_a-tlsthrd.o) (calloc)
D:\CODEX\Dev-Cpp\TDM-GCC3264\x86_64-w64-mingw32\lib/libmsvcrt.a(dcfxs01037.o)
                              D:/CODEX/Dev-Cpp/TDM-GCC3264/bin/../lib/gcc/x86_64-w64-mingw32/10.3.0\libstdc++.a(eh_personality.o) (abort)
D:\CODEX\Dev-Cpp\TDM-GCC3264\x86_64-w64-mingw32\lib/libmsvcrt.a(dcfxs00991.o)
                              D:/CODEX/Dev-Cpp/TDM-GCC3264/bin/../lib/gcc/x86_64-w64-mingw32/10.3.0\libstdc++.a(pure.o) (write)
D:\CODEX\Dev-Cpp\TDM-GCC3264\x86_64-w64-mingw32\lib/libmsvcrt.a(dcfxs00809.o)
                              D:\CODEX\Dev-Cpp\TDM-GCC3264\x86_64-w64-mingw32\lib/libpthread.a(libwinpthread_la-thread.o) (__imp__ultoa)
D:\CODEX\Dev-Cpp\TDM-GCC3264\x86_64-w64-mingw32\lib/libmsvcrt.a(dcfxs00734.o)
                              D:\CODEX\Dev-Cpp\TDM-GCC3264\x86_64-w64-mingw32\lib/libpthread.a(libwinpthread_la-thread.o) (strdup)
D:\CODEX\Dev-Cpp\TDM-GCC3264\x86_64-w64-mingw32\lib/libmsvcrt.a(dcfxs00672.o)
                              D:\CODEX\Dev-Cpp\TDM-GCC3264\x86_64-w64-mingw32\lib/libpthread.a(libwinpthread_la-thread.o) (_setjmp)
D:\CODEX\Dev-Cpp\TDM-GCC3264\x86_64-w64-mingw32\lib/libmsvcrt.a(dcfxs00615.o)
                              D:/CODEX/Dev-Cpp/TDM-GCC3264/bin/../lib/gcc/x86_64-w64-mingw32/10.3.0/../../../../x86_64-w64-mingw32/lib/../lib/crt2.o (_onexit)
D:\CODEX\Dev-Cpp\TDM-GCC3264\x86_64-w64-mingw32\lib/libmsvcrt.a(dcfxs00602.o)
                              D:\CODEX\Dev-Cpp\TDM-GCC3264\x86_64-w64-mingw32\lib/libpthread.a(libwinpthread_la-thread.o) (memccpy)
D:\CODEX\Dev-Cpp\TDM-GCC3264\x86_64-w64-mingw32\lib/libmsvcrt.a(dcfxs00332.o)
                              D:/CODEX/Dev-Cpp/TDM-GCC3264/bin/../lib/gcc/x86_64-w64-mingw32/10.3.0/../../../../x86_64-w64-mingw32/lib/../lib/crt2.o (_initterm)
D:\CODEX\Dev-Cpp\TDM-GCC3264\x86_64-w64-mingw32\lib/libmsvcrt.a(dcfxs00204.o)
                              D:\CODEX\Dev-Cpp\TDM-GCC3264\x86_64-w64-mingw32\lib/libmingwex.a(lib64_libmingwex_a-mingw_pformat.o) (_errno)
D:\CODEX\Dev-Cpp\TDM-GCC3264\x86_64-w64-mingw32\lib/libmsvcrt.a(dcfxs00201.o)
                              D:\CODEX\Dev-Cpp\TDM-GCC3264\x86_64-w64-mingw32\lib/libpthread.a(libwinpthread_la-thread.o) (__imp__endthreadex)
D:\CODEX\Dev-Cpp\TDM-GCC3264\x86_64-w64-mingw32\lib/libmsvcrt.a(dcfxs00141.o)
                              D:/CODEX/Dev-Cpp/TDM-GCC3264/bin/../lib/gcc/x86_64-w64-mingw32/10.3.0/../../../../x86_64-w64-mingw32/lib/../lib/crt2.o (_cexit)
D:\CODEX\Dev-Cpp\TDM-GCC3264\x86_64-w64-mingw32\lib/libmsvcrt.a(dcfxs00137.o)
                              D:\CODEX\Dev-Cpp\TDM-GCC3264\x86_64-w64-mingw32\lib/libpthread.a(libwinpthread_la-thread.o) (__imp__beginthreadex)
D:\CODEX\Dev-Cpp\TDM-GCC3264\x86_64-w64-mingw32\lib/libmsvcrt.a(dcfxs00123.o)
                              D:/CODEX/Dev-Cpp/TDM-GCC3264/bin/../lib/gcc/x86_64-w64-mingw32/10.3.0/../../../../x86_64-w64-mingw32/lib/../lib/crt2.o (_amsg_exit)
D:\CODEX\Dev-Cpp\TDM-GCC3264\x86_64-w64-mingw32\lib/libmsvcrt.a(dcfxs00099.o)
                              D:\CODEX\Dev-Cpp\TDM-GCC3264\x86_64-w64-mingw32\lib/libmingw32.a(lib64_libmingw32_a-usermatherr.o) (__setusermatherr)
D:\CODEX\Dev-Cpp\TDM-GCC3264\x86_64-w64-mingw32\lib/libmsvcrt.a(dcfxs00097.o)
                              D:/CODEX/Dev-Cpp/TDM-GCC3264/bin/../lib/gcc/x86_64-w64-mingw32/10.3.0/../../../../x86_64-w64-mingw32/lib/../lib/crt2.o (__set_app_type)
D:\CODEX\Dev-Cpp\TDM-GCC3264\x86_64-w64-mingw32\lib/libmsvcrt.a(dcfxs00091.o)
                              D:\CODEX\Dev-Cpp\TDM-GCC3264\x86_64-w64-mingw32\lib/libmingw32.a(lib64_libmingw32_a-charmax.o) (__imp___lconv_init)
D:\CODEX\Dev-Cpp\TDM-GCC3264\x86_64-w64-mingw32\lib/libmsvcrt.a(dcfxs00082.o)
                              D:/CODEX/Dev-Cpp/TDM-GCC3264/bin/../lib/gcc/x86_64-w64-mingw32/10.3.0/../../../../x86_64-w64-mingw32/lib/../lib/crt2.o (__imp___initenv)
D:\CODEX\Dev-Cpp\TDM-GCC3264\x86_64-w64-mingw32\lib/libmsvcrt.a(dcfxs00081.o)
                              D:/CODEX/Dev-Cpp/TDM-GCC3264/bin/../lib/gcc/x86_64-w64-mingw32/10.3.0/../../../../x86_64-w64-mingw32/lib/../lib/crt2.o (__getmainargs)
D:\CODEX\Dev-Cpp\TDM-GCC3264\x86_64-w64-mingw32\lib/libmsvcrt.a(lib64_libmsvcrt_os_a-mbrtowc.o)
                              D:\CODEX\Dev-Cpp\TDM-GCC3264\x86_64-w64-mingw32\lib/libmingwex.a(lib64_libmingwex_a-mingw_pformat.o) (mbrtowc)
D:\CODEX\Dev-Cpp\TDM-GCC3264\x86_64-w64-mingw32\lib/libmsvcrt.a(lib64_libmsvcrt_os_a-wcrtomb.o)
                              D:\CODEX\Dev-Cpp\TDM-GCC3264\x86_64-w64-mingw32\lib/libmingwex.a(lib64_libmingwex_a-mingw_pformat.o) (wcrtomb)
D:\CODEX\Dev-Cpp\TDM-GCC3264\x86_64-w64-mingw32\lib/libmsvcrt.a(lib64_libmsvcrt_os_a-acrt_iob_func.o)
                              D:\CODEX\Dev-Cpp\TDM-GCC3264\x86_64-w64-mingw32\lib/libmingw32.a(lib64_libmingw32_a-merr.o) (__acrt_iob_func)
D:\CODEX\Dev-Cpp\TDM-GCC3264\x86_64-w64-mingw32\lib/libmsvcrt.a(lib64_libmsvcrt_os_a-invalid_parameter_handler.o)
                              D:/CODEX/Dev-Cpp/TDM-GCC3264/bin/../lib/gcc/x86_64-w64-mingw32/10.3.0/../../../../x86_64-w64-mingw32/lib/../lib/crt2.o (_set_invalid_parameter_handler)
D:\CODEX\Dev-Cpp\TDM-GCC3264\x86_64-w64-mingw32\lib/libmsvcrt.a(lib64_libmsvcrt_os_a-mingw_lock.o)
                              D:\CODEX\Dev-Cpp\TDM-GCC3264\x86_64-w64-mingw32\lib/libmingwex.a(lib64_libmingwex_a-mingw_vfprintfw.o) (_lock_file)
D:\CODEX\Dev-Cpp\TDM-GCC3264\x86_64-w64-mingw32\lib/libmsvcrt.a(lib64_libmsvcrt_os_a-__p__acmdln.o)
                              D:/CODEX/Dev-Cpp/TDM-GCC3264/bin/../lib/gcc/x86_64-w64-mingw32/10.3.0/../../../../x86_64-w64-mingw32/lib/../lib/crt2.o (__p__acmdln)
D:\CODEX\Dev-Cpp\TDM-GCC3264\x86_64-w64-mingw32\lib/libmsvcrt.a(lib64_libmsvcrt_os_a-__p__commode.o)
                              D:/CODEX/Dev-Cpp/TDM-GCC3264/bin/../lib/gcc/x86_64-w64-mingw32/10.3.0/../../../../x86_64-w64-mingw32/lib/../lib/crt2.o (__p__commode)
D:\CODEX\Dev-Cpp\TDM-GCC3264\x86_64-w64-mingw32\lib/libmsvcrt.a(lib64_libmsvcrt_os_a-__p__fmode.o)
                              D:/CODEX/Dev-Cpp/TDM-GCC3264/bin/../lib/gcc/x86_64-w64-mingw32/10.3.0/../../../../x86_64-w64-mingw32/lib/../lib/crt2.o (__p__fmode)
D:\CODEX\Dev-Cpp\TDM-GCC3264\x86_64-w64-mingw32\lib/libmsvcrt.a(dcfxh.o)
                              D:\CODEX\Dev-Cpp\TDM-GCC3264\x86_64-w64-mingw32\lib/libmsvcrt.a(dcfxs01283.o) (_head_lib64_libmsvcrt_os_a)
D:\CODEX\Dev-Cpp\TDM-GCC3264\x86_64-w64-mingw32\lib/libmsvcrt.a(dcfxs00821.o)
                              D:\CODEX\Dev-Cpp\TDM-GCC3264\x86_64-w64-mingw32\lib/libmsvcrt.a(lib64_libmsvcrt_os_a-mingw_lock.o) (_unlock)
D:\CODEX\Dev-Cpp\TDM-GCC3264\x86_64-w64-mingw32\lib/libmsvcrt.a(dcfxs00443.o)
                              D:\CODEX\Dev-Cpp\TDM-GCC3264\x86_64-w64-mingw32\lib/libmsvcrt.a(lib64_libmsvcrt_os_a-mingw_lock.o) (_lock)
D:\CODEX\Dev-Cpp\TDM-GCC3264\x86_64-w64-mingw32\lib/libmsvcrt.a(dcfxs00116.o)
                              D:\CODEX\Dev-Cpp\TDM-GCC3264\x86_64-w64-mingw32\lib/libmsvcrt.a(lib64_libmsvcrt_os_a-__p__acmdln.o) (__imp__acmdln)
D:\CODEX\Dev-Cpp\TDM-GCC3264\x86_64-w64-mingw32\lib/libmsvcrt.a(dcfxs00083.o)
                              D:\CODEX\Dev-Cpp\TDM-GCC3264\x86_64-w64-mingw32\lib/libmsvcrt.a(lib64_libmsvcrt_os_a-acrt_iob_func.o) (__iob_func)
D:\CODEX\Dev-Cpp\TDM-GCC3264\x86_64-w64-mingw32\lib/libmsvcrt.a(dcfxs00066.o)
                              D:\CODEX\Dev-Cpp\TDM-GCC3264\x86_64-w64-mingw32\lib/libmsvcrt.a(lib64_libmsvcrt_os_a-mbrtowc.o) (___mb_cur_max_func)
D:\CODEX\Dev-Cpp\TDM-GCC3264\x86_64-w64-mingw32\lib/libmsvcrt.a(dcfxs00063.o)
                              D:\CODEX\Dev-Cpp\TDM-GCC3264\x86_64-w64-mingw32\lib/libmsvcrt.a(lib64_libmsvcrt_os_a-mbrtowc.o) (___lc_codepage_func)
D:\CODEX\Dev-Cpp\TDM-GCC3264\x86_64-w64-mingw32\lib/libmsvcrt.a(dcfxt.o)
                              D:\CODEX\Dev-Cpp\TDM-GCC3264\x86_64-w64-mingw32\lib/libmsvcrt.a(dcfxh.o) (__lib64_libmsvcrt_os_a_iname)
D:\CODEX\Dev-Cpp\TDM-GCC3264\x86_64-w64-mingw32\lib/libkernel32.a(dwdrs01546.o)
                              D:\CODEX\Dev-Cpp\TDM-GCC3264\x86_64-w64-mingw32\lib/libmsvcrt.a(lib64_libmsvcrt_os_a-wcrtomb.o) (__imp_WideCharToMultiByte)
D:\CODEX\Dev-Cpp\TDM-GCC3264\x86_64-w64-mingw32\lib/libkernel32.a(dwdrs01035.o)
                              D:\CODEX\Dev-Cpp\TDM-GCC3264\x86_64-w64-mingw32\lib/libmsvcrt.a(lib64_libmsvcrt_os_a-mbrtowc.o) (__imp_MultiByteToWideChar)
D:\CODEX\Dev-Cpp\TDM-GCC3264\x86_64-w64-mingw32\lib/libkernel32.a(dwdrs00918.o)
                              D:\CODEX\Dev-Cpp\TDM-GCC3264\x86_64-w64-mingw32\lib/libmsvcrt.a(lib64_libmsvcrt_os_a-mbrtowc.o) (__imp_IsDBCSLeadByteEx)
D:\CODEX\Dev-Cpp\TDM-GCC3264\x86_64-w64-mingw32\lib/libmsvcrt.a(dcfxs00254.o)
                              D:\CODEX\Dev-Cpp\TDM-GCC3264\x86_64-w64-mingw32\lib/libmsvcrt.a(lib64_libmsvcrt_os_a-__p__fmode.o) (__imp__fmode)
D:\CODEX\Dev-Cpp\TDM-GCC3264\x86_64-w64-mingw32\lib/libmsvcrt.a(dcfxs00157.o)
                              D:\CODEX\Dev-Cpp\TDM-GCC3264\x86_64-w64-mingw32\lib/libmsvcrt.a(lib64_libmsvcrt_os_a-__p__commode.o) (__imp__commode)
D:\CODEX\Dev-Cpp\TDM-GCC3264\x86_64-w64-mingw32\lib/libmsvcrt.a(dcfxs01163.o)
                              C:\Users\ARABBI~1\AppData\Local\Temp\main.exe.6iMB3F.ltrans0.ltrans.o (memcmp)

Discarded input sections

 .debug_frame   0x0000000000000000      0x1e8 D:/CODEX/Dev-Cpp/TDM-GCC3264/bin/../lib/gcc/x86_64-w64-mingw32/10.3.0/../../../../x86_64-w64-mingw32/lib/../lib/crt2.o
 .debug_info    0x0000000000000000     0x284d D:/CODEX/Dev-Cpp/TDM-GCC3264/bin/../lib/gcc/x86_64-w64-mingw32/10.3.0/../../../../x86_64-w64-mingw32/lib/../lib/crt2.o
 .debug_abbrev  0x0000000000000000      0x53d D:/CODEX/Dev-Cpp/TDM-GCC3264/bin/../lib/gcc/x86_64-w64-mingw32/10.3.0/../../../../x86_64-w64-mingw32/lib/../lib/crt2.o
 .debug_loc     0x0000000000000000      0x563 D:/CODEX/Dev-Cpp/TDM-GCC3264/bin/../lib/gcc/x86_64-w64-mingw32/10.3.0/../../../../x86_64-w64-mingw32/lib/../lib/crt2.o
 .debug_aranges
                0x0000000000000000       0x30 D:/CODEX/Dev-Cpp/TDM-GCC3264/bin/../lib/gcc/x86_64-w64-mingw32/10.3.0/../../../../x86_64-w64-mingw32/lib/../lib/crt2.o
 .debug_ranges  0x0000000000000000      0x100 D:/CODEX/Dev-Cpp/TDM-GCC3264/bin/../lib/gcc/x86_64-w64-mingw32/10.3.0/../../../../x86_64-w64-mingw32/lib/../lib/crt2.o
 .debug_line    0x0000000000000000      0x5f6 D:/CODEX/Dev-Cpp/TDM-GCC3264/bin/../lib/gcc/x86_64-w64-mingw32/10.3.0/../../../../x86_64-w64-mingw32/lib/../lib/crt2.o
 .debug_str     0x0000000000000000      0x303 D:/CODEX/Dev-Cpp/TDM-GCC3264/bin/../lib/gcc/x86_64-w64-mingw32/10.3.0/../../../../x86_64-w64-mingw32/lib/../lib/crt2.o
 .rdata$zzz     0x0000000000000000       0x20 D:/CODEX/Dev-Cpp/TDM-GCC3264/bin/../lib/gcc/x86_64-w64-mingw32/10.3.0/../../../../x86_64-w64-mingw32/lib/../lib/crt2.o
 .rdata$.refptr._gnu_exception_handler
                0x0000000000000000       0x10 D:/CODEX/Dev-Cpp/TDM-GCC3264/bin/../lib/gcc/x86_64-w64-mingw32/10.3.0/../../../../x86_64-w64-mingw32/lib/../lib/crt2.o
 .rdata$.refptr._matherr
                0x0000000000000000       0x10 D:/CODEX/Dev-Cpp/TDM-GCC3264/bin/../lib/gcc/x86_64-w64-mingw32/10.3.0/../../../../x86_64-w64-mingw32/lib/../lib/crt2.o
 .data          0x0000000000000000        0x0 D:/CODEX/Dev-Cpp/TDM-GCC3264/bin/../lib/gcc/x86_64-w64-mingw32/10.3.0/crtbegin.o
 .bss           0x0000000000000000        0x0 D:/CODEX/Dev-Cpp/TDM-GCC3264/bin/../lib/gcc/x86_64-w64-mingw32/10.3.0/crtbegin.o
 .rdata$zzz     0x0000000000000000       0x20 D:/CODEX/Dev-Cpp/TDM-GCC3264/bin/../lib/gcc/x86_64-w64-mingw32/10.3.0/crtbegin.o
 .text          0x0000000000000000        0x0 C:\Users\ARABBI~1\AppData\Local\Temp\main.exe.6iMB3F.ltrans0.ltrans.o
 .data          0x0000000000000000        0x0 C:\Users\ARABBI~1\AppData\Local\Temp\main.exe.6iMB3F.ltrans0.ltrans.o
 .bss           0x0000000000000000        0x0 C:\Users\ARABBI~1\AppData\Local\Temp\main.exe.6iMB3F.ltrans0.ltrans.o
 .rdata$zzz     0x0000000000000000       0x20 C:\Users\ARABBI~1\AppData\Local\Temp\main.exe.6iMB3F.ltrans0.ltrans.o
 .text          0x0000000000000000        0x8 D:\CODEX\Dev-Cpp\TDM-GCC3264\x86_64-w64-mingw32\lib/libuser32.a(dcjzs00619.o)
 .data          0x0000000000000000        0x0 D:\CODEX\Dev-Cpp\TDM-GCC3264\x86_64-w64-mingw32\lib/libuser32.a(dcjzs00619.o)
 .bss           0x0000000000000000        0x0 D:\CODEX\Dev-Cpp\TDM-GCC3264\x86_64-w64-mingw32\lib/libuser32.a(dcjzs00619.o)
 .text          0x0000000000000000        0x0 D:\CODEX\Dev-Cpp\TDM-GCC3264\x86_64-w64-mingw32\lib/libuser32.a(dcjzh.o)
 .data          0x0000000000000000        0x0 D:\CODEX\Dev-Cpp\TDM-GCC3264\x86_64-w64-mingw32\lib/libuser32.a(dcjzh.o)
 .bss           0x0000000000000000        0x0 D:\CODEX\Dev-Cpp\TDM-GCC3264\x86_64-w64-mingw32\lib/libuser32.a(dcjzh.o)
 .text          0x0000000000000000        0x0 D:\CODEX\Dev-Cpp\TDM-GCC3264\x86_64-w64-mingw32\lib/libuser32.a(dcjzt.o)
 .data          0x0000000000000000        0x0 D:\CODEX\Dev-Cpp\TDM-GCC3264\x86_64-w64-mingw32\lib/libuser32.a(dcjzt.o)
 .bss           0x0000000000000000        0x0 D:\CODEX\Dev-Cpp\TDM-GCC3264\x86_64-w64-mingw32\lib/libuser32.a(dcjzt.o)
 .data          0x0000000000000000        0x0 D:\CODEX\Dev-Cpp\TDM-GCC3264\x86_64-w64-mingw32\lib/libkernel32.a(dwdrs01583.o)
 .bss           0x0000000000000000        0x0 D:\CODEX\Dev-Cpp\TDM-GCC3264\x86_64-w64-mingw32\lib/libkernel32.a(dwdrs01583.o)
 .text          0x0000000000000000        0x8 D:\CODEX\Dev-Cpp\TDM-GCC3264\x86_64-w64-mingw32\lib/libkernel32.a(dwdrs01409.o)
 .data          0x0000000000000000        0x0 D:\CODEX\Dev-Cpp\TDM-GCC3264\x86_64-w64-mingw32\lib/libkernel32.a(dwdrs01409.o)
 .bss           0x0000000000000000        0x0 D:\CODEX\Dev-Cpp\TDM-GCC3264\x86_64-w64-mingw32\lib/libkernel32.a(dwdrs01409.o)
 .text          0x0000000000000000        0x8 D:\CODEX\Dev-Cpp\TDM-GCC3264\x86_64-w64-mingw32\lib/libkernel32.a(dwdrs01393.o)
 .data          0x0000000000000000        0x0 D:\CODEX\Dev-Cpp\TDM-GCC3264\x86_64-w64-mingw32\lib/libkernel32.a(dwdrs01393.o)
 .bss           0x0000000000000000        0x0 D:\CODEX\Dev-Cpp\TDM-GCC3264\x86_64-w64-mingw32\lib/libkernel32.a(dwdrs01393.o)
 .text          0x0000000000000000        0x8 D:\CODEX\Dev-Cpp\TDM-GCC3264\x86_64-w64-mingw32\lib/libkernel32.a(dwdrs00742.o)
 .data          0x0000000000000000        0x0 D:\CODEX\Dev-Cpp\TDM-GCC3264\x86_64-w64-mingw32\lib/libkernel32.a(dwdrs00742.o)
 .bss           0x0000000000000000        0x0 D:\CODEX\Dev-Cpp\TDM-GCC3264\x86_64-w64-mingw32\lib/libkernel32.a(dwdrs00742.o)
 .text          0x0000000000000000        0x8 D:\CODEX\Dev-Cpp\TDM-GCC3264\x86_64-w64-mingw32\lib/libkernel32.a(dwdrs00649.o)
 .data          0x0000000000000000        0x0 D:\CODEX\Dev-Cpp\TDM-GCC3264\x86_64-w64-mingw32\lib/libkernel32.a(dwdrs00649.o)
 .bss           0x0000000000000000        0x0 D:\CODEX\Dev-Cpp\TDM-GCC3264\x86_64-w64-mingw32\lib/libkernel32.a(dwdrs00649.o)
 .text          0x0000000000000000        0x8 D:\CODEX\Dev-Cpp\TDM-GCC3264\x86_64-w64-mingw32\lib/libkernel32.a(dwdrs00238.o)
 .data          0x0000000000000000        0x0 D:\CODEX\Dev-Cpp\TDM-GCC3264\x86_64-w64-mingw32\lib/libkernel32.a(dwdrs00238.o)
 .bss           0x0000000000000000        0x0 D:\CODEX\Dev-Cpp\TDM-GCC3264\x86_64-w64-mingw32\lib/libkernel32.a(dwdrs00238.o)
 .text          0x0000000000000000        0x0 D:\CODEX\Dev-Cpp\TDM-GCC3264\x86_64-w64-mingw32\lib/libkernel32.a(dwdrh.o)
 .data          0x0000000000000000        0x0 D:\CODEX\Dev-Cpp\TDM-GCC3264\x86_64-w64-mingw32\lib/libkernel32.a(dwdrh.o)
 .bss           0x0000000000000000        0x0 D:\CODEX\Dev-Cpp\TDM-GCC3264\x86_64-w64-mingw32\lib/libkernel32.a(dwdrh.o)
 .text          0x0000000000000000        0x0 D:\CODEX\Dev-Cpp\TDM-GCC3264\x86_64-w64-mingw32\lib/libkernel32.a(dwdrt.o)
 .data          0x0000000000000000        0x0 D:\CODEX\Dev-Cpp\TDM-GCC3264\x86_64-w64-mingw32\lib/libkernel32.a(dwdrt.o)
 .bss           0x0000000000000000        0x0 D:\CODEX\Dev-Cpp\TDM-GCC3264\x86_64-w64-mingw32\lib/libkernel32.a(dwdrt.o)
 .text          0x0000000000000000        0x0 D:/CODEX/Dev-Cpp/TDM-GCC3264/bin/../lib/gcc/x86_64-w64-mingw32/10.3.0\libstdc++.a(del_ops.o)
 .data          0x0000000000000000        0x0 D:/CODEX/Dev-Cpp/TDM-GCC3264/bin/../lib/gcc/x86_64-w64-mingw32/10.3.0\libstdc++.a(del_ops.o)
 .bss           0x0000000000000000        0x0 D:/CODEX/Dev-Cpp/TDM-GCC3264/bin/../lib/gcc/x86_64-w64-mingw32/10.3.0\libstdc++.a(del_ops.o)
 .rdata$zzz     0x0000000000000000       0x20 D:/CODEX/Dev-Cpp/TDM-GCC3264/bin/../lib/gcc/x86_64-w64-mingw32/10.3.0\libstdc++.a(del_ops.o)
 .text          0x0000000000000000        0x0 D:/CODEX/Dev-Cpp/TDM-GCC3264/bin/../lib/gcc/x86_64-w64-mingw32/10.3.0\libstdc++.a(new_op.o)
 .data          0x0000000000000000        0x0 D:/CODEX/Dev-Cpp/TDM-GCC3264/bin/../lib/gcc/x86_64-w64-mingw32/10.3.0\libstdc++.a(new_op.o)
 .bss           0x0000000000000000        0x0 D:/CODEX/Dev-Cpp/TDM-GCC3264/bin/../lib/gcc/x86_64-w64-mingw32/10.3.0\libstdc++.a(new_op.o)
 .rdata$zzz     0x0000000000000000       0x20 D:/CODEX/Dev-Cpp/TDM-GCC3264/bin/../lib/gcc/x86_64-w64-mingw32/10.3.0\libstdc++.a(new_op.o)
 .rdata$.refptr._ZNSt9bad_allocD1Ev
                0x0000000000000000       0x10 D:/CODEX/Dev-Cpp/TDM-GCC3264/bin/../lib/gcc/x86_64-w64-mingw32/10.3.0\libstdc++.a(new_op.o)
 .text          0x0000000000000000        0x0 D:/CODEX/Dev-Cpp/TDM-GCC3264/bin/../lib/gcc/x86_64-w64-mingw32/10.3.0\libstdc++.a(si_class_type_info.o)
 .data          0x0000000000000000        0x0 D:/CODEX/Dev-Cpp/TDM-GCC3264/bin/../lib/gcc/x86_64-w64-mingw32/10.3.0\libstdc++.a(si_class_type_info.o)
 .bss           0x0000000000000000        0x0 D:/CODEX/Dev-Cpp/TDM-GCC3264/bin/../lib/gcc/x86_64-w64-mingw32/10.3.0\libstdc++.a(si_class_type_info.o)
 .rdata$zzz     0x0000000000000000       0x20 D:/CODEX/Dev-Cpp/TDM-GCC3264/bin/../lib/gcc/x86_64-w64-mingw32/10.3.0\libstdc++.a(si_class_type_info.o)
 .text          0x0000000000000000        0x0 D:/CODEX/Dev-Cpp/TDM-GCC3264/bin/../lib/gcc/x86_64-w64-mingw32/10.3.0\libstdc++.a(tinfo.o)
 .data          0x0000000000000000        0x0 D:/CODEX/Dev-Cpp/TDM-GCC3264/bin/../lib/gcc/x86_64-w64-mingw32/10.3.0\libstdc++.a(tinfo.o)
 .bss           0x0000000000000000        0x0 D:/CODEX/Dev-Cpp/TDM-GCC3264/bin/../lib/gcc/x86_64-w64-mingw32/10.3.0\libstdc++.a(tinfo.o)
 .rdata$_ZTSSt9type_info
                0x0000000000000000       0x10 D:/CODEX/Dev-Cpp/TDM-GCC3264/bin/../lib/gcc/x86_64-w64-mingw32/10.3.0\libstdc++.a(tinfo.o)
 .rdata$_ZTISt9type_info
                0x0000000000000000       0x10 D:/CODEX/Dev-Cpp/TDM-GCC3264/bin/../lib/gcc/x86_64-w64-mingw32/10.3.0\libstdc++.a(tinfo.o)
 .rdata$_ZTVSt9type_info
                0x0000000000000000       0x40 D:/CODEX/Dev-Cpp/TDM-GCC3264/bin/../lib/gcc/x86_64-w64-mingw32/10.3.0\libstdc++.a(tinfo.o)
 .rdata$zzz     0x0000000000000000       0x20 D:/CODEX/Dev-Cpp/TDM-GCC3264/bin/../lib/gcc/x86_64-w64-mingw32/10.3.0\libstdc++.a(tinfo.o)
 .text          0x0000000000000000        0x0 D:/CODEX/Dev-Cpp/TDM-GCC3264/bin/../lib/gcc/x86_64-w64-mingw32/10.3.0\libstdc++.a(bad_alloc.o)
 .data          0x0000000000000000        0x0 D:/CODEX/Dev-Cpp/TDM-GCC3264/bin/../lib/gcc/x86_64-w64-mingw32/10.3.0\libstdc++.a(bad_alloc.o)
 .bss           0x0000000000000000        0x0 D:/CODEX/Dev-Cpp/TDM-GCC3264/bin/../lib/gcc/x86_64-w64-mingw32/10.3.0\libstdc++.a(bad_alloc.o)
 .rdata$_ZTSSt9exception
                0x0000000000000000       0x10 D:/CODEX/Dev-Cpp/TDM-GCC3264/bin/../lib/gcc/x86_64-w64-mingw32/10.3.0\libstdc++.a(bad_alloc.o)
 .rdata$_ZTISt9exception
                0x0000000000000000       0x10 D:/CODEX/Dev-Cpp/TDM-GCC3264/bin/../lib/gcc/x86_64-w64-mingw32/10.3.0\libstdc++.a(bad_alloc.o)
 .rdata$_ZTSSt9bad_alloc
                0x0000000000000000       0x10 D:/CODEX/Dev-Cpp/TDM-GCC3264/bin/../lib/gcc/x86_64-w64-mingw32/10.3.0\libstdc++.a(bad_alloc.o)
 .rdata$_ZTISt9bad_alloc
                0x0000000000000000       0x20 D:/CODEX/Dev-Cpp/TDM-GCC3264/bin/../lib/gcc/x86_64-w64-mingw32/10.3.0\libstdc++.a(bad_alloc.o)
 .rdata$zzz     0x0000000000000000       0x20 D:/CODEX/Dev-Cpp/TDM-GCC3264/bin/../lib/gcc/x86_64-w64-mingw32/10.3.0\libstdc++.a(bad_alloc.o)
 .text          0x0000000000000000        0x0 D:/CODEX/Dev-Cpp/TDM-GCC3264/bin/../lib/gcc/x86_64-w64-mingw32/10.3.0\libstdc++.a(class_type_info.o)
 .data          0x0000000000000000        0x0 D:/CODEX/Dev-Cpp/TDM-GCC3264/bin/../lib/gcc/x86_64-w64-mingw32/10.3.0\libstdc++.a(class_type_info.o)
 .bss           0x0000000000000000        0x0 D:/CODEX/Dev-Cpp/TDM-GCC3264/bin/../lib/gcc/x86_64-w64-mingw32/10.3.0\libstdc++.a(class_type_info.o)
 .rdata$_ZTSSt9type_info
                0x0000000000000000       0x10 D:/CODEX/Dev-Cpp/TDM-GCC3264/bin/../lib/gcc/x86_64-w64-mingw32/10.3.0\libstdc++.a(class_type_info.o)
 .rdata$_ZTISt9type_info
                0x0000000000000000       0x10 D:/CODEX/Dev-Cpp/TDM-GCC3264/bin/../lib/gcc/x86_64-w64-mingw32/10.3.0\libstdc++.a(class_type_info.o)
 .rdata$_ZTSN10__cxxabiv117__class_type_infoE
                0x0000000000000000       0x40 D:/CODEX/Dev-Cpp/TDM-GCC3264/bin/../lib/gcc/x86_64-w64-mingw32/10.3.0\libstdc++.a(class_type_info.o)
 .rdata$_ZTIN10__cxxabiv117__class_type_infoE
                0x0000000000000000       0x20 D:/CODEX/Dev-Cpp/TDM-GCC3264/bin/../lib/gcc/x86_64-w64-mingw32/10.3.0\libstdc++.a(class_type_info.o)
 .rdata$zzz     0x0000000000000000       0x20 D:/CODEX/Dev-Cpp/TDM-GCC3264/bin/../lib/gcc/x86_64-w64-mingw32/10.3.0\libstdc++.a(class_type_info.o)
 .text          0x0000000000000000        0x0 D:/CODEX/Dev-Cpp/TDM-GCC3264/bin/../lib/gcc/x86_64-w64-mingw32/10.3.0\libstdc++.a(del_op.o)
 .data          0x0000000000000000        0x0 D:/CODEX/Dev-Cpp/TDM-GCC3264/bin/../lib/gcc/x86_64-w64-mingw32/10.3.0\libstdc++.a(del_op.o)
 .bss           0x0000000000000000        0x0 D:/CODEX/Dev-Cpp/TDM-GCC3264/bin/../lib/gcc/x86_64-w64-mingw32/10.3.0\libstdc++.a(del_op.o)
 .rdata$zzz     0x0000000000000000       0x20 D:/CODEX/Dev-Cpp/TDM-GCC3264/bin/../lib/gcc/x86_64-w64-mingw32/10.3.0\libstdc++.a(del_op.o)
 .text          0x0000000000000000        0x0 D:/CODEX/Dev-Cpp/TDM-GCC3264/bin/../lib/gcc/x86_64-w64-mingw32/10.3.0\libstdc++.a(eh_alloc.o)
 .data          0x0000000000000000        0x0 D:/CODEX/Dev-Cpp/TDM-GCC3264/bin/../lib/gcc/x86_64-w64-mingw32/10.3.0\libstdc++.a(eh_alloc.o)
 .bss           0x0000000000000000        0x0 D:/CODEX/Dev-Cpp/TDM-GCC3264/bin/../lib/gcc/x86_64-w64-mingw32/10.3.0\libstdc++.a(eh_alloc.o)
 .rdata$_ZTSSt9exception
                0x0000000000000000       0x10 D:/CODEX/Dev-Cpp/TDM-GCC3264/bin/../lib/gcc/x86_64-w64-mingw32/10.3.0\libstdc++.a(eh_alloc.o)
 .rdata$_ZTISt9exception
                0x0000000000000000       0x10 D:/CODEX/Dev-Cpp/TDM-GCC3264/bin/../lib/gcc/x86_64-w64-mingw32/10.3.0\libstdc++.a(eh_alloc.o)
 .rdata$zzz     0x0000000000000000       0x20 D:/CODEX/Dev-Cpp/TDM-GCC3264/bin/../lib/gcc/x86_64-w64-mingw32/10.3.0\libstdc++.a(eh_alloc.o)
 .text          0x0000000000000000        0x0 D:/CODEX/Dev-Cpp/TDM-GCC3264/bin/../lib/gcc/x86_64-w64-mingw32/10.3.0\libstdc++.a(eh_exception.o)
 .data          0x0000000000000000        0x0 D:/CODEX/Dev-Cpp/TDM-GCC3264/bin/../lib/gcc/x86_64-w64-mingw32/10.3.0\libstdc++.a(eh_exception.o)
 .bss           0x0000000000000000        0x0 D:/CODEX/Dev-Cpp/TDM-GCC3264/bin/../lib/gcc/x86_64-w64-mingw32/10.3.0\libstdc++.a(eh_exception.o)
 .rdata$_ZTSSt9exception
                0x0000000000000000       0x10 D:/CODEX/Dev-Cpp/TDM-GCC3264/bin/../lib/gcc/x86_64-w64-mingw32/10.3.0\libstdc++.a(eh_exception.o)
 .rdata$_ZTISt9exception
                0x0000000000000000       0x10 D:/CODEX/Dev-Cpp/TDM-GCC3264/bin/../lib/gcc/x86_64-w64-mingw32/10.3.0\libstdc++.a(eh_exception.o)
 .rdata$_ZTVSt9exception
                0x0000000000000000       0x30 D:/CODEX/Dev-Cpp/TDM-GCC3264/bin/../lib/gcc/x86_64-w64-mingw32/10.3.0\libstdc++.a(eh_exception.o)
 .rdata$_ZTVN10__cxxabiv115__forced_unwindE
                0x0000000000000000       0x30 D:/CODEX/Dev-Cpp/TDM-GCC3264/bin/../lib/gcc/x86_64-w64-mingw32/10.3.0\libstdc++.a(eh_exception.o)
 .rdata$_ZTVN10__cxxabiv119__foreign_exceptionE
                0x0000000000000000       0x30 D:/CODEX/Dev-Cpp/TDM-GCC3264/bin/../lib/gcc/x86_64-w64-mingw32/10.3.0\libstdc++.a(eh_exception.o)
 .rdata$zzz     0x0000000000000000       0x20 D:/CODEX/Dev-Cpp/TDM-GCC3264/bin/../lib/gcc/x86_64-w64-mingw32/10.3.0\libstdc++.a(eh_exception.o)
 .text          0x0000000000000000        0x0 D:/CODEX/Dev-Cpp/TDM-GCC3264/bin/../lib/gcc/x86_64-w64-mingw32/10.3.0\libstdc++.a(eh_personality.o)
 .data          0x0000000000000000        0x0 D:/CODEX/Dev-Cpp/TDM-GCC3264/bin/../lib/gcc/x86_64-w64-mingw32/10.3.0\libstdc++.a(eh_personality.o)
 .bss           0x0000000000000000        0x0 D:/CODEX/Dev-Cpp/TDM-GCC3264/bin/../lib/gcc/x86_64-w64-mingw32/10.3.0\libstdc++.a(eh_personality.o)
 .rdata$_ZTSN10__cxxabiv115__forced_unwindE
                0x0000000000000000       0x20 D:/CODEX/Dev-Cpp/TDM-GCC3264/bin/../lib/gcc/x86_64-w64-mingw32/10.3.0\libstdc++.a(eh_personality.o)
 .rdata$_ZTIN10__cxxabiv115__forced_unwindE
                0x0000000000000000       0x10 D:/CODEX/Dev-Cpp/TDM-GCC3264/bin/../lib/gcc/x86_64-w64-mingw32/10.3.0\libstdc++.a(eh_personality.o)
 .rdata$_ZTSSt9exception
                0x0000000000000000       0x10 D:/CODEX/Dev-Cpp/TDM-GCC3264/bin/../lib/gcc/x86_64-w64-mingw32/10.3.0\libstdc++.a(eh_personality.o)
 .rdata$_ZTISt9exception
                0x0000000000000000       0x10 D:/CODEX/Dev-Cpp/TDM-GCC3264/bin/../lib/gcc/x86_64-w64-mingw32/10.3.0\libstdc++.a(eh_personality.o)
 .rdata$_ZTSN10__cxxabiv119__foreign_exceptionE
                0x0000000000000000       0x40 D:/CODEX/Dev-Cpp/TDM-GCC3264/bin/../lib/gcc/x86_64-w64-mingw32/10.3.0\libstdc++.a(eh_personality.o)
 .rdata$_ZTIN10__cxxabiv119__foreign_exceptionE
                0x0000000000000000       0x10 D:/CODEX/Dev-Cpp/TDM-GCC3264/bin/../lib/gcc/x86_64-w64-mingw32/10.3.0\libstdc++.a(eh_personality.o)
 .rdata$_ZTSSt13bad_exception
                0x0000000000000000       0x20 D:/CODEX/Dev-Cpp/TDM-GCC3264/bin/../lib/gcc/x86_64-w64-mingw32/10.3.0\libstdc++.a(eh_personality.o)
 .rdata$_ZTISt13bad_exception
                0x0000000000000000       0x20 D:/CODEX/Dev-Cpp/TDM-GCC3264/bin/../lib/gcc/x86_64-w64-mingw32/10.3.0\libstdc++.a(eh_personality.o)
 .rdata$zzz     0x0000000000000000       0x20 D:/CODEX/Dev-Cpp/TDM-GCC3264/bin/../lib/gcc/x86_64-w64-mingw32/10.3.0\libstdc++.a(eh_personality.o)
 .rdata$.refptr._ZNSt13bad_exceptionD1Ev
                0x0000000000000000       0x10 D:/CODEX/Dev-Cpp/TDM-GCC3264/bin/../lib/gcc/x86_64-w64-mingw32/10.3.0\libstdc++.a(eh_personality.o)
 .text          0x0000000000000000        0x0 D:/CODEX/Dev-Cpp/TDM-GCC3264/bin/../lib/gcc/x86_64-w64-mingw32/10.3.0\libstdc++.a(eh_terminate.o)
 .data          0x0000000000000000        0x0 D:/CODEX/Dev-Cpp/TDM-GCC3264/bin/../lib/gcc/x86_64-w64-mingw32/10.3.0\libstdc++.a(eh_terminate.o)
 .bss           0x0000000000000000        0x0 D:/CODEX/Dev-Cpp/TDM-GCC3264/bin/../lib/gcc/x86_64-w64-mingw32/10.3.0\libstdc++.a(eh_terminate.o)
 .rdata$zzz     0x0000000000000000       0x20 D:/CODEX/Dev-Cpp/TDM-GCC3264/bin/../lib/gcc/x86_64-w64-mingw32/10.3.0\libstdc++.a(eh_terminate.o)
 .rdata$.refptr._ZN9__gnu_cxx27__verbose_terminate_handlerEv
                0x0000000000000000       0x10 D:/CODEX/Dev-Cpp/TDM-GCC3264/bin/../lib/gcc/x86_64-w64-mingw32/10.3.0\libstdc++.a(eh_terminate.o)
 .text          0x0000000000000000        0x0 D:/CODEX/Dev-Cpp/TDM-GCC3264/bin/../lib/gcc/x86_64-w64-mingw32/10.3.0\libstdc++.a(eh_throw.o)
 .data          0x0000000000000000        0x0 D:/CODEX/Dev-Cpp/TDM-GCC3264/bin/../lib/gcc/x86_64-w64-mingw32/10.3.0\libstdc++.a(eh_throw.o)
 .bss           0x0000000000000000        0x0 D:/CODEX/Dev-Cpp/TDM-GCC3264/bin/../lib/gcc/x86_64-w64-mingw32/10.3.0\libstdc++.a(eh_throw.o)
 .rdata$zzz     0x0000000000000000       0x20 D:/CODEX/Dev-Cpp/TDM-GCC3264/bin/../lib/gcc/x86_64-w64-mingw32/10.3.0\libstdc++.a(eh_throw.o)
 .text          0x0000000000000000        0x0 D:/CODEX/Dev-Cpp/TDM-GCC3264/bin/../lib/gcc/x86_64-w64-mingw32/10.3.0\libstdc++.a(eh_unex_handler.o)
 .data          0x0000000000000000        0x0 D:/CODEX/Dev-Cpp/TDM-GCC3264/bin/../lib/gcc/x86_64-w64-mingw32/10.3.0\libstdc++.a(eh_unex_handler.o)
 .bss           0x0000000000000000        0x0 D:/CODEX/Dev-Cpp/TDM-GCC3264/bin/../lib/gcc/x86_64-w64-mingw32/10.3.0\libstdc++.a(eh_unex_handler.o)
 .rdata$zzz     0x0000000000000000       0x20 D:/CODEX/Dev-Cpp/TDM-GCC3264/bin/../lib/gcc/x86_64-w64-mingw32/10.3.0\libstdc++.a(eh_unex_handler.o)
 .rdata$.refptr.__eh_shmem3_gcc_tdm_local_shmem_region
                0x0000000000000000       0x10 D:/CODEX/Dev-Cpp/TDM-GCC3264/bin/../lib/gcc/x86_64-w64-mingw32/10.3.0\libstdc++.a(eh_unex_handler.o)
 .text          0x0000000000000000        0x0 D:/CODEX/Dev-Cpp/TDM-GCC3264/bin/../lib/gcc/x86_64-w64-mingw32/10.3.0\libstdc++.a(new_handler.o)
 .data          0x0000000000000000        0x0 D:/CODEX/Dev-Cpp/TDM-GCC3264/bin/../lib/gcc/x86_64-w64-mingw32/10.3.0\libstdc++.a(new_handler.o)
 .bss           0x0000000000000000        0x0 D:/CODEX/Dev-Cpp/TDM-GCC3264/bin/../lib/gcc/x86_64-w64-mingw32/10.3.0\libstdc++.a(new_handler.o)
 .rdata$_ZSt7nothrow
                0x0000000000000000       0x10 D:/CODEX/Dev-Cpp/TDM-GCC3264/bin/../lib/gcc/x86_64-w64-mingw32/10.3.0\libstdc++.a(new_handler.o)
 .rdata$zzz     0x0000000000000000       0x20 D:/CODEX/Dev-Cpp/TDM-GCC3264/bin/../lib/gcc/x86_64-w64-mingw32/10.3.0\libstdc++.a(new_handler.o)
 .text          0x0000000000000000        0x0 D:/CODEX/Dev-Cpp/TDM-GCC3264/bin/../lib/gcc/x86_64-w64-mingw32/10.3.0\libstdc++.a(pure.o)
 .data          0x0000000000000000        0x0 D:/CODEX/Dev-Cpp/TDM-GCC3264/bin/../lib/gcc/x86_64-w64-mingw32/10.3.0\libstdc++.a(pure.o)
 .bss           0x0000000000000000        0x0 D:/CODEX/Dev-Cpp/TDM-GCC3264/bin/../lib/gcc/x86_64-w64-mingw32/10.3.0\libstdc++.a(pure.o)
 .rdata$zzz     0x0000000000000000       0x20 D:/CODEX/Dev-Cpp/TDM-GCC3264/bin/../lib/gcc/x86_64-w64-mingw32/10.3.0\libstdc++.a(pure.o)
 .text          0x0000000000000000        0x0 D:/CODEX/Dev-Cpp/TDM-GCC3264/bin/../lib/gcc/x86_64-w64-mingw32/10.3.0\libstdc++.a(vterminate.o)
 .data          0x0000000000000000        0x0 D:/CODEX/Dev-Cpp/TDM-GCC3264/bin/../lib/gcc/x86_64-w64-mingw32/10.3.0\libstdc++.a(vterminate.o)
 .bss           0x0000000000000000        0x0 D:/CODEX/Dev-Cpp/TDM-GCC3264/bin/../lib/gcc/x86_64-w64-mingw32/10.3.0\libstdc++.a(vterminate.o)
 .rdata$_ZTSSt9exception
                0x0000000000000000       0x10 D:/CODEX/Dev-Cpp/TDM-GCC3264/bin/../lib/gcc/x86_64-w64-mingw32/10.3.0\libstdc++.a(vterminate.o)
 .rdata$_ZTISt9exception
                0x0000000000000000       0x10 D:/CODEX/Dev-Cpp/TDM-GCC3264/bin/../lib/gcc/x86_64-w64-mingw32/10.3.0\libstdc++.a(vterminate.o)
 .rdata$zzz     0x0000000000000000       0x20 D:/CODEX/Dev-Cpp/TDM-GCC3264/bin/../lib/gcc/x86_64-w64-mingw32/10.3.0\libstdc++.a(vterminate.o)
 .data          0x0000000000000000        0x0 D:/CODEX/Dev-Cpp/TDM-GCC3264/bin/../lib/gcc/x86_64-w64-mingw32/10.3.0\libstdc++.a(cp-demangle.o)
 .bss           0x0000000000000000        0x0 D:/CODEX/Dev-Cpp/TDM-GCC3264/bin/../lib/gcc/x86_64-w64-mingw32/10.3.0\libstdc++.a(cp-demangle.o)
 .rdata$zzz     0x0000000000000000       0x20 D:/CODEX/Dev-Cpp/TDM-GCC3264/bin/../lib/gcc/x86_64-w64-mingw32/10.3.0\libstdc++.a(cp-demangle.o)
 .text          0x0000000000000000        0x0 D:/CODEX/Dev-Cpp/TDM-GCC3264/bin/../lib/gcc/x86_64-w64-mingw32/10.3.0\libstdc++.a(eh_call.o)
 .data          0x0000000000000000        0x0 D:/CODEX/Dev-Cpp/TDM-GCC3264/bin/../lib/gcc/x86_64-w64-mingw32/10.3.0\libstdc++.a(eh_call.o)
 .bss           0x0000000000000000        0x0 D:/CODEX/Dev-Cpp/TDM-GCC3264/bin/../lib/gcc/x86_64-w64-mingw32/10.3.0\libstdc++.a(eh_call.o)
 .rdata$zzz     0x0000000000000000       0x20 D:/CODEX/Dev-Cpp/TDM-GCC3264/bin/../lib/gcc/x86_64-w64-mingw32/10.3.0\libstdc++.a(eh_call.o)
 .text          0x0000000000000000        0x0 D:/CODEX/Dev-Cpp/TDM-GCC3264/bin/../lib/gcc/x86_64-w64-mingw32/10.3.0\libstdc++.a(eh_catch.o)
 .data          0x0000000000000000        0x0 D:/CODEX/Dev-Cpp/TDM-GCC3264/bin/../lib/gcc/x86_64-w64-mingw32/10.3.0\libstdc++.a(eh_catch.o)
 .bss           0x0000000000000000        0x0 D:/CODEX/Dev-Cpp/TDM-GCC3264/bin/../lib/gcc/x86_64-w64-mingw32/10.3.0\libstdc++.a(eh_catch.o)
 .rdata$zzz     0x0000000000000000       0x20 D:/CODEX/Dev-Cpp/TDM-GCC3264/bin/../lib/gcc/x86_64-w64-mingw32/10.3.0\libstdc++.a(eh_catch.o)
 .text          0x0000000000000000        0x0 D:/CODEX/Dev-Cpp/TDM-GCC3264/bin/../lib/gcc/x86_64-w64-mingw32/10.3.0\libstdc++.a(eh_globals.o)
 .data          0x0000000000000000        0x0 D:/CODEX/Dev-Cpp/TDM-GCC3264/bin/../lib/gcc/x86_64-w64-mingw32/10.3.0\libstdc++.a(eh_globals.o)
 .bss           0x0000000000000000        0x0 D:/CODEX/Dev-Cpp/TDM-GCC3264/bin/../lib/gcc/x86_64-w64-mingw32/10.3.0\libstdc++.a(eh_globals.o)
 .rdata$zzz     0x0000000000000000       0x20 D:/CODEX/Dev-Cpp/TDM-GCC3264/bin/../lib/gcc/x86_64-w64-mingw32/10.3.0\libstdc++.a(eh_globals.o)
 .rdata$.refptr.__eh_shmem3_gcc_tdm_local_shmem_region
                0x0000000000000000       0x10 D:/CODEX/Dev-Cpp/TDM-GCC3264/bin/../lib/gcc/x86_64-w64-mingw32/10.3.0\libstdc++.a(eh_globals.o)
 .text          0x0000000000000000        0x0 D:/CODEX/Dev-Cpp/TDM-GCC3264/bin/../lib/gcc/x86_64-w64-mingw32/10.3.0\libstdc++.a(eh_term_handler.o)
 .data          0x0000000000000000        0x0 D:/CODEX/Dev-Cpp/TDM-GCC3264/bin/../lib/gcc/x86_64-w64-mingw32/10.3.0\libstdc++.a(eh_term_handler.o)
 .bss           0x0000000000000000        0x0 D:/CODEX/Dev-Cpp/TDM-GCC3264/bin/../lib/gcc/x86_64-w64-mingw32/10.3.0\libstdc++.a(eh_term_handler.o)
 .rdata$zzz     0x0000000000000000       0x20 D:/CODEX/Dev-Cpp/TDM-GCC3264/bin/../lib/gcc/x86_64-w64-mingw32/10.3.0\libstdc++.a(eh_term_handler.o)
 .rdata$.refptr.__eh_shmem3_gcc_tdm_local_shmem_region
                0x0000000000000000       0x10 D:/CODEX/Dev-Cpp/TDM-GCC3264/bin/../lib/gcc/x86_64-w64-mingw32/10.3.0\libstdc++.a(eh_term_handler.o)
 .text          0x0000000000000000        0x0 D:/CODEX/Dev-Cpp/TDM-GCC3264/bin/../lib/gcc/x86_64-w64-mingw32/10.3.0\libstdc++.a(eh_type.o)
 .data          0x0000000000000000        0x0 D:/CODEX/Dev-Cpp/TDM-GCC3264/bin/../lib/gcc/x86_64-w64-mingw32/10.3.0\libstdc++.a(eh_type.o)
 .bss           0x0000000000000000        0x0 D:/CODEX/Dev-Cpp/TDM-GCC3264/bin/../lib/gcc/x86_64-w64-mingw32/10.3.0\libstdc++.a(eh_type.o)
 .rdata$zzz     0x0000000000000000       0x20 D:/CODEX/Dev-Cpp/TDM-GCC3264/bin/../lib/gcc/x86_64-w64-mingw32/10.3.0\libstdc++.a(eh_type.o)
 .debug_frame   0x0000000000000000       0xa8 D:\CODEX\Dev-Cpp\TDM-GCC3264\x86_64-w64-mingw32\lib/libmingw32.a(lib64_libmingw32_a-gccmain.o)
 .debug_info    0x0000000000000000      0x5e6 D:\CODEX\Dev-Cpp\TDM-GCC3264\x86_64-w64-mingw32\lib/libmingw32.a(lib64_libmingw32_a-gccmain.o)
 .debug_abbrev  0x0000000000000000      0x133 D:\CODEX\Dev-Cpp\TDM-GCC3264\x86_64-w64-mingw32\lib/libmingw32.a(lib64_libmingw32_a-gccmain.o)
 .debug_loc     0x0000000000000000       0x89 D:\CODEX\Dev-Cpp\TDM-GCC3264\x86_64-w64-mingw32\lib/libmingw32.a(lib64_libmingw32_a-gccmain.o)
 .debug_aranges
                0x0000000000000000       0x30 D:\CODEX\Dev-Cpp\TDM-GCC3264\x86_64-w64-mingw32\lib/libmingw32.a(lib64_libmingw32_a-gccmain.o)
 .debug_line    0x0000000000000000      0x1a6 D:\CODEX\Dev-Cpp\TDM-GCC3264\x86_64-w64-mingw32\lib/libmingw32.a(lib64_libmingw32_a-gccmain.o)
 .debug_str     0x0000000000000000        0x0 D:\CODEX\Dev-Cpp\TDM-GCC3264\x86_64-w64-mingw32\lib/libmingw32.a(lib64_libmingw32_a-gccmain.o)
 .rdata$zzz     0x0000000000000000       0x20 D:\CODEX\Dev-Cpp\TDM-GCC3264\x86_64-w64-mingw32\lib/libmingw32.a(lib64_libmingw32_a-gccmain.o)
 .text          0x0000000000000000        0x0 D:\CODEX\Dev-Cpp\TDM-GCC3264\x86_64-w64-mingw32\lib/libmingw32.a(lib64_libmingw32_a-natstart.o)
 .data          0x0000000000000000       0x10 D:\CODEX\Dev-Cpp\TDM-GCC3264\x86_64-w64-mingw32\lib/libmingw32.a(lib64_libmingw32_a-natstart.o)
 .debug_info    0x0000000000000000      0x587 D:\CODEX\Dev-Cpp\TDM-GCC3264\x86_64-w64-mingw32\lib/libmingw32.a(lib64_libmingw32_a-natstart.o)
 .debug_abbrev  0x0000000000000000       0xb2 D:\CODEX\Dev-Cpp\TDM-GCC3264\x86_64-w64-mingw32\lib/libmingw32.a(lib64_libmingw32_a-natstart.o)
 .debug_aranges
                0x0000000000000000       0x20 D:\CODEX\Dev-Cpp\TDM-GCC3264\x86_64-w64-mingw32\lib/libmingw32.a(lib64_libmingw32_a-natstart.o)
 .debug_line    0x0000000000000000       0xe8 D:\CODEX\Dev-Cpp\TDM-GCC3264\x86_64-w64-mingw32\lib/libmingw32.a(lib64_libmingw32_a-natstart.o)
 .debug_str     0x0000000000000000       0x18 D:\CODEX\Dev-Cpp\TDM-GCC3264\x86_64-w64-mingw32\lib/libmingw32.a(lib64_libmingw32_a-natstart.o)
 .rdata$zzz     0x0000000000000000       0x20 D:\CODEX\Dev-Cpp\TDM-GCC3264\x86_64-w64-mingw32\lib/libmingw32.a(lib64_libmingw32_a-natstart.o)
 .text          0x0000000000000000        0x0 D:\CODEX\Dev-Cpp\TDM-GCC3264\x86_64-w64-mingw32\lib/libmingw32.a(lib64_libmingw32_a-wildcard.o)
 .bss           0x0000000000000000        0x0 D:\CODEX\Dev-Cpp\TDM-GCC3264\x86_64-w64-mingw32\lib/libmingw32.a(lib64_libmingw32_a-wildcard.o)
 .debug_info    0x0000000000000000       0xf0 D:\CODEX\Dev-Cpp\TDM-GCC3264\x86_64-w64-mingw32\lib/libmingw32.a(lib64_libmingw32_a-wildcard.o)
 .debug_abbrev  0x0000000000000000       0x2e D:\CODEX\Dev-Cpp\TDM-GCC3264\x86_64-w64-mingw32\lib/libmingw32.a(lib64_libmingw32_a-wildcard.o)
 .debug_aranges
                0x0000000000000000       0x20 D:\CODEX\Dev-Cpp\TDM-GCC3264\x86_64-w64-mingw32\lib/libmingw32.a(lib64_libmingw32_a-wildcard.o)
 .debug_line    0x0000000000000000       0x5e D:\CODEX\Dev-Cpp\TDM-GCC3264\x86_64-w64-mingw32\lib/libmingw32.a(lib64_libmingw32_a-wildcard.o)
 .debug_str     0x0000000000000000        0x0 D:\CODEX\Dev-Cpp\TDM-GCC3264\x86_64-w64-mingw32\lib/libmingw32.a(lib64_libmingw32_a-wildcard.o)
 .rdata$zzz     0x0000000000000000       0x20 D:\CODEX\Dev-Cpp\TDM-GCC3264\x86_64-w64-mingw32\lib/libmingw32.a(lib64_libmingw32_a-wildcard.o)
 .data          0x0000000000000000       0x10 D:\CODEX\Dev-Cpp\TDM-GCC3264\x86_64-w64-mingw32\lib/libmingw32.a(lib64_libmingw32_a-charmax.o)
 .debug_frame   0x0000000000000000       0x30 D:\CODEX\Dev-Cpp\TDM-GCC3264\x86_64-w64-mingw32\lib/libmingw32.a(lib64_libmingw32_a-charmax.o)
 .debug_info    0x0000000000000000      0x22a D:\CODEX\Dev-Cpp\TDM-GCC3264\x86_64-w64-mingw32\lib/libmingw32.a(lib64_libmingw32_a-charmax.o)
 .debug_abbrev  0x0000000000000000       0x90 D:\CODEX\Dev-Cpp\TDM-GCC3264\x86_64-w64-mingw32\lib/libmingw32.a(lib64_libmingw32_a-charmax.o)
 .debug_aranges
                0x0000000000000000       0x30 D:\CODEX\Dev-Cpp\TDM-GCC3264\x86_64-w64-mingw32\lib/libmingw32.a(lib64_libmingw32_a-charmax.o)
 .debug_line    0x0000000000000000       0xba D:\CODEX\Dev-Cpp\TDM-GCC3264\x86_64-w64-mingw32\lib/libmingw32.a(lib64_libmingw32_a-charmax.o)
 .debug_str     0x0000000000000000        0xd D:\CODEX\Dev-Cpp\TDM-GCC3264\x86_64-w64-mingw32\lib/libmingw32.a(lib64_libmingw32_a-charmax.o)
 .rdata$zzz     0x0000000000000000       0x20 D:\CODEX\Dev-Cpp\TDM-GCC3264\x86_64-w64-mingw32\lib/libmingw32.a(lib64_libmingw32_a-charmax.o)
 .data          0x0000000000000000        0x0 D:\CODEX\Dev-Cpp\TDM-GCC3264\x86_64-w64-mingw32\lib/libmingw32.a(lib64_libmingw32_a-dllargv.o)
 .bss           0x0000000000000000        0x0 D:\CODEX\Dev-Cpp\TDM-GCC3264\x86_64-w64-mingw32\lib/libmingw32.a(lib64_libmingw32_a-dllargv.o)
 .debug_frame   0x0000000000000000       0x30 D:\CODEX\Dev-Cpp\TDM-GCC3264\x86_64-w64-mingw32\lib/libmingw32.a(lib64_libmingw32_a-dllargv.o)
 .debug_info    0x0000000000000000      0x1cd D:\CODEX\Dev-Cpp\TDM-GCC3264\x86_64-w64-mingw32\lib/libmingw32.a(lib64_libmingw32_a-dllargv.o)
 .debug_abbrev  0x0000000000000000       0x3b D:\CODEX\Dev-Cpp\TDM-GCC3264\x86_64-w64-mingw32\lib/libmingw32.a(lib64_libmingw32_a-dllargv.o)
 .debug_aranges
                0x0000000000000000       0x30 D:\CODEX\Dev-Cpp\TDM-GCC3264\x86_64-w64-mingw32\lib/libmingw32.a(lib64_libmingw32_a-dllargv.o)
 .debug_line    0x0000000000000000       0x79 D:\CODEX\Dev-Cpp\TDM-GCC3264\x86_64-w64-mingw32\lib/libmingw32.a(lib64_libmingw32_a-dllargv.o)
 .debug_str     0x0000000000000000        0x0 D:\CODEX\Dev-Cpp\TDM-GCC3264\x86_64-w64-mingw32\lib/libmingw32.a(lib64_libmingw32_a-dllargv.o)
 .rdata$zzz     0x0000000000000000       0x20 D:\CODEX\Dev-Cpp\TDM-GCC3264\x86_64-w64-mingw32\lib/libmingw32.a(lib64_libmingw32_a-dllargv.o)
 .text          0x0000000000000000        0x0 D:\CODEX\Dev-Cpp\TDM-GCC3264\x86_64-w64-mingw32\lib/libmingw32.a(lib64_libmingw32_a-_newmode.o)
 .data          0x0000000000000000        0x0 D:\CODEX\Dev-Cpp\TDM-GCC3264\x86_64-w64-mingw32\lib/libmingw32.a(lib64_libmingw32_a-_newmode.o)
 .debug_info    0x0000000000000000       0xed D:\CODEX\Dev-Cpp\TDM-GCC3264\x86_64-w64-mingw32\lib/libmingw32.a(lib64_libmingw32_a-_newmode.o)
 .debug_abbrev  0x0000000000000000       0x2e D:\CODEX\Dev-Cpp\TDM-GCC3264\x86_64-w64-mingw32\lib/libmingw32.a(lib64_libmingw32_a-_newmode.o)
 .debug_aranges
                0x0000000000000000       0x20 D:\CODEX\Dev-Cpp\TDM-GCC3264\x86_64-w64-mingw32\lib/libmingw32.a(lib64_libmingw32_a-_newmode.o)
 .debug_line    0x0000000000000000       0x5e D:\CODEX\Dev-Cpp\TDM-GCC3264\x86_64-w64-mingw32\lib/libmingw32.a(lib64_libmingw32_a-_newmode.o)
 .debug_str     0x0000000000000000        0x0 D:\CODEX\Dev-Cpp\TDM-GCC3264\x86_64-w64-mingw32\lib/libmingw32.a(lib64_libmingw32_a-_newmode.o)
 .rdata$zzz     0x0000000000000000       0x20 D:\CODEX\Dev-Cpp\TDM-GCC3264\x86_64-w64-mingw32\lib/libmingw32.a(lib64_libmingw32_a-_newmode.o)
 .data          0x0000000000000000        0x0 D:\CODEX\Dev-Cpp\TDM-GCC3264\x86_64-w64-mingw32\lib/libmingw32.a(lib64_libmingw32_a-tlssup.o)
 .debug_frame   0x0000000000000000       0xf0 D:\CODEX\Dev-Cpp\TDM-GCC3264\x86_64-w64-mingw32\lib/libmingw32.a(lib64_libmingw32_a-tlssup.o)
 .debug_info    0x0000000000000000      0x736 D:\CODEX\Dev-Cpp\TDM-GCC3264\x86_64-w64-mingw32\lib/libmingw32.a(lib64_libmingw32_a-tlssup.o)
 .debug_abbrev  0x0000000000000000      0x1bf D:\CODEX\Dev-Cpp\TDM-GCC3264\x86_64-w64-mingw32\lib/libmingw32.a(lib64_libmingw32_a-tlssup.o)
 .debug_loc     0x0000000000000000      0x314 D:\CODEX\Dev-Cpp\TDM-GCC3264\x86_64-w64-mingw32\lib/libmingw32.a(lib64_libmingw32_a-tlssup.o)
 .debug_aranges
                0x0000000000000000       0x30 D:\CODEX\Dev-Cpp\TDM-GCC3264\x86_64-w64-mingw32\lib/libmingw32.a(lib64_libmingw32_a-tlssup.o)
 .debug_line    0x0000000000000000      0x190 D:\CODEX\Dev-Cpp\TDM-GCC3264\x86_64-w64-mingw32\lib/libmingw32.a(lib64_libmingw32_a-tlssup.o)
 .debug_str     0x0000000000000000       0x33 D:\CODEX\Dev-Cpp\TDM-GCC3264\x86_64-w64-mingw32\lib/libmingw32.a(lib64_libmingw32_a-tlssup.o)
 .rdata$zzz     0x0000000000000000       0x20 D:\CODEX\Dev-Cpp\TDM-GCC3264\x86_64-w64-mingw32\lib/libmingw32.a(lib64_libmingw32_a-tlssup.o)
 .text          0x0000000000000000        0x0 D:\CODEX\Dev-Cpp\TDM-GCC3264\x86_64-w64-mingw32\lib/libmingw32.a(lib64_libmingw32_a-xncommod.o)
 .data          0x0000000000000000        0x0 D:\CODEX\Dev-Cpp\TDM-GCC3264\x86_64-w64-mingw32\lib/libmingw32.a(lib64_libmingw32_a-xncommod.o)
 .debug_info    0x0000000000000000       0xed D:\CODEX\Dev-Cpp\TDM-GCC3264\x86_64-w64-mingw32\lib/libmingw32.a(lib64_libmingw32_a-xncommod.o)
 .debug_abbrev  0x0000000000000000       0x2e D:\CODEX\Dev-Cpp\TDM-GCC3264\x86_64-w64-mingw32\lib/libmingw32.a(lib64_libmingw32_a-xncommod.o)
 .debug_aranges
                0x0000000000000000       0x20 D:\CODEX\Dev-Cpp\TDM-GCC3264\x86_64-w64-mingw32\lib/libmingw32.a(lib64_libmingw32_a-xncommod.o)
 .debug_line    0x0000000000000000       0x5e D:\CODEX\Dev-Cpp\TDM-GCC3264\x86_64-w64-mingw32\lib/libmingw32.a(lib64_libmingw32_a-xncommod.o)
 .debug_str     0x0000000000000000        0x0 D:\CODEX\Dev-Cpp\TDM-GCC3264\x86_64-w64-mingw32\lib/libmingw32.a(lib64_libmingw32_a-xncommod.o)
 .rdata$zzz     0x0000000000000000       0x20 D:\CODEX\Dev-Cpp\TDM-GCC3264\x86_64-w64-mingw32\lib/libmingw32.a(lib64_libmingw32_a-xncommod.o)
 .text          0x0000000000000000        0x0 D:\CODEX\Dev-Cpp\TDM-GCC3264\x86_64-w64-mingw32\lib/libmingw32.a(lib64_libmingw32_a-cinitexe.o)
 .data          0x0000000000000000        0x0 D:\CODEX\Dev-Cpp\TDM-GCC3264\x86_64-w64-mingw32\lib/libmingw32.a(lib64_libmingw32_a-cinitexe.o)
 .bss           0x0000000000000000        0x0 D:\CODEX\Dev-Cpp\TDM-GCC3264\x86_64-w64-mingw32\lib/libmingw32.a(lib64_libmingw32_a-cinitexe.o)
 .debug_info    0x0000000000000000      0x1e6 D:\CODEX\Dev-Cpp\TDM-GCC3264\x86_64-w64-mingw32\lib/libmingw32.a(lib64_libmingw32_a-cinitexe.o)
 .debug_abbrev  0x0000000000000000       0x5f D:\CODEX\Dev-Cpp\TDM-GCC3264\x86_64-w64-mingw32\lib/libmingw32.a(lib64_libmingw32_a-cinitexe.o)
 .debug_aranges
                0x0000000000000000       0x20 D:\CODEX\Dev-Cpp\TDM-GCC3264\x86_64-w64-mingw32\lib/libmingw32.a(lib64_libmingw32_a-cinitexe.o)
 .debug_line    0x0000000000000000       0x5e D:\CODEX\Dev-Cpp\TDM-GCC3264\x86_64-w64-mingw32\lib/libmingw32.a(lib64_libmingw32_a-cinitexe.o)
 .debug_str     0x0000000000000000        0x0 D:\CODEX\Dev-Cpp\TDM-GCC3264\x86_64-w64-mingw32\lib/libmingw32.a(lib64_libmingw32_a-cinitexe.o)
 .rdata$zzz     0x0000000000000000       0x20 D:\CODEX\Dev-Cpp\TDM-GCC3264\x86_64-w64-mingw32\lib/libmingw32.a(lib64_libmingw32_a-cinitexe.o)
 .data          0x0000000000000000        0x0 D:\CODEX\Dev-Cpp\TDM-GCC3264\x86_64-w64-mingw32\lib/libmingw32.a(lib64_libmingw32_a-merr.o)
 .bss           0x0000000000000000        0x0 D:\CODEX\Dev-Cpp\TDM-GCC3264\x86_64-w64-mingw32\lib/libmingw32.a(lib64_libmingw32_a-merr.o)
 .debug_frame   0x0000000000000000       0x78 D:\CODEX\Dev-Cpp\TDM-GCC3264\x86_64-w64-mingw32\lib/libmingw32.a(lib64_libmingw32_a-merr.o)
 .debug_info    0x0000000000000000      0x2c9 D:\CODEX\Dev-Cpp\TDM-GCC3264\x86_64-w64-mingw32\lib/libmingw32.a(lib64_libmingw32_a-merr.o)
 .debug_abbrev  0x0000000000000000       0xe1 D:\CODEX\Dev-Cpp\TDM-GCC3264\x86_64-w64-mingw32\lib/libmingw32.a(lib64_libmingw32_a-merr.o)
 .debug_loc     0x0000000000000000      0x10d D:\CODEX\Dev-Cpp\TDM-GCC3264\x86_64-w64-mingw32\lib/libmingw32.a(lib64_libmingw32_a-merr.o)
 .debug_aranges
                0x0000000000000000       0x30 D:\CODEX\Dev-Cpp\TDM-GCC3264\x86_64-w64-mingw32\lib/libmingw32.a(lib64_libmingw32_a-merr.o)
 .debug_line    0x0000000000000000      0x104 D:\CODEX\Dev-Cpp\TDM-GCC3264\x86_64-w64-mingw32\lib/libmingw32.a(lib64_libmingw32_a-merr.o)
 .debug_str     0x0000000000000000       0x10 D:\CODEX\Dev-Cpp\TDM-GCC3264\x86_64-w64-mingw32\lib/libmingw32.a(lib64_libmingw32_a-merr.o)
 .rdata$zzz     0x0000000000000000       0x20 D:\CODEX\Dev-Cpp\TDM-GCC3264\x86_64-w64-mingw32\lib/libmingw32.a(lib64_libmingw32_a-merr.o)
 .data          0x0000000000000000        0x0 D:\CODEX\Dev-Cpp\TDM-GCC3264\x86_64-w64-mingw32\lib/libmingw32.a(lib64_libmingw32_a-CRT_fp10.o)
 .bss           0x0000000000000000        0x0 D:\CODEX\Dev-Cpp\TDM-GCC3264\x86_64-w64-mingw32\lib/libmingw32.a(lib64_libmingw32_a-CRT_fp10.o)
 .debug_frame   0x0000000000000000       0x30 D:\CODEX\Dev-Cpp\TDM-GCC3264\x86_64-w64-mingw32\lib/libmingw32.a(lib64_libmingw32_a-CRT_fp10.o)
 .debug_info    0x0000000000000000       0xfa D:\CODEX\Dev-Cpp\TDM-GCC3264\x86_64-w64-mingw32\lib/libmingw32.a(lib64_libmingw32_a-CRT_fp10.o)
 .debug_abbrev  0x0000000000000000       0x2e D:\CODEX\Dev-Cpp\TDM-GCC3264\x86_64-w64-mingw32\lib/libmingw32.a(lib64_libmingw32_a-CRT_fp10.o)
 .debug_aranges
                0x0000000000000000       0x30 D:\CODEX\Dev-Cpp\TDM-GCC3264\x86_64-w64-mingw32\lib/libmingw32.a(lib64_libmingw32_a-CRT_fp10.o)
 .debug_line    0x0000000000000000       0x7c D:\CODEX\Dev-Cpp\TDM-GCC3264\x86_64-w64-mingw32\lib/libmingw32.a(lib64_libmingw32_a-CRT_fp10.o)
 .debug_str     0x0000000000000000        0x0 D:\CODEX\Dev-Cpp\TDM-GCC3264\x86_64-w64-mingw32\lib/libmingw32.a(lib64_libmingw32_a-CRT_fp10.o)
 .rdata$zzz     0x0000000000000000       0x20 D:\CODEX\Dev-Cpp\TDM-GCC3264\x86_64-w64-mingw32\lib/libmingw32.a(lib64_libmingw32_a-CRT_fp10.o)
 .text          0x0000000000000000        0x0 D:\CODEX\Dev-Cpp\TDM-GCC3264\x86_64-w64-mingw32\lib/libmingw32.a(lib64_libmingw32_a-mingw_helpers.o)
 .data          0x0000000000000000        0x0 D:\CODEX\Dev-Cpp\TDM-GCC3264\x86_64-w64-mingw32\lib/libmingw32.a(lib64_libmingw32_a-mingw_helpers.o)
 .debug_info    0x0000000000000000       0xf8 D:\CODEX\Dev-Cpp\TDM-GCC3264\x86_64-w64-mingw32\lib/libmingw32.a(lib64_libmingw32_a-mingw_helpers.o)
 .debug_abbrev  0x0000000000000000       0x2e D:\CODEX\Dev-Cpp\TDM-GCC3264\x86_64-w64-mingw32\lib/libmingw32.a(lib64_libmingw32_a-mingw_helpers.o)
 .debug_aranges
                0x0000000000000000       0x20 D:\CODEX\Dev-Cpp\TDM-GCC3264\x86_64-w64-mingw32\lib/libmingw32.a(lib64_libmingw32_a-mingw_helpers.o)
 .debug_line    0x0000000000000000       0x63 D:\CODEX\Dev-Cpp\TDM-GCC3264\x86_64-w64-mingw32\lib/libmingw32.a(lib64_libmingw32_a-mingw_helpers.o)
 .debug_str     0x0000000000000000        0x0 D:\CODEX\Dev-Cpp\TDM-GCC3264\x86_64-w64-mingw32\lib/libmingw32.a(lib64_libmingw32_a-mingw_helpers.o)
 .rdata$zzz     0x0000000000000000       0x20 D:\CODEX\Dev-Cpp\TDM-GCC3264\x86_64-w64-mingw32\lib/libmingw32.a(lib64_libmingw32_a-mingw_helpers.o)
 .data          0x0000000000000000        0x0 D:\CODEX\Dev-Cpp\TDM-GCC3264\x86_64-w64-mingw32\lib/libmingw32.a(lib64_libmingw32_a-pseudo-reloc.o)
 .debug_frame   0x0000000000000000      0x160 D:\CODEX\Dev-Cpp\TDM-GCC3264\x86_64-w64-mingw32\lib/libmingw32.a(lib64_libmingw32_a-pseudo-reloc.o)
 .debug_info    0x0000000000000000     0x12a7 D:\CODEX\Dev-Cpp\TDM-GCC3264\x86_64-w64-mingw32\lib/libmingw32.a(lib64_libmingw32_a-pseudo-reloc.o)
 .debug_abbrev  0x0000000000000000      0x36d D:\CODEX\Dev-Cpp\TDM-GCC3264\x86_64-w64-mingw32\lib/libmingw32.a(lib64_libmingw32_a-pseudo-reloc.o)
 .debug_loc     0x0000000000000000      0xbd1 D:\CODEX\Dev-Cpp\TDM-GCC3264\x86_64-w64-mingw32\lib/libmingw32.a(lib64_libmingw32_a-pseudo-reloc.o)
 .debug_aranges
                0x0000000000000000       0x30 D:\CODEX\Dev-Cpp\TDM-GCC3264\x86_64-w64-mingw32\lib/libmingw32.a(lib64_libmingw32_a-pseudo-reloc.o)
 .debug_ranges  0x0000000000000000      0x300 D:\CODEX\Dev-Cpp\TDM-GCC3264\x86_64-w64-mingw32\lib/libmingw32.a(lib64_libmingw32_a-pseudo-reloc.o)
 .debug_line    0x0000000000000000      0x52b D:\CODEX\Dev-Cpp\TDM-GCC3264\x86_64-w64-mingw32\lib/libmingw32.a(lib64_libmingw32_a-pseudo-reloc.o)
 .debug_str     0x0000000000000000       0x90 D:\CODEX\Dev-Cpp\TDM-GCC3264\x86_64-w64-mingw32\lib/libmingw32.a(lib64_libmingw32_a-pseudo-reloc.o)
 .rdata$zzz     0x0000000000000000       0x20 D:\CODEX\Dev-Cpp\TDM-GCC3264\x86_64-w64-mingw32\lib/libmingw32.a(lib64_libmingw32_a-pseudo-reloc.o)
 .rdata$.refptr.__image_base__
                0x0000000000000000       0x10 D:\CODEX\Dev-Cpp\TDM-GCC3264\x86_64-w64-mingw32\lib/libmingw32.a(lib64_libmingw32_a-pseudo-reloc.o)
 .data          0x0000000000000000        0x0 D:\CODEX\Dev-Cpp\TDM-GCC3264\x86_64-w64-mingw32\lib/libmingw32.a(lib64_libmingw32_a-usermatherr.o)
 .debug_frame   0x0000000000000000       0x58 D:\CODEX\Dev-Cpp\TDM-GCC3264\x86_64-w64-mingw32\lib/libmingw32.a(lib64_libmingw32_a-usermatherr.o)
 .debug_info    0x0000000000000000      0x35d D:\CODEX\Dev-Cpp\TDM-GCC3264\x86_64-w64-mingw32\lib/libmingw32.a(lib64_libmingw32_a-usermatherr.o)
 .debug_abbrev  0x0000000000000000       0xfa D:\CODEX\Dev-Cpp\TDM-GCC3264\x86_64-w64-mingw32\lib/libmingw32.a(lib64_libmingw32_a-usermatherr.o)
 .debug_loc     0x0000000000000000      0x137 D:\CODEX\Dev-Cpp\TDM-GCC3264\x86_64-w64-mingw32\lib/libmingw32.a(lib64_libmingw32_a-usermatherr.o)
 .debug_aranges
                0x0000000000000000       0x30 D:\CODEX\Dev-Cpp\TDM-GCC3264\x86_64-w64-mingw32\lib/libmingw32.a(lib64_libmingw32_a-usermatherr.o)
 .debug_line    0x0000000000000000      0x107 D:\CODEX\Dev-Cpp\TDM-GCC3264\x86_64-w64-mingw32\lib/libmingw32.a(lib64_libmingw32_a-usermatherr.o)
 .debug_str     0x0000000000000000       0x11 D:\CODEX\Dev-Cpp\TDM-GCC3264\x86_64-w64-mingw32\lib/libmingw32.a(lib64_libmingw32_a-usermatherr.o)
 .rdata$zzz     0x0000000000000000       0x20 D:\CODEX\Dev-Cpp\TDM-GCC3264\x86_64-w64-mingw32\lib/libmingw32.a(lib64_libmingw32_a-usermatherr.o)
 .text          0x0000000000000000        0x0 D:\CODEX\Dev-Cpp\TDM-GCC3264\x86_64-w64-mingw32\lib/libmingw32.a(lib64_libmingw32_a-xtxtmode.o)
 .data          0x0000000000000000        0x0 D:\CODEX\Dev-Cpp\TDM-GCC3264\x86_64-w64-mingw32\lib/libmingw32.a(lib64_libmingw32_a-xtxtmode.o)
 .debug_info    0x0000000000000000       0xeb D:\CODEX\Dev-Cpp\TDM-GCC3264\x86_64-w64-mingw32\lib/libmingw32.a(lib64_libmingw32_a-xtxtmode.o)
 .debug_abbrev  0x0000000000000000       0x2e D:\CODEX\Dev-Cpp\TDM-GCC3264\x86_64-w64-mingw32\lib/libmingw32.a(lib64_libmingw32_a-xtxtmode.o)
 .debug_aranges
                0x0000000000000000       0x20 D:\CODEX\Dev-Cpp\TDM-GCC3264\x86_64-w64-mingw32\lib/libmingw32.a(lib64_libmingw32_a-xtxtmode.o)
 .debug_line    0x0000000000000000       0x5e D:\CODEX\Dev-Cpp\TDM-GCC3264\x86_64-w64-mingw32\lib/libmingw32.a(lib64_libmingw32_a-xtxtmode.o)
 .debug_str     0x0000000000000000        0x0 D:\CODEX\Dev-Cpp\TDM-GCC3264\x86_64-w64-mingw32\lib/libmingw32.a(lib64_libmingw32_a-xtxtmode.o)
 .rdata$zzz     0x0000000000000000       0x20 D:\CODEX\Dev-Cpp\TDM-GCC3264\x86_64-w64-mingw32\lib/libmingw32.a(lib64_libmingw32_a-xtxtmode.o)
 .data          0x0000000000000000        0x0 D:\CODEX\Dev-Cpp\TDM-GCC3264\x86_64-w64-mingw32\lib/libmingw32.a(lib64_libmingw32_a-crt_handler.o)
 .debug_frame   0x0000000000000000       0x88 D:\CODEX\Dev-Cpp\TDM-GCC3264\x86_64-w64-mingw32\lib/libmingw32.a(lib64_libmingw32_a-crt_handler.o)
 .debug_info    0x0000000000000000      0xfe6 D:\CODEX\Dev-Cpp\TDM-GCC3264\x86_64-w64-mingw32\lib/libmingw32.a(lib64_libmingw32_a-crt_handler.o)
 .debug_abbrev  0x0000000000000000      0x27b D:\CODEX\Dev-Cpp\TDM-GCC3264\x86_64-w64-mingw32\lib/libmingw32.a(lib64_libmingw32_a-crt_handler.o)
 .debug_loc     0x0000000000000000      0x356 D:\CODEX\Dev-Cpp\TDM-GCC3264\x86_64-w64-mingw32\lib/libmingw32.a(lib64_libmingw32_a-crt_handler.o)
 .debug_aranges
                0x0000000000000000       0x30 D:\CODEX\Dev-Cpp\TDM-GCC3264\x86_64-w64-mingw32\lib/libmingw32.a(lib64_libmingw32_a-crt_handler.o)
 .debug_line    0x0000000000000000      0x244 D:\CODEX\Dev-Cpp\TDM-GCC3264\x86_64-w64-mingw32\lib/libmingw32.a(lib64_libmingw32_a-crt_handler.o)
 .debug_str     0x0000000000000000       0x19 D:\CODEX\Dev-Cpp\TDM-GCC3264\x86_64-w64-mingw32\lib/libmingw32.a(lib64_libmingw32_a-crt_handler.o)
 .rdata$zzz     0x0000000000000000       0x20 D:\CODEX\Dev-Cpp\TDM-GCC3264\x86_64-w64-mingw32\lib/libmingw32.a(lib64_libmingw32_a-crt_handler.o)
 .data          0x0000000000000000        0x0 D:\CODEX\Dev-Cpp\TDM-GCC3264\x86_64-w64-mingw32\lib/libmingw32.a(lib64_libmingw32_a-tlsthrd.o)
 .debug_frame   0x0000000000000000      0x1c0 D:\CODEX\Dev-Cpp\TDM-GCC3264\x86_64-w64-mingw32\lib/libmingw32.a(lib64_libmingw32_a-tlsthrd.o)
 .debug_info    0x0000000000000000      0x9da D:\CODEX\Dev-Cpp\TDM-GCC3264\x86_64-w64-mingw32\lib/libmingw32.a(lib64_libmingw32_a-tlsthrd.o)
 .debug_abbrev  0x0000000000000000      0x204 D:\CODEX\Dev-Cpp\TDM-GCC3264\x86_64-w64-mingw32\lib/libmingw32.a(lib64_libmingw32_a-tlsthrd.o)
 .debug_loc     0x0000000000000000      0x728 D:\CODEX\Dev-Cpp\TDM-GCC3264\x86_64-w64-mingw32\lib/libmingw32.a(lib64_libmingw32_a-tlsthrd.o)
 .debug_aranges
                0x0000000000000000       0x30 D:\CODEX\Dev-Cpp\TDM-GCC3264\x86_64-w64-mingw32\lib/libmingw32.a(lib64_libmingw32_a-tlsthrd.o)
 .debug_ranges  0x0000000000000000       0x30 D:\CODEX\Dev-Cpp\TDM-GCC3264\x86_64-w64-mingw32\lib/libmingw32.a(lib64_libmingw32_a-tlsthrd.o)
 .debug_line    0x0000000000000000      0x30e D:\CODEX\Dev-Cpp\TDM-GCC3264\x86_64-w64-mingw32\lib/libmingw32.a(lib64_libmingw32_a-tlsthrd.o)
 .debug_str     0x0000000000000000       0x7c D:\CODEX\Dev-Cpp\TDM-GCC3264\x86_64-w64-mingw32\lib/libmingw32.a(lib64_libmingw32_a-tlsthrd.o)
 .rdata$zzz     0x0000000000000000       0x20 D:\CODEX\Dev-Cpp\TDM-GCC3264\x86_64-w64-mingw32\lib/libmingw32.a(lib64_libmingw32_a-tlsthrd.o)
 .text          0x0000000000000000        0x0 D:\CODEX\Dev-Cpp\TDM-GCC3264\x86_64-w64-mingw32\lib/libmingw32.a(lib64_libmingw32_a-tlsmcrt.o)
 .bss           0x0000000000000000        0x0 D:\CODEX\Dev-Cpp\TDM-GCC3264\x86_64-w64-mingw32\lib/libmingw32.a(lib64_libmingw32_a-tlsmcrt.o)
 .debug_info    0x0000000000000000       0xeb D:\CODEX\Dev-Cpp\TDM-GCC3264\x86_64-w64-mingw32\lib/libmingw32.a(lib64_libmingw32_a-tlsmcrt.o)
 .debug_abbrev  0x0000000000000000       0x2e D:\CODEX\Dev-Cpp\TDM-GCC3264\x86_64-w64-mingw32\lib/libmingw32.a(lib64_libmingw32_a-tlsmcrt.o)
 .debug_aranges
                0x0000000000000000       0x20 D:\CODEX\Dev-Cpp\TDM-GCC3264\x86_64-w64-mingw32\lib/libmingw32.a(lib64_libmingw32_a-tlsmcrt.o)
 .debug_line    0x0000000000000000       0x5d D:\CODEX\Dev-Cpp\TDM-GCC3264\x86_64-w64-mingw32\lib/libmingw32.a(lib64_libmingw32_a-tlsmcrt.o)
 .debug_str     0x0000000000000000        0x0 D:\CODEX\Dev-Cpp\TDM-GCC3264\x86_64-w64-mingw32\lib/libmingw32.a(lib64_libmingw32_a-tlsmcrt.o)
 .rdata$zzz     0x0000000000000000       0x20 D:\CODEX\Dev-Cpp\TDM-GCC3264\x86_64-w64-mingw32\lib/libmingw32.a(lib64_libmingw32_a-tlsmcrt.o)
 .text          0x0000000000000000        0x0 D:\CODEX\Dev-Cpp\TDM-GCC3264\x86_64-w64-mingw32\lib/libmingw32.a(lib64_libmingw32_a-pseudo-reloc-list.o)
 .data          0x0000000000000000        0x0 D:\CODEX\Dev-Cpp\TDM-GCC3264\x86_64-w64-mingw32\lib/libmingw32.a(lib64_libmingw32_a-pseudo-reloc-list.o)
 .bss           0x0000000000000000       0x10 D:\CODEX\Dev-Cpp\TDM-GCC3264\x86_64-w64-mingw32\lib/libmingw32.a(lib64_libmingw32_a-pseudo-reloc-list.o)
 .debug_info    0x0000000000000000      0x140 D:\CODEX\Dev-Cpp\TDM-GCC3264\x86_64-w64-mingw32\lib/libmingw32.a(lib64_libmingw32_a-pseudo-reloc-list.o)
 .debug_abbrev  0x0000000000000000       0x2e D:\CODEX\Dev-Cpp\TDM-GCC3264\x86_64-w64-mingw32\lib/libmingw32.a(lib64_libmingw32_a-pseudo-reloc-list.o)
 .debug_aranges
                0x0000000000000000       0x20 D:\CODEX\Dev-Cpp\TDM-GCC3264\x86_64-w64-mingw32\lib/libmingw32.a(lib64_libmingw32_a-pseudo-reloc-list.o)
 .debug_line    0x0000000000000000       0x67 D:\CODEX\Dev-Cpp\TDM-GCC3264\x86_64-w64-mingw32\lib/libmingw32.a(lib64_libmingw32_a-pseudo-reloc-list.o)
 .debug_str     0x0000000000000000        0x0 D:\CODEX\Dev-Cpp\TDM-GCC3264\x86_64-w64-mingw32\lib/libmingw32.a(lib64_libmingw32_a-pseudo-reloc-list.o)
 .rdata$zzz     0x0000000000000000       0x20 D:\CODEX\Dev-Cpp\TDM-GCC3264\x86_64-w64-mingw32\lib/libmingw32.a(lib64_libmingw32_a-pseudo-reloc-list.o)
 .data          0x0000000000000000        0x0 D:\CODEX\Dev-Cpp\TDM-GCC3264\x86_64-w64-mingw32\lib/libmingw32.a(lib64_libmingw32_a-pesect.o)
 .bss           0x0000000000000000        0x0 D:\CODEX\Dev-Cpp\TDM-GCC3264\x86_64-w64-mingw32\lib/libmingw32.a(lib64_libmingw32_a-pesect.o)
 .debug_frame   0x0000000000000000      0x158 D:\CODEX\Dev-Cpp\TDM-GCC3264\x86_64-w64-mingw32\lib/libmingw32.a(lib64_libmingw32_a-pesect.o)
 .debug_info    0x0000000000000000     0x15d7 D:\CODEX\Dev-Cpp\TDM-GCC3264\x86_64-w64-mingw32\lib/libmingw32.a(lib64_libmingw32_a-pesect.o)
 .debug_abbrev  0x0000000000000000      0x256 D:\CODEX\Dev-Cpp\TDM-GCC3264\x86_64-w64-mingw32\lib/libmingw32.a(lib64_libmingw32_a-pesect.o)
 .debug_loc     0x0000000000000000      0xbe1 D:\CODEX\Dev-Cpp\TDM-GCC3264\x86_64-w64-mingw32\lib/libmingw32.a(lib64_libmingw32_a-pesect.o)
 .debug_aranges
                0x0000000000000000       0x30 D:\CODEX\Dev-Cpp\TDM-GCC3264\x86_64-w64-mingw32\lib/libmingw32.a(lib64_libmingw32_a-pesect.o)
 .debug_ranges  0x0000000000000000      0x330 D:\CODEX\Dev-Cpp\TDM-GCC3264\x86_64-w64-mingw32\lib/libmingw32.a(lib64_libmingw32_a-pesect.o)
 .debug_line    0x0000000000000000      0x5d6 D:\CODEX\Dev-Cpp\TDM-GCC3264\x86_64-w64-mingw32\lib/libmingw32.a(lib64_libmingw32_a-pesect.o)
 .debug_str     0x0000000000000000       0x54 D:\CODEX\Dev-Cpp\TDM-GCC3264\x86_64-w64-mingw32\lib/libmingw32.a(lib64_libmingw32_a-pesect.o)
 .rdata$zzz     0x0000000000000000       0x20 D:\CODEX\Dev-Cpp\TDM-GCC3264\x86_64-w64-mingw32\lib/libmingw32.a(lib64_libmingw32_a-pesect.o)
 .rdata$.refptr.__image_base__
                0x0000000000000000       0x10 D:\CODEX\Dev-Cpp\TDM-GCC3264\x86_64-w64-mingw32\lib/libmingw32.a(lib64_libmingw32_a-pesect.o)
 .data          0x0000000000000000        0x0 D:/CODEX/Dev-Cpp/TDM-GCC3264/bin/../lib/gcc/x86_64-w64-mingw32/10.3.0/libgcc.a(_chkstk_ms.o)
 .bss           0x0000000000000000        0x0 D:/CODEX/Dev-Cpp/TDM-GCC3264/bin/../lib/gcc/x86_64-w64-mingw32/10.3.0/libgcc.a(_chkstk_ms.o)
 .debug_line    0x0000000000000000       0x80 D:/CODEX/Dev-Cpp/TDM-GCC3264/bin/../lib/gcc/x86_64-w64-mingw32/10.3.0/libgcc.a(_chkstk_ms.o)
 .debug_info    0x0000000000000000       0x2e D:/CODEX/Dev-Cpp/TDM-GCC3264/bin/../lib/gcc/x86_64-w64-mingw32/10.3.0/libgcc.a(_chkstk_ms.o)
 .debug_abbrev  0x0000000000000000       0x14 D:/CODEX/Dev-Cpp/TDM-GCC3264/bin/../lib/gcc/x86_64-w64-mingw32/10.3.0/libgcc.a(_chkstk_ms.o)
 .debug_aranges
                0x0000000000000000       0x30 D:/CODEX/Dev-Cpp/TDM-GCC3264/bin/../lib/gcc/x86_64-w64-mingw32/10.3.0/libgcc.a(_chkstk_ms.o)
 .debug_str     0x0000000000000000       0x90 D:/CODEX/Dev-Cpp/TDM-GCC3264/bin/../lib/gcc/x86_64-w64-mingw32/10.3.0/libgcc.a(_chkstk_ms.o)
 .text          0x0000000000000000        0x0 D:/CODEX/Dev-Cpp/TDM-GCC3264/bin/../lib/gcc/x86_64-w64-mingw32/10.3.0/libgcc.a(_ctors.o)
 .data          0x0000000000000000        0x0 D:/CODEX/Dev-Cpp/TDM-GCC3264/bin/../lib/gcc/x86_64-w64-mingw32/10.3.0/libgcc.a(_ctors.o)
 .bss           0x0000000000000000       0x20 D:/CODEX/Dev-Cpp/TDM-GCC3264/bin/../lib/gcc/x86_64-w64-mingw32/10.3.0/libgcc.a(_ctors.o)
 .debug_info    0x0000000000000000      0xddc D:/CODEX/Dev-Cpp/TDM-GCC3264/bin/../lib/gcc/x86_64-w64-mingw32/10.3.0/libgcc.a(_ctors.o)
 .debug_abbrev  0x0000000000000000       0x93 D:/CODEX/Dev-Cpp/TDM-GCC3264/bin/../lib/gcc/x86_64-w64-mingw32/10.3.0/libgcc.a(_ctors.o)
 .debug_aranges
                0x0000000000000000       0x20 D:/CODEX/Dev-Cpp/TDM-GCC3264/bin/../lib/gcc/x86_64-w64-mingw32/10.3.0/libgcc.a(_ctors.o)
 .debug_line    0x0000000000000000       0xc1 D:/CODEX/Dev-Cpp/TDM-GCC3264/bin/../lib/gcc/x86_64-w64-mingw32/10.3.0/libgcc.a(_ctors.o)
 .debug_str     0x0000000000000000        0x0 D:/CODEX/Dev-Cpp/TDM-GCC3264/bin/../lib/gcc/x86_64-w64-mingw32/10.3.0/libgcc.a(_ctors.o)
 .rdata$zzz     0x0000000000000000       0x20 D:/CODEX/Dev-Cpp/TDM-GCC3264/bin/../lib/gcc/x86_64-w64-mingw32/10.3.0/libgcc.a(_ctors.o)
 .data          0x0000000000000000        0x0 D:/CODEX/Dev-Cpp/TDM-GCC3264/bin/../lib/gcc/x86_64-w64-mingw32/10.3.0/libgcc.a(eh_shmem3_mingw.o)
 .debug_frame   0x0000000000000000      0x148 D:/CODEX/Dev-Cpp/TDM-GCC3264/bin/../lib/gcc/x86_64-w64-mingw32/10.3.0/libgcc.a(eh_shmem3_mingw.o)
 .debug_info    0x0000000000000000      0xe1d D:/CODEX/Dev-Cpp/TDM-GCC3264/bin/../lib/gcc/x86_64-w64-mingw32/10.3.0/libgcc.a(eh_shmem3_mingw.o)
 .debug_abbrev  0x0000000000000000      0x238 D:/CODEX/Dev-Cpp/TDM-GCC3264/bin/../lib/gcc/x86_64-w64-mingw32/10.3.0/libgcc.a(eh_shmem3_mingw.o)
 .debug_loc     0x0000000000000000      0x895 D:/CODEX/Dev-Cpp/TDM-GCC3264/bin/../lib/gcc/x86_64-w64-mingw32/10.3.0/libgcc.a(eh_shmem3_mingw.o)
 .debug_aranges
                0x0000000000000000       0x30 D:/CODEX/Dev-Cpp/TDM-GCC3264/bin/../lib/gcc/x86_64-w64-mingw32/10.3.0/libgcc.a(eh_shmem3_mingw.o)
 .debug_ranges  0x0000000000000000      0x1b0 D:/CODEX/Dev-Cpp/TDM-GCC3264/bin/../lib/gcc/x86_64-w64-mingw32/10.3.0/libgcc.a(eh_shmem3_mingw.o)
 .debug_line    0x0000000000000000      0x4c5 D:/CODEX/Dev-Cpp/TDM-GCC3264/bin/../lib/gcc/x86_64-w64-mingw32/10.3.0/libgcc.a(eh_shmem3_mingw.o)
 .debug_str     0x0000000000000000       0xc4 D:/CODEX/Dev-Cpp/TDM-GCC3264/bin/../lib/gcc/x86_64-w64-mingw32/10.3.0/libgcc.a(eh_shmem3_mingw.o)
 .rdata$zzz     0x0000000000000000       0x20 D:/CODEX/Dev-Cpp/TDM-GCC3264/bin/../lib/gcc/x86_64-w64-mingw32/10.3.0/libgcc.a(eh_shmem3_mingw.o)
 .data          0x0000000000000000        0x0 D:\CODEX\Dev-Cpp\TDM-GCC3264\x86_64-w64-mingw32\lib/libpthread.a(libwinpthread_la-mutex.o)
 .bss           0x0000000000000000        0x0 D:\CODEX\Dev-Cpp\TDM-GCC3264\x86_64-w64-mingw32\lib/libpthread.a(libwinpthread_la-mutex.o)
 .rdata$zzz     0x0000000000000000       0x20 D:\CODEX\Dev-Cpp\TDM-GCC3264\x86_64-w64-mingw32\lib/libpthread.a(libwinpthread_la-mutex.o)
 .rdata$zzz     0x0000000000000000       0x20 D:\CODEX\Dev-Cpp\TDM-GCC3264\x86_64-w64-mingw32\lib/libpthread.a(libwinpthread_la-thread.o)
 .data          0x0000000000000000        0x0 D:\CODEX\Dev-Cpp\TDM-GCC3264\x86_64-w64-mingw32\lib/libpthread.a(libwinpthread_la-shmem3_mingw.o)
 .rdata$zzz     0x0000000000000000       0x20 D:\CODEX\Dev-Cpp\TDM-GCC3264\x86_64-w64-mingw32\lib/libpthread.a(libwinpthread_la-shmem3_mingw.o)
 .data          0x0000000000000000        0x0 D:\CODEX\Dev-Cpp\TDM-GCC3264\x86_64-w64-mingw32\lib/libpthread.a(libwinpthread_la-misc.o)
 .bss           0x0000000000000000        0x0 D:\CODEX\Dev-Cpp\TDM-GCC3264\x86_64-w64-mingw32\lib/libpthread.a(libwinpthread_la-misc.o)
 .rdata$zzz     0x0000000000000000       0x20 D:\CODEX\Dev-Cpp\TDM-GCC3264\x86_64-w64-mingw32\lib/libpthread.a(libwinpthread_la-misc.o)
 .rdata$zzz     0x0000000000000000       0x20 D:\CODEX\Dev-Cpp\TDM-GCC3264\x86_64-w64-mingw32\lib/libpthread.a(libwinpthread_la-rwlock.o)
 .rdata$.refptr.__shmem3_winpthreads_tdm_local_shmem_region
                0x0000000000000000       0x10 D:\CODEX\Dev-Cpp\TDM-GCC3264\x86_64-w64-mingw32\lib/libpthread.a(libwinpthread_la-rwlock.o)
 .data          0x0000000000000000        0x0 D:\CODEX\Dev-Cpp\TDM-GCC3264\x86_64-w64-mingw32\lib/libpthread.a(libwinpthread_la-spinlock.o)
 .bss           0x0000000000000000        0x0 D:\CODEX\Dev-Cpp\TDM-GCC3264\x86_64-w64-mingw32\lib/libpthread.a(libwinpthread_la-spinlock.o)
 .rdata$zzz     0x0000000000000000       0x20 D:\CODEX\Dev-Cpp\TDM-GCC3264\x86_64-w64-mingw32\lib/libpthread.a(libwinpthread_la-spinlock.o)
 .rdata$zzz     0x0000000000000000       0x20 D:\CODEX\Dev-Cpp\TDM-GCC3264\x86_64-w64-mingw32\lib/libpthread.a(libwinpthread_la-cond.o)
 .rdata$.refptr.__shmem3_winpthreads_tdm_local_shmem_region
                0x0000000000000000       0x10 D:\CODEX\Dev-Cpp\TDM-GCC3264\x86_64-w64-mingw32\lib/libpthread.a(libwinpthread_la-cond.o)
 .data          0x0000000000000000        0x0 D:\CODEX\Dev-Cpp\TDM-GCC3264\x86_64-w64-mingw32\lib/libpthread.a(libwinpthread_la-sched.o)
 .bss           0x0000000000000000        0x0 D:\CODEX\Dev-Cpp\TDM-GCC3264\x86_64-w64-mingw32\lib/libpthread.a(libwinpthread_la-sched.o)
 .rdata$zzz     0x0000000000000000       0x20 D:\CODEX\Dev-Cpp\TDM-GCC3264\x86_64-w64-mingw32\lib/libpthread.a(libwinpthread_la-sched.o)
 .text          0x0000000000000000        0x8 D:\CODEX\Dev-Cpp\TDM-GCC3264\x86_64-w64-mingw32\lib/libkernel32.a(dwdrs01502.o)
 .data          0x0000000000000000        0x0 D:\CODEX\Dev-Cpp\TDM-GCC3264\x86_64-w64-mingw32\lib/libkernel32.a(dwdrs01502.o)
 .bss           0x0000000000000000        0x0 D:\CODEX\Dev-Cpp\TDM-GCC3264\x86_64-w64-mingw32\lib/libkernel32.a(dwdrs01502.o)
 .text          0x0000000000000000        0x8 D:\CODEX\Dev-Cpp\TDM-GCC3264\x86_64-w64-mingw32\lib/libkernel32.a(dwdrs01500.o)
 .data          0x0000000000000000        0x0 D:\CODEX\Dev-Cpp\TDM-GCC3264\x86_64-w64-mingw32\lib/libkernel32.a(dwdrs01500.o)
 .bss           0x0000000000000000        0x0 D:\CODEX\Dev-Cpp\TDM-GCC3264\x86_64-w64-mingw32\lib/libkernel32.a(dwdrs01500.o)
 .text          0x0000000000000000        0x8 D:\CODEX\Dev-Cpp\TDM-GCC3264\x86_64-w64-mingw32\lib/libkernel32.a(dwdrs01493.o)
 .data          0x0000000000000000        0x0 D:\CODEX\Dev-Cpp\TDM-GCC3264\x86_64-w64-mingw32\lib/libkernel32.a(dwdrs01493.o)
 .bss           0x0000000000000000        0x0 D:\CODEX\Dev-Cpp\TDM-GCC3264\x86_64-w64-mingw32\lib/libkernel32.a(dwdrs01493.o)
 .text          0x0000000000000000        0x8 D:\CODEX\Dev-Cpp\TDM-GCC3264\x86_64-w64-mingw32\lib/libkernel32.a(dwdrs01491.o)
 .data          0x0000000000000000        0x0 D:\CODEX\Dev-Cpp\TDM-GCC3264\x86_64-w64-mingw32\lib/libkernel32.a(dwdrs01491.o)
 .bss           0x0000000000000000        0x0 D:\CODEX\Dev-Cpp\TDM-GCC3264\x86_64-w64-mingw32\lib/libkernel32.a(dwdrs01491.o)
 .text          0x0000000000000000        0x8 D:\CODEX\Dev-Cpp\TDM-GCC3264\x86_64-w64-mingw32\lib/libkernel32.a(dwdrs01451.o)
 .data          0x0000000000000000        0x0 D:\CODEX\Dev-Cpp\TDM-GCC3264\x86_64-w64-mingw32\lib/libkernel32.a(dwdrs01451.o)
 .bss           0x0000000000000000        0x0 D:\CODEX\Dev-Cpp\TDM-GCC3264\x86_64-w64-mingw32\lib/libkernel32.a(dwdrs01451.o)
 .text          0x0000000000000000        0x8 D:\CODEX\Dev-Cpp\TDM-GCC3264\x86_64-w64-mingw32\lib/libkernel32.a(dwdrs01445.o)
 .data          0x0000000000000000        0x0 D:\CODEX\Dev-Cpp\TDM-GCC3264\x86_64-w64-mingw32\lib/libkernel32.a(dwdrs01445.o)
 .bss           0x0000000000000000        0x0 D:\CODEX\Dev-Cpp\TDM-GCC3264\x86_64-w64-mingw32\lib/libkernel32.a(dwdrs01445.o)
 .text          0x0000000000000000        0x8 D:\CODEX\Dev-Cpp\TDM-GCC3264\x86_64-w64-mingw32\lib/libkernel32.a(dwdrs01444.o)
 .data          0x0000000000000000        0x0 D:\CODEX\Dev-Cpp\TDM-GCC3264\x86_64-w64-mingw32\lib/libkernel32.a(dwdrs01444.o)
 .bss           0x0000000000000000        0x0 D:\CODEX\Dev-Cpp\TDM-GCC3264\x86_64-w64-mingw32\lib/libkernel32.a(dwdrs01444.o)
 .text          0x0000000000000000        0x8 D:\CODEX\Dev-Cpp\TDM-GCC3264\x86_64-w64-mingw32\lib/libkernel32.a(dwdrs01442.o)
 .data          0x0000000000000000        0x0 D:\CODEX\Dev-Cpp\TDM-GCC3264\x86_64-w64-mingw32\lib/libkernel32.a(dwdrs01442.o)
 .bss           0x0000000000000000        0x0 D:\CODEX\Dev-Cpp\TDM-GCC3264\x86_64-w64-mingw32\lib/libkernel32.a(dwdrs01442.o)
 .text          0x0000000000000000        0x8 D:\CODEX\Dev-Cpp\TDM-GCC3264\x86_64-w64-mingw32\lib/libkernel32.a(dwdrs01417.o)
 .data          0x0000000000000000        0x0 D:\CODEX\Dev-Cpp\TDM-GCC3264\x86_64-w64-mingw32\lib/libkernel32.a(dwdrs01417.o)
 .bss           0x0000000000000000        0x0 D:\CODEX\Dev-Cpp\TDM-GCC3264\x86_64-w64-mingw32\lib/libkernel32.a(dwdrs01417.o)
 .text          0x0000000000000000        0x8 D:\CODEX\Dev-Cpp\TDM-GCC3264\x86_64-w64-mingw32\lib/libkernel32.a(dwdrs01377.o)
 .data          0x0000000000000000        0x0 D:\CODEX\Dev-Cpp\TDM-GCC3264\x86_64-w64-mingw32\lib/libkernel32.a(dwdrs01377.o)
 .bss           0x0000000000000000        0x0 D:\CODEX\Dev-Cpp\TDM-GCC3264\x86_64-w64-mingw32\lib/libkernel32.a(dwdrs01377.o)
 .text          0x0000000000000000        0x8 D:\CODEX\Dev-Cpp\TDM-GCC3264\x86_64-w64-mingw32\lib/libkernel32.a(dwdrs01367.o)
 .data          0x0000000000000000        0x0 D:\CODEX\Dev-Cpp\TDM-GCC3264\x86_64-w64-mingw32\lib/libkernel32.a(dwdrs01367.o)
 .bss           0x0000000000000000        0x0 D:\CODEX\Dev-Cpp\TDM-GCC3264\x86_64-w64-mingw32\lib/libkernel32.a(dwdrs01367.o)
 .text          0x0000000000000000        0x8 D:\CODEX\Dev-Cpp\TDM-GCC3264\x86_64-w64-mingw32\lib/libkernel32.a(dwdrs01344.o)
 .data          0x0000000000000000        0x0 D:\CODEX\Dev-Cpp\TDM-GCC3264\x86_64-w64-mingw32\lib/libkernel32.a(dwdrs01344.o)
 .bss           0x0000000000000000        0x0 D:\CODEX\Dev-Cpp\TDM-GCC3264\x86_64-w64-mingw32\lib/libkernel32.a(dwdrs01344.o)
 .text          0x0000000000000000        0x8 D:\CODEX\Dev-Cpp\TDM-GCC3264\x86_64-w64-mingw32\lib/libkernel32.a(dwdrs01333.o)
 .data          0x0000000000000000        0x0 D:\CODEX\Dev-Cpp\TDM-GCC3264\x86_64-w64-mingw32\lib/libkernel32.a(dwdrs01333.o)
 .bss           0x0000000000000000        0x0 D:\CODEX\Dev-Cpp\TDM-GCC3264\x86_64-w64-mingw32\lib/libkernel32.a(dwdrs01333.o)
 .text          0x0000000000000000        0x8 D:\CODEX\Dev-Cpp\TDM-GCC3264\x86_64-w64-mingw32\lib/libkernel32.a(dwdrs01305.o)
 .data          0x0000000000000000        0x0 D:\CODEX\Dev-Cpp\TDM-GCC3264\x86_64-w64-mingw32\lib/libkernel32.a(dwdrs01305.o)
 .bss           0x0000000000000000        0x0 D:\CODEX\Dev-Cpp\TDM-GCC3264\x86_64-w64-mingw32\lib/libkernel32.a(dwdrs01305.o)
 .text          0x0000000000000000        0x8 D:\CODEX\Dev-Cpp\TDM-GCC3264\x86_64-w64-mingw32\lib/libkernel32.a(dwdrs01220.o)
 .data          0x0000000000000000        0x0 D:\CODEX\Dev-Cpp\TDM-GCC3264\x86_64-w64-mingw32\lib/libkernel32.a(dwdrs01220.o)
 .bss           0x0000000000000000        0x0 D:\CODEX\Dev-Cpp\TDM-GCC3264\x86_64-w64-mingw32\lib/libkernel32.a(dwdrs01220.o)
 .text          0x0000000000000000        0x8 D:\CODEX\Dev-Cpp\TDM-GCC3264\x86_64-w64-mingw32\lib/libkernel32.a(dwdrs01213.o)
 .data          0x0000000000000000        0x0 D:\CODEX\Dev-Cpp\TDM-GCC3264\x86_64-w64-mingw32\lib/libkernel32.a(dwdrs01213.o)
 .bss           0x0000000000000000        0x0 D:\CODEX\Dev-Cpp\TDM-GCC3264\x86_64-w64-mingw32\lib/libkernel32.a(dwdrs01213.o)
 .text          0x0000000000000000        0x8 D:\CODEX\Dev-Cpp\TDM-GCC3264\x86_64-w64-mingw32\lib/libkernel32.a(dwdrs01206.o)
 .data          0x0000000000000000        0x0 D:\CODEX\Dev-Cpp\TDM-GCC3264\x86_64-w64-mingw32\lib/libkernel32.a(dwdrs01206.o)
 .bss           0x0000000000000000        0x0 D:\CODEX\Dev-Cpp\TDM-GCC3264\x86_64-w64-mingw32\lib/libkernel32.a(dwdrs01206.o)
 .text          0x0000000000000000        0x8 D:\CODEX\Dev-Cpp\TDM-GCC3264\x86_64-w64-mingw32\lib/libkernel32.a(dwdrs01195.o)
 .data          0x0000000000000000        0x0 D:\CODEX\Dev-Cpp\TDM-GCC3264\x86_64-w64-mingw32\lib/libkernel32.a(dwdrs01195.o)
 .bss           0x0000000000000000        0x0 D:\CODEX\Dev-Cpp\TDM-GCC3264\x86_64-w64-mingw32\lib/libkernel32.a(dwdrs01195.o)
 .text          0x0000000000000000        0x8 D:\CODEX\Dev-Cpp\TDM-GCC3264\x86_64-w64-mingw32\lib/libkernel32.a(dwdrs01191.o)
 .data          0x0000000000000000        0x0 D:\CODEX\Dev-Cpp\TDM-GCC3264\x86_64-w64-mingw32\lib/libkernel32.a(dwdrs01191.o)
 .bss           0x0000000000000000        0x0 D:\CODEX\Dev-Cpp\TDM-GCC3264\x86_64-w64-mingw32\lib/libkernel32.a(dwdrs01191.o)
 .text          0x0000000000000000        0x8 D:\CODEX\Dev-Cpp\TDM-GCC3264\x86_64-w64-mingw32\lib/libkernel32.a(dwdrs01152.o)
 .data          0x0000000000000000        0x0 D:\CODEX\Dev-Cpp\TDM-GCC3264\x86_64-w64-mingw32\lib/libkernel32.a(dwdrs01152.o)
 .bss           0x0000000000000000        0x0 D:\CODEX\Dev-Cpp\TDM-GCC3264\x86_64-w64-mingw32\lib/libkernel32.a(dwdrs01152.o)
 .text          0x0000000000000000        0x8 D:\CODEX\Dev-Cpp\TDM-GCC3264\x86_64-w64-mingw32\lib/libkernel32.a(dwdrs01131.o)
 .data          0x0000000000000000        0x0 D:\CODEX\Dev-Cpp\TDM-GCC3264\x86_64-w64-mingw32\lib/libkernel32.a(dwdrs01131.o)
 .bss           0x0000000000000000        0x0 D:\CODEX\Dev-Cpp\TDM-GCC3264\x86_64-w64-mingw32\lib/libkernel32.a(dwdrs01131.o)
 .text          0x0000000000000000        0x8 D:\CODEX\Dev-Cpp\TDM-GCC3264\x86_64-w64-mingw32\lib/libkernel32.a(dwdrs01130.o)
 .data          0x0000000000000000        0x0 D:\CODEX\Dev-Cpp\TDM-GCC3264\x86_64-w64-mingw32\lib/libkernel32.a(dwdrs01130.o)
 .bss           0x0000000000000000        0x0 D:\CODEX\Dev-Cpp\TDM-GCC3264\x86_64-w64-mingw32\lib/libkernel32.a(dwdrs01130.o)
 .text          0x0000000000000000        0x8 D:\CODEX\Dev-Cpp\TDM-GCC3264\x86_64-w64-mingw32\lib/libkernel32.a(dwdrs01077.o)
 .data          0x0000000000000000        0x0 D:\CODEX\Dev-Cpp\TDM-GCC3264\x86_64-w64-mingw32\lib/libkernel32.a(dwdrs01077.o)
 .bss           0x0000000000000000        0x0 D:\CODEX\Dev-Cpp\TDM-GCC3264\x86_64-w64-mingw32\lib/libkernel32.a(dwdrs01077.o)
 .text          0x0000000000000000        0x8 D:\CODEX\Dev-Cpp\TDM-GCC3264\x86_64-w64-mingw32\lib/libkernel32.a(dwdrs01068.o)
 .data          0x0000000000000000        0x0 D:\CODEX\Dev-Cpp\TDM-GCC3264\x86_64-w64-mingw32\lib/libkernel32.a(dwdrs01068.o)
 .bss           0x0000000000000000        0x0 D:\CODEX\Dev-Cpp\TDM-GCC3264\x86_64-w64-mingw32\lib/libkernel32.a(dwdrs01068.o)
 .text          0x0000000000000000        0x8 D:\CODEX\Dev-Cpp\TDM-GCC3264\x86_64-w64-mingw32\lib/libkernel32.a(dwdrs01001.o)
 .data          0x0000000000000000        0x0 D:\CODEX\Dev-Cpp\TDM-GCC3264\x86_64-w64-mingw32\lib/libkernel32.a(dwdrs01001.o)
 .bss           0x0000000000000000        0x0 D:\CODEX\Dev-Cpp\TDM-GCC3264\x86_64-w64-mingw32\lib/libkernel32.a(dwdrs01001.o)
 .text          0x0000000000000000        0x8 D:\CODEX\Dev-Cpp\TDM-GCC3264\x86_64-w64-mingw32\lib/libkernel32.a(dwdrs00983.o)
 .data          0x0000000000000000        0x0 D:\CODEX\Dev-Cpp\TDM-GCC3264\x86_64-w64-mingw32\lib/libkernel32.a(dwdrs00983.o)
 .bss           0x0000000000000000        0x0 D:\CODEX\Dev-Cpp\TDM-GCC3264\x86_64-w64-mingw32\lib/libkernel32.a(dwdrs00983.o)
 .text          0x0000000000000000        0x8 D:\CODEX\Dev-Cpp\TDM-GCC3264\x86_64-w64-mingw32\lib/libkernel32.a(dwdrs00919.o)
 .data          0x0000000000000000        0x0 D:\CODEX\Dev-Cpp\TDM-GCC3264\x86_64-w64-mingw32\lib/libkernel32.a(dwdrs00919.o)
 .bss           0x0000000000000000        0x0 D:\CODEX\Dev-Cpp\TDM-GCC3264\x86_64-w64-mingw32\lib/libkernel32.a(dwdrs00919.o)
 .text          0x0000000000000000        0x8 D:\CODEX\Dev-Cpp\TDM-GCC3264\x86_64-w64-mingw32\lib/libkernel32.a(dwdrs00891.o)
 .data          0x0000000000000000        0x0 D:\CODEX\Dev-Cpp\TDM-GCC3264\x86_64-w64-mingw32\lib/libkernel32.a(dwdrs00891.o)
 .bss           0x0000000000000000        0x0 D:\CODEX\Dev-Cpp\TDM-GCC3264\x86_64-w64-mingw32\lib/libkernel32.a(dwdrs00891.o)
 .text          0x0000000000000000        0x8 D:\CODEX\Dev-Cpp\TDM-GCC3264\x86_64-w64-mingw32\lib/libkernel32.a(dwdrs00798.o)
 .data          0x0000000000000000        0x0 D:\CODEX\Dev-Cpp\TDM-GCC3264\x86_64-w64-mingw32\lib/libkernel32.a(dwdrs00798.o)
 .bss           0x0000000000000000        0x0 D:\CODEX\Dev-Cpp\TDM-GCC3264\x86_64-w64-mingw32\lib/libkernel32.a(dwdrs00798.o)
 .text          0x0000000000000000        0x8 D:\CODEX\Dev-Cpp\TDM-GCC3264\x86_64-w64-mingw32\lib/libkernel32.a(dwdrs00792.o)
 .data          0x0000000000000000        0x0 D:\CODEX\Dev-Cpp\TDM-GCC3264\x86_64-w64-mingw32\lib/libkernel32.a(dwdrs00792.o)
 .bss           0x0000000000000000        0x0 D:\CODEX\Dev-Cpp\TDM-GCC3264\x86_64-w64-mingw32\lib/libkernel32.a(dwdrs00792.o)
 .text          0x0000000000000000        0x8 D:\CODEX\Dev-Cpp\TDM-GCC3264\x86_64-w64-mingw32\lib/libkernel32.a(dwdrs00782.o)
 .data          0x0000000000000000        0x0 D:\CODEX\Dev-Cpp\TDM-GCC3264\x86_64-w64-mingw32\lib/libkernel32.a(dwdrs00782.o)
 .bss           0x0000000000000000        0x0 D:\CODEX\Dev-Cpp\TDM-GCC3264\x86_64-w64-mingw32\lib/libkernel32.a(dwdrs00782.o)
 .text          0x0000000000000000        0x8 D:\CODEX\Dev-Cpp\TDM-GCC3264\x86_64-w64-mingw32\lib/libkernel32.a(dwdrs00768.o)
 .data          0x0000000000000000        0x0 D:\CODEX\Dev-Cpp\TDM-GCC3264\x86_64-w64-mingw32\lib/libkernel32.a(dwdrs00768.o)
 .bss           0x0000000000000000        0x0 D:\CODEX\Dev-Cpp\TDM-GCC3264\x86_64-w64-mingw32\lib/libkernel32.a(dwdrs00768.o)
 .text          0x0000000000000000        0x8 D:\CODEX\Dev-Cpp\TDM-GCC3264\x86_64-w64-mingw32\lib/libkernel32.a(dwdrs00710.o)
 .data          0x0000000000000000        0x0 D:\CODEX\Dev-Cpp\TDM-GCC3264\x86_64-w64-mingw32\lib/libkernel32.a(dwdrs00710.o)
 .bss           0x0000000000000000        0x0 D:\CODEX\Dev-Cpp\TDM-GCC3264\x86_64-w64-mingw32\lib/libkernel32.a(dwdrs00710.o)
 .text          0x0000000000000000        0x8 D:\CODEX\Dev-Cpp\TDM-GCC3264\x86_64-w64-mingw32\lib/libkernel32.a(dwdrs00629.o)
 .data          0x0000000000000000        0x0 D:\CODEX\Dev-Cpp\TDM-GCC3264\x86_64-w64-mingw32\lib/libkernel32.a(dwdrs00629.o)
 .bss           0x0000000000000000        0x0 D:\CODEX\Dev-Cpp\TDM-GCC3264\x86_64-w64-mingw32\lib/libkernel32.a(dwdrs00629.o)
 .text          0x0000000000000000        0x8 D:\CODEX\Dev-Cpp\TDM-GCC3264\x86_64-w64-mingw32\lib/libkernel32.a(dwdrs00626.o)
 .data          0x0000000000000000        0x0 D:\CODEX\Dev-Cpp\TDM-GCC3264\x86_64-w64-mingw32\lib/libkernel32.a(dwdrs00626.o)
 .bss           0x0000000000000000        0x0 D:\CODEX\Dev-Cpp\TDM-GCC3264\x86_64-w64-mingw32\lib/libkernel32.a(dwdrs00626.o)
 .text          0x0000000000000000        0x8 D:\CODEX\Dev-Cpp\TDM-GCC3264\x86_64-w64-mingw32\lib/libkernel32.a(dwdrs00556.o)
 .data          0x0000000000000000        0x0 D:\CODEX\Dev-Cpp\TDM-GCC3264\x86_64-w64-mingw32\lib/libkernel32.a(dwdrs00556.o)
 .bss           0x0000000000000000        0x0 D:\CODEX\Dev-Cpp\TDM-GCC3264\x86_64-w64-mingw32\lib/libkernel32.a(dwdrs00556.o)
 .text          0x0000000000000000        0x8 D:\CODEX\Dev-Cpp\TDM-GCC3264\x86_64-w64-mingw32\lib/libkernel32.a(dwdrs00555.o)
 .data          0x0000000000000000        0x0 D:\CODEX\Dev-Cpp\TDM-GCC3264\x86_64-w64-mingw32\lib/libkernel32.a(dwdrs00555.o)
 .bss           0x0000000000000000        0x0 D:\CODEX\Dev-Cpp\TDM-GCC3264\x86_64-w64-mingw32\lib/libkernel32.a(dwdrs00555.o)
 .text          0x0000000000000000        0x8 D:\CODEX\Dev-Cpp\TDM-GCC3264\x86_64-w64-mingw32\lib/libkernel32.a(dwdrs00552.o)
 .data          0x0000000000000000        0x0 D:\CODEX\Dev-Cpp\TDM-GCC3264\x86_64-w64-mingw32\lib/libkernel32.a(dwdrs00552.o)
 .bss           0x0000000000000000        0x0 D:\CODEX\Dev-Cpp\TDM-GCC3264\x86_64-w64-mingw32\lib/libkernel32.a(dwdrs00552.o)
 .text          0x0000000000000000        0x8 D:\CODEX\Dev-Cpp\TDM-GCC3264\x86_64-w64-mingw32\lib/libkernel32.a(dwdrs00551.o)
 .data          0x0000000000000000        0x0 D:\CODEX\Dev-Cpp\TDM-GCC3264\x86_64-w64-mingw32\lib/libkernel32.a(dwdrs00551.o)
 .bss           0x0000000000000000        0x0 D:\CODEX\Dev-Cpp\TDM-GCC3264\x86_64-w64-mingw32\lib/libkernel32.a(dwdrs00551.o)
 .text          0x0000000000000000        0x8 D:\CODEX\Dev-Cpp\TDM-GCC3264\x86_64-w64-mingw32\lib/libkernel32.a(dwdrs00459.o)
 .data          0x0000000000000000        0x0 D:\CODEX\Dev-Cpp\TDM-GCC3264\x86_64-w64-mingw32\lib/libkernel32.a(dwdrs00459.o)
 .bss           0x0000000000000000        0x0 D:\CODEX\Dev-Cpp\TDM-GCC3264\x86_64-w64-mingw32\lib/libkernel32.a(dwdrs00459.o)
 .text          0x0000000000000000        0x8 D:\CODEX\Dev-Cpp\TDM-GCC3264\x86_64-w64-mingw32\lib/libkernel32.a(dwdrs00437.o)
 .data          0x0000000000000000        0x0 D:\CODEX\Dev-Cpp\TDM-GCC3264\x86_64-w64-mingw32\lib/libkernel32.a(dwdrs00437.o)
 .bss           0x0000000000000000        0x0 D:\CODEX\Dev-Cpp\TDM-GCC3264\x86_64-w64-mingw32\lib/libkernel32.a(dwdrs00437.o)
 .text          0x0000000000000000        0x8 D:\CODEX\Dev-Cpp\TDM-GCC3264\x86_64-w64-mingw32\lib/libkernel32.a(dwdrs00386.o)
 .data          0x0000000000000000        0x0 D:\CODEX\Dev-Cpp\TDM-GCC3264\x86_64-w64-mingw32\lib/libkernel32.a(dwdrs00386.o)
 .bss           0x0000000000000000        0x0 D:\CODEX\Dev-Cpp\TDM-GCC3264\x86_64-w64-mingw32\lib/libkernel32.a(dwdrs00386.o)
 .text          0x0000000000000000        0x8 D:\CODEX\Dev-Cpp\TDM-GCC3264\x86_64-w64-mingw32\lib/libkernel32.a(dwdrs00318.o)
 .data          0x0000000000000000        0x0 D:\CODEX\Dev-Cpp\TDM-GCC3264\x86_64-w64-mingw32\lib/libkernel32.a(dwdrs00318.o)
 .bss           0x0000000000000000        0x0 D:\CODEX\Dev-Cpp\TDM-GCC3264\x86_64-w64-mingw32\lib/libkernel32.a(dwdrs00318.o)
 .text          0x0000000000000000        0x8 D:\CODEX\Dev-Cpp\TDM-GCC3264\x86_64-w64-mingw32\lib/libkernel32.a(dwdrs00312.o)
 .data          0x0000000000000000        0x0 D:\CODEX\Dev-Cpp\TDM-GCC3264\x86_64-w64-mingw32\lib/libkernel32.a(dwdrs00312.o)
 .bss           0x0000000000000000        0x0 D:\CODEX\Dev-Cpp\TDM-GCC3264\x86_64-w64-mingw32\lib/libkernel32.a(dwdrs00312.o)
 .text          0x0000000000000000        0x8 D:\CODEX\Dev-Cpp\TDM-GCC3264\x86_64-w64-mingw32\lib/libkernel32.a(dwdrs00282.o)
 .data          0x0000000000000000        0x0 D:\CODEX\Dev-Cpp\TDM-GCC3264\x86_64-w64-mingw32\lib/libkernel32.a(dwdrs00282.o)
 .bss           0x0000000000000000        0x0 D:\CODEX\Dev-Cpp\TDM-GCC3264\x86_64-w64-mingw32\lib/libkernel32.a(dwdrs00282.o)
 .text          0x0000000000000000        0x8 D:\CODEX\Dev-Cpp\TDM-GCC3264\x86_64-w64-mingw32\lib/libkernel32.a(dwdrs00280.o)
 .data          0x0000000000000000        0x0 D:\CODEX\Dev-Cpp\TDM-GCC3264\x86_64-w64-mingw32\lib/libkernel32.a(dwdrs00280.o)
 .bss           0x0000000000000000        0x0 D:\CODEX\Dev-Cpp\TDM-GCC3264\x86_64-w64-mingw32\lib/libkernel32.a(dwdrs00280.o)
 .text          0x0000000000000000        0x8 D:\CODEX\Dev-Cpp\TDM-GCC3264\x86_64-w64-mingw32\lib/libkernel32.a(dwdrs00242.o)
 .data          0x0000000000000000        0x0 D:\CODEX\Dev-Cpp\TDM-GCC3264\x86_64-w64-mingw32\lib/libkernel32.a(dwdrs00242.o)
 .bss           0x0000000000000000        0x0 D:\CODEX\Dev-Cpp\TDM-GCC3264\x86_64-w64-mingw32\lib/libkernel32.a(dwdrs00242.o)
 .text          0x0000000000000000        0x8 D:\CODEX\Dev-Cpp\TDM-GCC3264\x86_64-w64-mingw32\lib/libkernel32.a(dwdrs00223.o)
 .data          0x0000000000000000        0x0 D:\CODEX\Dev-Cpp\TDM-GCC3264\x86_64-w64-mingw32\lib/libkernel32.a(dwdrs00223.o)
 .bss           0x0000000000000000        0x0 D:\CODEX\Dev-Cpp\TDM-GCC3264\x86_64-w64-mingw32\lib/libkernel32.a(dwdrs00223.o)
 .text          0x0000000000000000        0x8 D:\CODEX\Dev-Cpp\TDM-GCC3264\x86_64-w64-mingw32\lib/libkernel32.a(dwdrs00196.o)
 .data          0x0000000000000000        0x0 D:\CODEX\Dev-Cpp\TDM-GCC3264\x86_64-w64-mingw32\lib/libkernel32.a(dwdrs00196.o)
 .bss           0x0000000000000000        0x0 D:\CODEX\Dev-Cpp\TDM-GCC3264\x86_64-w64-mingw32\lib/libkernel32.a(dwdrs00196.o)
 .text          0x0000000000000000        0x8 D:\CODEX\Dev-Cpp\TDM-GCC3264\x86_64-w64-mingw32\lib/libkernel32.a(dwdrs00140.o)
 .data          0x0000000000000000        0x0 D:\CODEX\Dev-Cpp\TDM-GCC3264\x86_64-w64-mingw32\lib/libkernel32.a(dwdrs00140.o)
 .bss           0x0000000000000000        0x0 D:\CODEX\Dev-Cpp\TDM-GCC3264\x86_64-w64-mingw32\lib/libkernel32.a(dwdrs00140.o)
 .text          0x0000000000000000        0x8 D:\CODEX\Dev-Cpp\TDM-GCC3264\x86_64-w64-mingw32\lib/libkernel32.a(dwdrs00019.o)
 .data          0x0000000000000000        0x0 D:\CODEX\Dev-Cpp\TDM-GCC3264\x86_64-w64-mingw32\lib/libkernel32.a(dwdrs00019.o)
 .bss           0x0000000000000000        0x0 D:\CODEX\Dev-Cpp\TDM-GCC3264\x86_64-w64-mingw32\lib/libkernel32.a(dwdrs00019.o)
 .text          0x0000000000000000        0x8 D:\CODEX\Dev-Cpp\TDM-GCC3264\x86_64-w64-mingw32\lib/libkernel32.a(dwdrs00004.o)
 .data          0x0000000000000000        0x0 D:\CODEX\Dev-Cpp\TDM-GCC3264\x86_64-w64-mingw32\lib/libkernel32.a(dwdrs00004.o)
 .bss           0x0000000000000000        0x0 D:\CODEX\Dev-Cpp\TDM-GCC3264\x86_64-w64-mingw32\lib/libkernel32.a(dwdrs00004.o)
 .text          0x0000000000000000        0x0 D:\CODEX\Dev-Cpp\TDM-GCC3264\x86_64-w64-mingw32\lib/libmingwex.a(lib64_libmingwex_a-mingw_matherr.o)
 .bss           0x0000000000000000        0x0 D:\CODEX\Dev-Cpp\TDM-GCC3264\x86_64-w64-mingw32\lib/libmingwex.a(lib64_libmingwex_a-mingw_matherr.o)
 .debug_info    0x0000000000000000      0x107 D:\CODEX\Dev-Cpp\TDM-GCC3264\x86_64-w64-mingw32\lib/libmingwex.a(lib64_libmingwex_a-mingw_matherr.o)
 .debug_abbrev  0x0000000000000000       0x2e D:\CODEX\Dev-Cpp\TDM-GCC3264\x86_64-w64-mingw32\lib/libmingwex.a(lib64_libmingwex_a-mingw_matherr.o)
 .debug_aranges
                0x0000000000000000       0x20 D:\CODEX\Dev-Cpp\TDM-GCC3264\x86_64-w64-mingw32\lib/libmingwex.a(lib64_libmingwex_a-mingw_matherr.o)
 .debug_line    0x0000000000000000       0x64 D:\CODEX\Dev-Cpp\TDM-GCC3264\x86_64-w64-mingw32\lib/libmingwex.a(lib64_libmingwex_a-mingw_matherr.o)
 .debug_str     0x0000000000000000        0x0 D:\CODEX\Dev-Cpp\TDM-GCC3264\x86_64-w64-mingw32\lib/libmingwex.a(lib64_libmingwex_a-mingw_matherr.o)
 .rdata$zzz     0x0000000000000000       0x20 D:\CODEX\Dev-Cpp\TDM-GCC3264\x86_64-w64-mingw32\lib/libmingwex.a(lib64_libmingwex_a-mingw_matherr.o)
 .data          0x0000000000000000        0x0 D:\CODEX\Dev-Cpp\TDM-GCC3264\x86_64-w64-mingw32\lib/libmingwex.a(lib64_libmingwex_a-mingw_vfprintfw.o)
 .bss           0x0000000000000000        0x0 D:\CODEX\Dev-Cpp\TDM-GCC3264\x86_64-w64-mingw32\lib/libmingwex.a(lib64_libmingwex_a-mingw_vfprintfw.o)
 .debug_frame   0x0000000000000000       0x78 D:\CODEX\Dev-Cpp\TDM-GCC3264\x86_64-w64-mingw32\lib/libmingwex.a(lib64_libmingwex_a-mingw_vfprintfw.o)
 .debug_info    0x0000000000000000      0x384 D:\CODEX\Dev-Cpp\TDM-GCC3264\x86_64-w64-mingw32\lib/libmingwex.a(lib64_libmingwex_a-mingw_vfprintfw.o)
 .debug_abbrev  0x0000000000000000       0xfb D:\CODEX\Dev-Cpp\TDM-GCC3264\x86_64-w64-mingw32\lib/libmingwex.a(lib64_libmingwex_a-mingw_vfprintfw.o)
 .debug_loc     0x0000000000000000      0x145 D:\CODEX\Dev-Cpp\TDM-GCC3264\x86_64-w64-mingw32\lib/libmingwex.a(lib64_libmingwex_a-mingw_vfprintfw.o)
 .debug_aranges
                0x0000000000000000       0x30 D:\CODEX\Dev-Cpp\TDM-GCC3264\x86_64-w64-mingw32\lib/libmingwex.a(lib64_libmingwex_a-mingw_vfprintfw.o)
 .debug_line    0x0000000000000000      0x102 D:\CODEX\Dev-Cpp\TDM-GCC3264\x86_64-w64-mingw32\lib/libmingwex.a(lib64_libmingwex_a-mingw_vfprintfw.o)
 .debug_str     0x0000000000000000       0x29 D:\CODEX\Dev-Cpp\TDM-GCC3264\x86_64-w64-mingw32\lib/libmingwex.a(lib64_libmingwex_a-mingw_vfprintfw.o)
 .rdata$zzz     0x0000000000000000       0x20 D:\CODEX\Dev-Cpp\TDM-GCC3264\x86_64-w64-mingw32\lib/libmingwex.a(lib64_libmingwex_a-mingw_vfprintfw.o)
 .data          0x0000000000000000        0x0 D:\CODEX\Dev-Cpp\TDM-GCC3264\x86_64-w64-mingw32\lib/libmingwex.a(lib64_libmingwex_a-mingw_vsprintf.o)
 .bss           0x0000000000000000        0x0 D:\CODEX\Dev-Cpp\TDM-GCC3264\x86_64-w64-mingw32\lib/libmingwex.a(lib64_libmingwex_a-mingw_vsprintf.o)
 .debug_frame   0x0000000000000000       0x50 D:\CODEX\Dev-Cpp\TDM-GCC3264\x86_64-w64-mingw32\lib/libmingwex.a(lib64_libmingwex_a-mingw_vsprintf.o)
 .debug_info    0x0000000000000000      0x284 D:\CODEX\Dev-Cpp\TDM-GCC3264\x86_64-w64-mingw32\lib/libmingwex.a(lib64_libmingwex_a-mingw_vsprintf.o)
 .debug_abbrev  0x0000000000000000       0xb9 D:\CODEX\Dev-Cpp\TDM-GCC3264\x86_64-w64-mingw32\lib/libmingwex.a(lib64_libmingwex_a-mingw_vsprintf.o)
 .debug_loc     0x0000000000000000      0x131 D:\CODEX\Dev-Cpp\TDM-GCC3264\x86_64-w64-mingw32\lib/libmingwex.a(lib64_libmingwex_a-mingw_vsprintf.o)
 .debug_aranges
                0x0000000000000000       0x30 D:\CODEX\Dev-Cpp\TDM-GCC3264\x86_64-w64-mingw32\lib/libmingwex.a(lib64_libmingwex_a-mingw_vsprintf.o)
 .debug_line    0x0000000000000000       0xe6 D:\CODEX\Dev-Cpp\TDM-GCC3264\x86_64-w64-mingw32\lib/libmingwex.a(lib64_libmingwex_a-mingw_vsprintf.o)
 .debug_str     0x0000000000000000       0x10 D:\CODEX\Dev-Cpp\TDM-GCC3264\x86_64-w64-mingw32\lib/libmingwex.a(lib64_libmingwex_a-mingw_vsprintf.o)
 .rdata$zzz     0x0000000000000000       0x20 D:\CODEX\Dev-Cpp\TDM-GCC3264\x86_64-w64-mingw32\lib/libmingwex.a(lib64_libmingwex_a-mingw_vsprintf.o)
 .bss           0x0000000000000000        0x0 D:\CODEX\Dev-Cpp\TDM-GCC3264\x86_64-w64-mingw32\lib/libmingwex.a(lib64_libmingwex_a-mingw_pformat.o)
 .debug_frame   0x0000000000000000      0x7d8 D:\CODEX\Dev-Cpp\TDM-GCC3264\x86_64-w64-mingw32\lib/libmingwex.a(lib64_libmingwex_a-mingw_pformat.o)
 .debug_info    0x0000000000000000     0x2b88 D:\CODEX\Dev-Cpp\TDM-GCC3264\x86_64-w64-mingw32\lib/libmingwex.a(lib64_libmingwex_a-mingw_pformat.o)
 .debug_abbrev  0x0000000000000000      0x47d D:\CODEX\Dev-Cpp\TDM-GCC3264\x86_64-w64-mingw32\lib/libmingwex.a(lib64_libmingwex_a-mingw_pformat.o)
 .debug_loc     0x0000000000000000     0x4cee D:\CODEX\Dev-Cpp\TDM-GCC3264\x86_64-w64-mingw32\lib/libmingwex.a(lib64_libmingwex_a-mingw_pformat.o)
 .debug_aranges
                0x0000000000000000       0x30 D:\CODEX\Dev-Cpp\TDM-GCC3264\x86_64-w64-mingw32\lib/libmingwex.a(lib64_libmingwex_a-mingw_pformat.o)
 .debug_ranges  0x0000000000000000      0x850 D:\CODEX\Dev-Cpp\TDM-GCC3264\x86_64-w64-mingw32\lib/libmingwex.a(lib64_libmingwex_a-mingw_pformat.o)
 .debug_line    0x0000000000000000     0x21ed D:\CODEX\Dev-Cpp\TDM-GCC3264\x86_64-w64-mingw32\lib/libmingwex.a(lib64_libmingwex_a-mingw_pformat.o)
 .debug_str     0x0000000000000000       0x83 D:\CODEX\Dev-Cpp\TDM-GCC3264\x86_64-w64-mingw32\lib/libmingwex.a(lib64_libmingwex_a-mingw_pformat.o)
 .rdata$zzz     0x0000000000000000       0x20 D:\CODEX\Dev-Cpp\TDM-GCC3264\x86_64-w64-mingw32\lib/libmingwex.a(lib64_libmingwex_a-mingw_pformat.o)
 .bss           0x0000000000000000        0x0 D:\CODEX\Dev-Cpp\TDM-GCC3264\x86_64-w64-mingw32\lib/libmingwex.a(lib64_libmingwex_a-mingw_pformatw.o)
 .debug_frame   0x0000000000000000      0x798 D:\CODEX\Dev-Cpp\TDM-GCC3264\x86_64-w64-mingw32\lib/libmingwex.a(lib64_libmingwex_a-mingw_pformatw.o)
 .debug_info    0x0000000000000000     0x2c08 D:\CODEX\Dev-Cpp\TDM-GCC3264\x86_64-w64-mingw32\lib/libmingwex.a(lib64_libmingwex_a-mingw_pformatw.o)
 .debug_abbrev  0x0000000000000000      0x488 D:\CODEX\Dev-Cpp\TDM-GCC3264\x86_64-w64-mingw32\lib/libmingwex.a(lib64_libmingwex_a-mingw_pformatw.o)
 .debug_loc     0x0000000000000000     0x4a15 D:\CODEX\Dev-Cpp\TDM-GCC3264\x86_64-w64-mingw32\lib/libmingwex.a(lib64_libmingwex_a-mingw_pformatw.o)
 .debug_aranges
                0x0000000000000000       0x30 D:\CODEX\Dev-Cpp\TDM-GCC3264\x86_64-w64-mingw32\lib/libmingwex.a(lib64_libmingwex_a-mingw_pformatw.o)
 .debug_ranges  0x0000000000000000      0x7a0 D:\CODEX\Dev-Cpp\TDM-GCC3264\x86_64-w64-mingw32\lib/libmingwex.a(lib64_libmingwex_a-mingw_pformatw.o)
 .debug_line    0x0000000000000000     0x210a D:\CODEX\Dev-Cpp\TDM-GCC3264\x86_64-w64-mingw32\lib/libmingwex.a(lib64_libmingwex_a-mingw_pformatw.o)
 .debug_str     0x0000000000000000       0x8b D:\CODEX\Dev-Cpp\TDM-GCC3264\x86_64-w64-mingw32\lib/libmingwex.a(lib64_libmingwex_a-mingw_pformatw.o)
 .rdata$zzz     0x0000000000000000       0x20 D:\CODEX\Dev-Cpp\TDM-GCC3264\x86_64-w64-mingw32\lib/libmingwex.a(lib64_libmingwex_a-mingw_pformatw.o)
 .data          0x0000000000000000        0x0 D:\CODEX\Dev-Cpp\TDM-GCC3264\x86_64-w64-mingw32\lib/libmingwex.a(lib64_libmingwex_a-dmisc.o)
 .bss           0x0000000000000000        0x0 D:\CODEX\Dev-Cpp\TDM-GCC3264\x86_64-w64-mingw32\lib/libmingwex.a(lib64_libmingwex_a-dmisc.o)
 .debug_frame   0x0000000000000000      0x180 D:\CODEX\Dev-Cpp\TDM-GCC3264\x86_64-w64-mingw32\lib/libmingwex.a(lib64_libmingwex_a-dmisc.o)
 .debug_info    0x0000000000000000      0x5ae D:\CODEX\Dev-Cpp\TDM-GCC3264\x86_64-w64-mingw32\lib/libmingwex.a(lib64_libmingwex_a-dmisc.o)
 .debug_abbrev  0x0000000000000000      0x19b D:\CODEX\Dev-Cpp\TDM-GCC3264\x86_64-w64-mingw32\lib/libmingwex.a(lib64_libmingwex_a-dmisc.o)
 .debug_loc     0x0000000000000000      0xa59 D:\CODEX\Dev-Cpp\TDM-GCC3264\x86_64-w64-mingw32\lib/libmingwex.a(lib64_libmingwex_a-dmisc.o)
 .debug_aranges
                0x0000000000000000       0x30 D:\CODEX\Dev-Cpp\TDM-GCC3264\x86_64-w64-mingw32\lib/libmingwex.a(lib64_libmingwex_a-dmisc.o)
 .debug_ranges  0x0000000000000000       0x60 D:\CODEX\Dev-Cpp\TDM-GCC3264\x86_64-w64-mingw32\lib/libmingwex.a(lib64_libmingwex_a-dmisc.o)
 .debug_line    0x0000000000000000      0x3e7 D:\CODEX\Dev-Cpp\TDM-GCC3264\x86_64-w64-mingw32\lib/libmingwex.a(lib64_libmingwex_a-dmisc.o)
 .debug_str     0x0000000000000000       0x2c D:\CODEX\Dev-Cpp\TDM-GCC3264\x86_64-w64-mingw32\lib/libmingwex.a(lib64_libmingwex_a-dmisc.o)
 .rdata$zzz     0x0000000000000000       0x20 D:\CODEX\Dev-Cpp\TDM-GCC3264\x86_64-w64-mingw32\lib/libmingwex.a(lib64_libmingwex_a-dmisc.o)
 .data          0x0000000000000000        0x0 D:\CODEX\Dev-Cpp\TDM-GCC3264\x86_64-w64-mingw32\lib/libmingwex.a(lib64_libmingwex_a-gdtoa.o)
 .bss           0x0000000000000000        0x0 D:\CODEX\Dev-Cpp\TDM-GCC3264\x86_64-w64-mingw32\lib/libmingwex.a(lib64_libmingwex_a-gdtoa.o)
 .debug_frame   0x0000000000000000      0x128 D:\CODEX\Dev-Cpp\TDM-GCC3264\x86_64-w64-mingw32\lib/libmingwex.a(lib64_libmingwex_a-gdtoa.o)
 .debug_info    0x0000000000000000     0x1169 D:\CODEX\Dev-Cpp\TDM-GCC3264\x86_64-w64-mingw32\lib/libmingwex.a(lib64_libmingwex_a-gdtoa.o)
 .debug_abbrev  0x0000000000000000      0x29d D:\CODEX\Dev-Cpp\TDM-GCC3264\x86_64-w64-mingw32\lib/libmingwex.a(lib64_libmingwex_a-gdtoa.o)
 .debug_loc     0x0000000000000000     0x5537 D:\CODEX\Dev-Cpp\TDM-GCC3264\x86_64-w64-mingw32\lib/libmingwex.a(lib64_libmingwex_a-gdtoa.o)
 .debug_aranges
                0x0000000000000000       0x30 D:\CODEX\Dev-Cpp\TDM-GCC3264\x86_64-w64-mingw32\lib/libmingwex.a(lib64_libmingwex_a-gdtoa.o)
 .debug_ranges  0x0000000000000000       0xa0 D:\CODEX\Dev-Cpp\TDM-GCC3264\x86_64-w64-mingw32\lib/libmingwex.a(lib64_libmingwex_a-gdtoa.o)
 .debug_line    0x0000000000000000     0x11d6 D:\CODEX\Dev-Cpp\TDM-GCC3264\x86_64-w64-mingw32\lib/libmingwex.a(lib64_libmingwex_a-gdtoa.o)
 .debug_str     0x0000000000000000       0xc6 D:\CODEX\Dev-Cpp\TDM-GCC3264\x86_64-w64-mingw32\lib/libmingwex.a(lib64_libmingwex_a-gdtoa.o)
 .rdata$zzz     0x0000000000000000       0x20 D:\CODEX\Dev-Cpp\TDM-GCC3264\x86_64-w64-mingw32\lib/libmingwex.a(lib64_libmingwex_a-gdtoa.o)
 .data          0x0000000000000000        0x0 D:\CODEX\Dev-Cpp\TDM-GCC3264\x86_64-w64-mingw32\lib/libmingwex.a(lib64_libmingwex_a-gmisc.o)
 .bss           0x0000000000000000        0x0 D:\CODEX\Dev-Cpp\TDM-GCC3264\x86_64-w64-mingw32\lib/libmingwex.a(lib64_libmingwex_a-gmisc.o)
 .debug_frame   0x0000000000000000       0xd8 D:\CODEX\Dev-Cpp\TDM-GCC3264\x86_64-w64-mingw32\lib/libmingwex.a(lib64_libmingwex_a-gmisc.o)
 .debug_info    0x0000000000000000      0x3cb D:\CODEX\Dev-Cpp\TDM-GCC3264\x86_64-w64-mingw32\lib/libmingwex.a(lib64_libmingwex_a-gmisc.o)
 .debug_abbrev  0x0000000000000000      0x13b D:\CODEX\Dev-Cpp\TDM-GCC3264\x86_64-w64-mingw32\lib/libmingwex.a(lib64_libmingwex_a-gmisc.o)
 .debug_loc     0x0000000000000000      0x55e D:\CODEX\Dev-Cpp\TDM-GCC3264\x86_64-w64-mingw32\lib/libmingwex.a(lib64_libmingwex_a-gmisc.o)
 .debug_aranges
                0x0000000000000000       0x30 D:\CODEX\Dev-Cpp\TDM-GCC3264\x86_64-w64-mingw32\lib/libmingwex.a(lib64_libmingwex_a-gmisc.o)
 .debug_line    0x0000000000000000      0x217 D:\CODEX\Dev-Cpp\TDM-GCC3264\x86_64-w64-mingw32\lib/libmingwex.a(lib64_libmingwex_a-gmisc.o)
 .debug_str     0x0000000000000000        0x9 D:\CODEX\Dev-Cpp\TDM-GCC3264\x86_64-w64-mingw32\lib/libmingwex.a(lib64_libmingwex_a-gmisc.o)
 .rdata$zzz     0x0000000000000000       0x20 D:\CODEX\Dev-Cpp\TDM-GCC3264\x86_64-w64-mingw32\lib/libmingwex.a(lib64_libmingwex_a-gmisc.o)
 .debug_frame   0x0000000000000000      0x620 D:\CODEX\Dev-Cpp\TDM-GCC3264\x86_64-w64-mingw32\lib/libmingwex.a(lib64_libmingwex_a-misc.o)
 .debug_info    0x0000000000000000     0x1ad3 D:\CODEX\Dev-Cpp\TDM-GCC3264\x86_64-w64-mingw32\lib/libmingwex.a(lib64_libmingwex_a-misc.o)
 .debug_abbrev  0x0000000000000000      0x43a D:\CODEX\Dev-Cpp\TDM-GCC3264\x86_64-w64-mingw32\lib/libmingwex.a(lib64_libmingwex_a-misc.o)
 .debug_loc     0x0000000000000000     0x2d2f D:\CODEX\Dev-Cpp\TDM-GCC3264\x86_64-w64-mingw32\lib/libmingwex.a(lib64_libmingwex_a-misc.o)
 .debug_aranges
                0x0000000000000000       0x30 D:\CODEX\Dev-Cpp\TDM-GCC3264\x86_64-w64-mingw32\lib/libmingwex.a(lib64_libmingwex_a-misc.o)
 .debug_ranges  0x0000000000000000      0x3b0 D:\CODEX\Dev-Cpp\TDM-GCC3264\x86_64-w64-mingw32\lib/libmingwex.a(lib64_libmingwex_a-misc.o)
 .debug_line    0x0000000000000000     0x1014 D:\CODEX\Dev-Cpp\TDM-GCC3264\x86_64-w64-mingw32\lib/libmingwex.a(lib64_libmingwex_a-misc.o)
 .debug_str     0x0000000000000000       0x70 D:\CODEX\Dev-Cpp\TDM-GCC3264\x86_64-w64-mingw32\lib/libmingwex.a(lib64_libmingwex_a-misc.o)
 .rdata$zzz     0x0000000000000000       0x20 D:\CODEX\Dev-Cpp\TDM-GCC3264\x86_64-w64-mingw32\lib/libmingwex.a(lib64_libmingwex_a-misc.o)
 .data          0x0000000000000000        0x0 D:\CODEX\Dev-Cpp\TDM-GCC3264\x86_64-w64-mingw32\lib/libmingwex.a(lib64_libmingwex_a-strnlen.o)
 .bss           0x0000000000000000        0x0 D:\CODEX\Dev-Cpp\TDM-GCC3264\x86_64-w64-mingw32\lib/libmingwex.a(lib64_libmingwex_a-strnlen.o)
 .debug_frame   0x0000000000000000       0x30 D:\CODEX\Dev-Cpp\TDM-GCC3264\x86_64-w64-mingw32\lib/libmingwex.a(lib64_libmingwex_a-strnlen.o)
 .debug_info    0x0000000000000000      0x1de D:\CODEX\Dev-Cpp\TDM-GCC3264\x86_64-w64-mingw32\lib/libmingwex.a(lib64_libmingwex_a-strnlen.o)
 .debug_abbrev  0x0000000000000000       0x81 D:\CODEX\Dev-Cpp\TDM-GCC3264\x86_64-w64-mingw32\lib/libmingwex.a(lib64_libmingwex_a-strnlen.o)
 .debug_loc     0x0000000000000000       0x3a D:\CODEX\Dev-Cpp\TDM-GCC3264\x86_64-w64-mingw32\lib/libmingwex.a(lib64_libmingwex_a-strnlen.o)
 .debug_aranges
                0x0000000000000000       0x30 D:\CODEX\Dev-Cpp\TDM-GCC3264\x86_64-w64-mingw32\lib/libmingwex.a(lib64_libmingwex_a-strnlen.o)
 .debug_line    0x0000000000000000       0xd4 D:\CODEX\Dev-Cpp\TDM-GCC3264\x86_64-w64-mingw32\lib/libmingwex.a(lib64_libmingwex_a-strnlen.o)
 .debug_str     0x0000000000000000        0x0 D:\CODEX\Dev-Cpp\TDM-GCC3264\x86_64-w64-mingw32\lib/libmingwex.a(lib64_libmingwex_a-strnlen.o)
 .rdata$zzz     0x0000000000000000       0x20 D:\CODEX\Dev-Cpp\TDM-GCC3264\x86_64-w64-mingw32\lib/libmingwex.a(lib64_libmingwex_a-strnlen.o)
 .data          0x0000000000000000        0x0 D:\CODEX\Dev-Cpp\TDM-GCC3264\x86_64-w64-mingw32\lib/libmingwex.a(lib64_libmingwex_a-wcsnlen.o)
 .bss           0x0000000000000000        0x0 D:\CODEX\Dev-Cpp\TDM-GCC3264\x86_64-w64-mingw32\lib/libmingwex.a(lib64_libmingwex_a-wcsnlen.o)
 .debug_frame   0x0000000000000000       0x30 D:\CODEX\Dev-Cpp\TDM-GCC3264\x86_64-w64-mingw32\lib/libmingwex.a(lib64_libmingwex_a-wcsnlen.o)
 .debug_info    0x0000000000000000      0x1f1 D:\CODEX\Dev-Cpp\TDM-GCC3264\x86_64-w64-mingw32\lib/libmingwex.a(lib64_libmingwex_a-wcsnlen.o)
 .debug_abbrev  0x0000000000000000       0x95 D:\CODEX\Dev-Cpp\TDM-GCC3264\x86_64-w64-mingw32\lib/libmingwex.a(lib64_libmingwex_a-wcsnlen.o)
 .debug_loc     0x0000000000000000       0x7c D:\CODEX\Dev-Cpp\TDM-GCC3264\x86_64-w64-mingw32\lib/libmingwex.a(lib64_libmingwex_a-wcsnlen.o)
 .debug_aranges
                0x0000000000000000       0x30 D:\CODEX\Dev-Cpp\TDM-GCC3264\x86_64-w64-mingw32\lib/libmingwex.a(lib64_libmingwex_a-wcsnlen.o)
 .debug_line    0x0000000000000000       0xef D:\CODEX\Dev-Cpp\TDM-GCC3264\x86_64-w64-mingw32\lib/libmingwex.a(lib64_libmingwex_a-wcsnlen.o)
 .debug_str     0x0000000000000000        0x0 D:\CODEX\Dev-Cpp\TDM-GCC3264\x86_64-w64-mingw32\lib/libmingwex.a(lib64_libmingwex_a-wcsnlen.o)
 .rdata$zzz     0x0000000000000000       0x20 D:\CODEX\Dev-Cpp\TDM-GCC3264\x86_64-w64-mingw32\lib/libmingwex.a(lib64_libmingwex_a-wcsnlen.o)
 .data          0x0000000000000000        0x0 D:\CODEX\Dev-Cpp\TDM-GCC3264\x86_64-w64-mingw32\lib/libmsvcrt.a(dcfxs01283.o)
 .bss           0x0000000000000000        0x0 D:\CODEX\Dev-Cpp\TDM-GCC3264\x86_64-w64-mingw32\lib/libmsvcrt.a(dcfxs01283.o)
 .data          0x0000000000000000        0x0 D:\CODEX\Dev-Cpp\TDM-GCC3264\x86_64-w64-mingw32\lib/libmsvcrt.a(dcfxs01258.o)
 .bss           0x0000000000000000        0x0 D:\CODEX\Dev-Cpp\TDM-GCC3264\x86_64-w64-mingw32\lib/libmsvcrt.a(dcfxs01258.o)
 .data          0x0000000000000000        0x0 D:\CODEX\Dev-Cpp\TDM-GCC3264\x86_64-w64-mingw32\lib/libmsvcrt.a(dcfxs01222.o)
 .bss           0x0000000000000000        0x0 D:\CODEX\Dev-Cpp\TDM-GCC3264\x86_64-w64-mingw32\lib/libmsvcrt.a(dcfxs01222.o)
 .data          0x0000000000000000        0x0 D:\CODEX\Dev-Cpp\TDM-GCC3264\x86_64-w64-mingw32\lib/libmsvcrt.a(dcfxs01219.o)
 .bss           0x0000000000000000        0x0 D:\CODEX\Dev-Cpp\TDM-GCC3264\x86_64-w64-mingw32\lib/libmsvcrt.a(dcfxs01219.o)
 .data          0x0000000000000000        0x0 D:\CODEX\Dev-Cpp\TDM-GCC3264\x86_64-w64-mingw32\lib/libmsvcrt.a(dcfxs01217.o)
 .bss           0x0000000000000000        0x0 D:\CODEX\Dev-Cpp\TDM-GCC3264\x86_64-w64-mingw32\lib/libmsvcrt.a(dcfxs01217.o)
 .data          0x0000000000000000        0x0 D:\CODEX\Dev-Cpp\TDM-GCC3264\x86_64-w64-mingw32\lib/libmsvcrt.a(dcfxs01212.o)
 .bss           0x0000000000000000        0x0 D:\CODEX\Dev-Cpp\TDM-GCC3264\x86_64-w64-mingw32\lib/libmsvcrt.a(dcfxs01212.o)
 .data          0x0000000000000000        0x0 D:\CODEX\Dev-Cpp\TDM-GCC3264\x86_64-w64-mingw32\lib/libmsvcrt.a(dcfxs01196.o)
 .bss           0x0000000000000000        0x0 D:\CODEX\Dev-Cpp\TDM-GCC3264\x86_64-w64-mingw32\lib/libmsvcrt.a(dcfxs01196.o)
 .data          0x0000000000000000        0x0 D:\CODEX\Dev-Cpp\TDM-GCC3264\x86_64-w64-mingw32\lib/libmsvcrt.a(dcfxs01187.o)
 .bss           0x0000000000000000        0x0 D:\CODEX\Dev-Cpp\TDM-GCC3264\x86_64-w64-mingw32\lib/libmsvcrt.a(dcfxs01187.o)
 .data          0x0000000000000000        0x0 D:\CODEX\Dev-Cpp\TDM-GCC3264\x86_64-w64-mingw32\lib/libmsvcrt.a(dcfxs01174.o)
 .bss           0x0000000000000000        0x0 D:\CODEX\Dev-Cpp\TDM-GCC3264\x86_64-w64-mingw32\lib/libmsvcrt.a(dcfxs01174.o)
 .data          0x0000000000000000        0x0 D:\CODEX\Dev-Cpp\TDM-GCC3264\x86_64-w64-mingw32\lib/libmsvcrt.a(dcfxs01166.o)
 .bss           0x0000000000000000        0x0 D:\CODEX\Dev-Cpp\TDM-GCC3264\x86_64-w64-mingw32\lib/libmsvcrt.a(dcfxs01166.o)
 .data          0x0000000000000000        0x0 D:\CODEX\Dev-Cpp\TDM-GCC3264\x86_64-w64-mingw32\lib/libmsvcrt.a(dcfxs01165.o)
 .bss           0x0000000000000000        0x0 D:\CODEX\Dev-Cpp\TDM-GCC3264\x86_64-w64-mingw32\lib/libmsvcrt.a(dcfxs01165.o)
 .data          0x0000000000000000        0x0 D:\CODEX\Dev-Cpp\TDM-GCC3264\x86_64-w64-mingw32\lib/libmsvcrt.a(dcfxs01164.o)
 .bss           0x0000000000000000        0x0 D:\CODEX\Dev-Cpp\TDM-GCC3264\x86_64-w64-mingw32\lib/libmsvcrt.a(dcfxs01164.o)
 .data          0x0000000000000000        0x0 D:\CODEX\Dev-Cpp\TDM-GCC3264\x86_64-w64-mingw32\lib/libmsvcrt.a(dcfxs01156.o)
 .bss           0x0000000000000000        0x0 D:\CODEX\Dev-Cpp\TDM-GCC3264\x86_64-w64-mingw32\lib/libmsvcrt.a(dcfxs01156.o)
 .text          0x0000000000000000        0x8 D:\CODEX\Dev-Cpp\TDM-GCC3264\x86_64-w64-mingw32\lib/libmsvcrt.a(dcfxs01155.o)
 .data          0x0000000000000000        0x0 D:\CODEX\Dev-Cpp\TDM-GCC3264\x86_64-w64-mingw32\lib/libmsvcrt.a(dcfxs01155.o)
 .bss           0x0000000000000000        0x0 D:\CODEX\Dev-Cpp\TDM-GCC3264\x86_64-w64-mingw32\lib/libmsvcrt.a(dcfxs01155.o)
 .data          0x0000000000000000        0x0 D:\CODEX\Dev-Cpp\TDM-GCC3264\x86_64-w64-mingw32\lib/libmsvcrt.a(dcfxs01149.o)
 .bss           0x0000000000000000        0x0 D:\CODEX\Dev-Cpp\TDM-GCC3264\x86_64-w64-mingw32\lib/libmsvcrt.a(dcfxs01149.o)
 .data          0x0000000000000000        0x0 D:\CODEX\Dev-Cpp\TDM-GCC3264\x86_64-w64-mingw32\lib/libmsvcrt.a(dcfxs01109.o)
 .bss           0x0000000000000000        0x0 D:\CODEX\Dev-Cpp\TDM-GCC3264\x86_64-w64-mingw32\lib/libmsvcrt.a(dcfxs01109.o)
 .data          0x0000000000000000        0x0 D:\CODEX\Dev-Cpp\TDM-GCC3264\x86_64-w64-mingw32\lib/libmsvcrt.a(dcfxs01106.o)
 .bss           0x0000000000000000        0x0 D:\CODEX\Dev-Cpp\TDM-GCC3264\x86_64-w64-mingw32\lib/libmsvcrt.a(dcfxs01106.o)
 .data          0x0000000000000000        0x0 D:\CODEX\Dev-Cpp\TDM-GCC3264\x86_64-w64-mingw32\lib/libmsvcrt.a(dcfxs01097.o)
 .bss           0x0000000000000000        0x0 D:\CODEX\Dev-Cpp\TDM-GCC3264\x86_64-w64-mingw32\lib/libmsvcrt.a(dcfxs01097.o)
 .data          0x0000000000000000        0x0 D:\CODEX\Dev-Cpp\TDM-GCC3264\x86_64-w64-mingw32\lib/libmsvcrt.a(dcfxs01094.o)
 .bss           0x0000000000000000        0x0 D:\CODEX\Dev-Cpp\TDM-GCC3264\x86_64-w64-mingw32\lib/libmsvcrt.a(dcfxs01094.o)
 .data          0x0000000000000000        0x0 D:\CODEX\Dev-Cpp\TDM-GCC3264\x86_64-w64-mingw32\lib/libmsvcrt.a(dcfxs01093.o)
 .bss           0x0000000000000000        0x0 D:\CODEX\Dev-Cpp\TDM-GCC3264\x86_64-w64-mingw32\lib/libmsvcrt.a(dcfxs01093.o)
 .data          0x0000000000000000        0x0 D:\CODEX\Dev-Cpp\TDM-GCC3264\x86_64-w64-mingw32\lib/libmsvcrt.a(dcfxs01092.o)
 .bss           0x0000000000000000        0x0 D:\CODEX\Dev-Cpp\TDM-GCC3264\x86_64-w64-mingw32\lib/libmsvcrt.a(dcfxs01092.o)
 .data          0x0000000000000000        0x0 D:\CODEX\Dev-Cpp\TDM-GCC3264\x86_64-w64-mingw32\lib/libmsvcrt.a(dcfxs01090.o)
 .bss           0x0000000000000000        0x0 D:\CODEX\Dev-Cpp\TDM-GCC3264\x86_64-w64-mingw32\lib/libmsvcrt.a(dcfxs01090.o)
 .data          0x0000000000000000        0x0 D:\CODEX\Dev-Cpp\TDM-GCC3264\x86_64-w64-mingw32\lib/libmsvcrt.a(dcfxs01068.o)
 .bss           0x0000000000000000        0x0 D:\CODEX\Dev-Cpp\TDM-GCC3264\x86_64-w64-mingw32\lib/libmsvcrt.a(dcfxs01068.o)
 .data          0x0000000000000000        0x0 D:\CODEX\Dev-Cpp\TDM-GCC3264\x86_64-w64-mingw32\lib/libmsvcrt.a(dcfxs01054.o)
 .bss           0x0000000000000000        0x0 D:\CODEX\Dev-Cpp\TDM-GCC3264\x86_64-w64-mingw32\lib/libmsvcrt.a(dcfxs01054.o)
 .data          0x0000000000000000        0x0 D:\CODEX\Dev-Cpp\TDM-GCC3264\x86_64-w64-mingw32\lib/libmsvcrt.a(dcfxs01037.o)
 .bss           0x0000000000000000        0x0 D:\CODEX\Dev-Cpp\TDM-GCC3264\x86_64-w64-mingw32\lib/libmsvcrt.a(dcfxs01037.o)
 .data          0x0000000000000000        0x0 D:\CODEX\Dev-Cpp\TDM-GCC3264\x86_64-w64-mingw32\lib/libmsvcrt.a(dcfxs00991.o)
 .bss           0x0000000000000000        0x0 D:\CODEX\Dev-Cpp\TDM-GCC3264\x86_64-w64-mingw32\lib/libmsvcrt.a(dcfxs00991.o)
 .text          0x0000000000000000        0x8 D:\CODEX\Dev-Cpp\TDM-GCC3264\x86_64-w64-mingw32\lib/libmsvcrt.a(dcfxs00809.o)
 .data          0x0000000000000000        0x0 D:\CODEX\Dev-Cpp\TDM-GCC3264\x86_64-w64-mingw32\lib/libmsvcrt.a(dcfxs00809.o)
 .bss           0x0000000000000000        0x0 D:\CODEX\Dev-Cpp\TDM-GCC3264\x86_64-w64-mingw32\lib/libmsvcrt.a(dcfxs00809.o)
 .data          0x0000000000000000        0x0 D:\CODEX\Dev-Cpp\TDM-GCC3264\x86_64-w64-mingw32\lib/libmsvcrt.a(dcfxs00734.o)
 .bss           0x0000000000000000        0x0 D:\CODEX\Dev-Cpp\TDM-GCC3264\x86_64-w64-mingw32\lib/libmsvcrt.a(dcfxs00734.o)
 .data          0x0000000000000000        0x0 D:\CODEX\Dev-Cpp\TDM-GCC3264\x86_64-w64-mingw32\lib/libmsvcrt.a(dcfxs00672.o)
 .bss           0x0000000000000000        0x0 D:\CODEX\Dev-Cpp\TDM-GCC3264\x86_64-w64-mingw32\lib/libmsvcrt.a(dcfxs00672.o)
 .data          0x0000000000000000        0x0 D:\CODEX\Dev-Cpp\TDM-GCC3264\x86_64-w64-mingw32\lib/libmsvcrt.a(dcfxs00615.o)
 .bss           0x0000000000000000        0x0 D:\CODEX\Dev-Cpp\TDM-GCC3264\x86_64-w64-mingw32\lib/libmsvcrt.a(dcfxs00615.o)
 .data          0x0000000000000000        0x0 D:\CODEX\Dev-Cpp\TDM-GCC3264\x86_64-w64-mingw32\lib/libmsvcrt.a(dcfxs00602.o)
 .bss           0x0000000000000000        0x0 D:\CODEX\Dev-Cpp\TDM-GCC3264\x86_64-w64-mingw32\lib/libmsvcrt.a(dcfxs00602.o)
 .data          0x0000000000000000        0x0 D:\CODEX\Dev-Cpp\TDM-GCC3264\x86_64-w64-mingw32\lib/libmsvcrt.a(dcfxs00332.o)
 .bss           0x0000000000000000        0x0 D:\CODEX\Dev-Cpp\TDM-GCC3264\x86_64-w64-mingw32\lib/libmsvcrt.a(dcfxs00332.o)
 .data          0x0000000000000000        0x0 D:\CODEX\Dev-Cpp\TDM-GCC3264\x86_64-w64-mingw32\lib/libmsvcrt.a(dcfxs00204.o)
 .bss           0x0000000000000000        0x0 D:\CODEX\Dev-Cpp\TDM-GCC3264\x86_64-w64-mingw32\lib/libmsvcrt.a(dcfxs00204.o)
 .text          0x0000000000000000        0x8 D:\CODEX\Dev-Cpp\TDM-GCC3264\x86_64-w64-mingw32\lib/libmsvcrt.a(dcfxs00201.o)
 .data          0x0000000000000000        0x0 D:\CODEX\Dev-Cpp\TDM-GCC3264\x86_64-w64-mingw32\lib/libmsvcrt.a(dcfxs00201.o)
 .bss           0x0000000000000000        0x0 D:\CODEX\Dev-Cpp\TDM-GCC3264\x86_64-w64-mingw32\lib/libmsvcrt.a(dcfxs00201.o)
 .data          0x0000000000000000        0x0 D:\CODEX\Dev-Cpp\TDM-GCC3264\x86_64-w64-mingw32\lib/libmsvcrt.a(dcfxs00141.o)
 .bss           0x0000000000000000        0x0 D:\CODEX\Dev-Cpp\TDM-GCC3264\x86_64-w64-mingw32\lib/libmsvcrt.a(dcfxs00141.o)
 .text          0x0000000000000000        0x8 D:\CODEX\Dev-Cpp\TDM-GCC3264\x86_64-w64-mingw32\lib/libmsvcrt.a(dcfxs00137.o)
 .data          0x0000000000000000        0x0 D:\CODEX\Dev-Cpp\TDM-GCC3264\x86_64-w64-mingw32\lib/libmsvcrt.a(dcfxs00137.o)
 .bss           0x0000000000000000        0x0 D:\CODEX\Dev-Cpp\TDM-GCC3264\x86_64-w64-mingw32\lib/libmsvcrt.a(dcfxs00137.o)
 .data          0x0000000000000000        0x0 D:\CODEX\Dev-Cpp\TDM-GCC3264\x86_64-w64-mingw32\lib/libmsvcrt.a(dcfxs00123.o)
 .bss           0x0000000000000000        0x0 D:\CODEX\Dev-Cpp\TDM-GCC3264\x86_64-w64-mingw32\lib/libmsvcrt.a(dcfxs00123.o)
 .data          0x0000000000000000        0x0 D:\CODEX\Dev-Cpp\TDM-GCC3264\x86_64-w64-mingw32\lib/libmsvcrt.a(dcfxs00099.o)
 .bss           0x0000000000000000        0x0 D:\CODEX\Dev-Cpp\TDM-GCC3264\x86_64-w64-mingw32\lib/libmsvcrt.a(dcfxs00099.o)
 .data          0x0000000000000000        0x0 D:\CODEX\Dev-Cpp\TDM-GCC3264\x86_64-w64-mingw32\lib/libmsvcrt.a(dcfxs00097.o)
 .bss           0x0000000000000000        0x0 D:\CODEX\Dev-Cpp\TDM-GCC3264\x86_64-w64-mingw32\lib/libmsvcrt.a(dcfxs00097.o)
 .text          0x0000000000000000        0x8 D:\CODEX\Dev-Cpp\TDM-GCC3264\x86_64-w64-mingw32\lib/libmsvcrt.a(dcfxs00091.o)
 .data          0x0000000000000000        0x0 D:\CODEX\Dev-Cpp\TDM-GCC3264\x86_64-w64-mingw32\lib/libmsvcrt.a(dcfxs00091.o)
 .bss           0x0000000000000000        0x0 D:\CODEX\Dev-Cpp\TDM-GCC3264\x86_64-w64-mingw32\lib/libmsvcrt.a(dcfxs00091.o)
 .text          0x0000000000000000        0x0 D:\CODEX\Dev-Cpp\TDM-GCC3264\x86_64-w64-mingw32\lib/libmsvcrt.a(dcfxs00082.o)
 .data          0x0000000000000000        0x0 D:\CODEX\Dev-Cpp\TDM-GCC3264\x86_64-w64-mingw32\lib/libmsvcrt.a(dcfxs00082.o)
 .bss           0x0000000000000000        0x0 D:\CODEX\Dev-Cpp\TDM-GCC3264\x86_64-w64-mingw32\lib/libmsvcrt.a(dcfxs00082.o)
 .data          0x0000000000000000        0x0 D:\CODEX\Dev-Cpp\TDM-GCC3264\x86_64-w64-mingw32\lib/libmsvcrt.a(dcfxs00081.o)
 .bss           0x0000000000000000        0x0 D:\CODEX\Dev-Cpp\TDM-GCC3264\x86_64-w64-mingw32\lib/libmsvcrt.a(dcfxs00081.o)
 .data          0x0000000000000000        0x0 D:\CODEX\Dev-Cpp\TDM-GCC3264\x86_64-w64-mingw32\lib/libmsvcrt.a(lib64_libmsvcrt_os_a-mbrtowc.o)
 .debug_frame   0x0000000000000000      0x260 D:\CODEX\Dev-Cpp\TDM-GCC3264\x86_64-w64-mingw32\lib/libmsvcrt.a(lib64_libmsvcrt_os_a-mbrtowc.o)
 .debug_info    0x0000000000000000      0x71e D:\CODEX\Dev-Cpp\TDM-GCC3264\x86_64-w64-mingw32\lib/libmsvcrt.a(lib64_libmsvcrt_os_a-mbrtowc.o)
 .debug_abbrev  0x0000000000000000      0x179 D:\CODEX\Dev-Cpp\TDM-GCC3264\x86_64-w64-mingw32\lib/libmsvcrt.a(lib64_libmsvcrt_os_a-mbrtowc.o)
 .debug_loc     0x0000000000000000      0xa4f D:\CODEX\Dev-Cpp\TDM-GCC3264\x86_64-w64-mingw32\lib/libmsvcrt.a(lib64_libmsvcrt_os_a-mbrtowc.o)
 .debug_aranges
                0x0000000000000000       0x30 D:\CODEX\Dev-Cpp\TDM-GCC3264\x86_64-w64-mingw32\lib/libmsvcrt.a(lib64_libmsvcrt_os_a-mbrtowc.o)
 .debug_ranges  0x0000000000000000       0x30 D:\CODEX\Dev-Cpp\TDM-GCC3264\x86_64-w64-mingw32\lib/libmsvcrt.a(lib64_libmsvcrt_os_a-mbrtowc.o)
 .debug_line    0x0000000000000000      0x344 D:\CODEX\Dev-Cpp\TDM-GCC3264\x86_64-w64-mingw32\lib/libmsvcrt.a(lib64_libmsvcrt_os_a-mbrtowc.o)
 .debug_str     0x0000000000000000       0x69 D:\CODEX\Dev-Cpp\TDM-GCC3264\x86_64-w64-mingw32\lib/libmsvcrt.a(lib64_libmsvcrt_os_a-mbrtowc.o)
 .rdata$zzz     0x0000000000000000       0x20 D:\CODEX\Dev-Cpp\TDM-GCC3264\x86_64-w64-mingw32\lib/libmsvcrt.a(lib64_libmsvcrt_os_a-mbrtowc.o)
 .data          0x0000000000000000        0x0 D:\CODEX\Dev-Cpp\TDM-GCC3264\x86_64-w64-mingw32\lib/libmsvcrt.a(lib64_libmsvcrt_os_a-wcrtomb.o)
 .bss           0x0000000000000000        0x0 D:\CODEX\Dev-Cpp\TDM-GCC3264\x86_64-w64-mingw32\lib/libmsvcrt.a(lib64_libmsvcrt_os_a-wcrtomb.o)
 .debug_frame   0x0000000000000000      0x158 D:\CODEX\Dev-Cpp\TDM-GCC3264\x86_64-w64-mingw32\lib/libmsvcrt.a(lib64_libmsvcrt_os_a-wcrtomb.o)
 .debug_info    0x0000000000000000      0x563 D:\CODEX\Dev-Cpp\TDM-GCC3264\x86_64-w64-mingw32\lib/libmsvcrt.a(lib64_libmsvcrt_os_a-wcrtomb.o)
 .debug_abbrev  0x0000000000000000      0x14a D:\CODEX\Dev-Cpp\TDM-GCC3264\x86_64-w64-mingw32\lib/libmsvcrt.a(lib64_libmsvcrt_os_a-wcrtomb.o)
 .debug_loc     0x0000000000000000      0x6cb D:\CODEX\Dev-Cpp\TDM-GCC3264\x86_64-w64-mingw32\lib/libmsvcrt.a(lib64_libmsvcrt_os_a-wcrtomb.o)
 .debug_aranges
                0x0000000000000000       0x30 D:\CODEX\Dev-Cpp\TDM-GCC3264\x86_64-w64-mingw32\lib/libmsvcrt.a(lib64_libmsvcrt_os_a-wcrtomb.o)
 .debug_ranges  0x0000000000000000       0x30 D:\CODEX\Dev-Cpp\TDM-GCC3264\x86_64-w64-mingw32\lib/libmsvcrt.a(lib64_libmsvcrt_os_a-wcrtomb.o)
 .debug_line    0x0000000000000000      0x258 D:\CODEX\Dev-Cpp\TDM-GCC3264\x86_64-w64-mingw32\lib/libmsvcrt.a(lib64_libmsvcrt_os_a-wcrtomb.o)
 .debug_str     0x0000000000000000       0x47 D:\CODEX\Dev-Cpp\TDM-GCC3264\x86_64-w64-mingw32\lib/libmsvcrt.a(lib64_libmsvcrt_os_a-wcrtomb.o)
 .rdata$zzz     0x0000000000000000       0x20 D:\CODEX\Dev-Cpp\TDM-GCC3264\x86_64-w64-mingw32\lib/libmsvcrt.a(lib64_libmsvcrt_os_a-wcrtomb.o)
 .bss           0x0000000000000000        0x0 D:\CODEX\Dev-Cpp\TDM-GCC3264\x86_64-w64-mingw32\lib/libmsvcrt.a(lib64_libmsvcrt_os_a-acrt_iob_func.o)
 .debug_frame   0x0000000000000000       0x50 D:\CODEX\Dev-Cpp\TDM-GCC3264\x86_64-w64-mingw32\lib/libmsvcrt.a(lib64_libmsvcrt_os_a-acrt_iob_func.o)
 .debug_info    0x0000000000000000      0x2d2 D:\CODEX\Dev-Cpp\TDM-GCC3264\x86_64-w64-mingw32\lib/libmsvcrt.a(lib64_libmsvcrt_os_a-acrt_iob_func.o)
 .debug_abbrev  0x0000000000000000       0xce D:\CODEX\Dev-Cpp\TDM-GCC3264\x86_64-w64-mingw32\lib/libmsvcrt.a(lib64_libmsvcrt_os_a-acrt_iob_func.o)
 .debug_loc     0x0000000000000000       0x4f D:\CODEX\Dev-Cpp\TDM-GCC3264\x86_64-w64-mingw32\lib/libmsvcrt.a(lib64_libmsvcrt_os_a-acrt_iob_func.o)
 .debug_aranges
                0x0000000000000000       0x30 D:\CODEX\Dev-Cpp\TDM-GCC3264\x86_64-w64-mingw32\lib/libmsvcrt.a(lib64_libmsvcrt_os_a-acrt_iob_func.o)
 .debug_line    0x0000000000000000       0xc5 D:\CODEX\Dev-Cpp\TDM-GCC3264\x86_64-w64-mingw32\lib/libmsvcrt.a(lib64_libmsvcrt_os_a-acrt_iob_func.o)
 .debug_str     0x0000000000000000        0xb D:\CODEX\Dev-Cpp\TDM-GCC3264\x86_64-w64-mingw32\lib/libmsvcrt.a(lib64_libmsvcrt_os_a-acrt_iob_func.o)
 .rdata$zzz     0x0000000000000000       0x20 D:\CODEX\Dev-Cpp\TDM-GCC3264\x86_64-w64-mingw32\lib/libmsvcrt.a(lib64_libmsvcrt_os_a-acrt_iob_func.o)
 .data          0x0000000000000000       0x10 D:\CODEX\Dev-Cpp\TDM-GCC3264\x86_64-w64-mingw32\lib/libmsvcrt.a(lib64_libmsvcrt_os_a-invalid_parameter_handler.o)
 .debug_frame   0x0000000000000000       0x48 D:\CODEX\Dev-Cpp\TDM-GCC3264\x86_64-w64-mingw32\lib/libmsvcrt.a(lib64_libmsvcrt_os_a-invalid_parameter_handler.o)
 .debug_info    0x0000000000000000      0x6c8 D:\CODEX\Dev-Cpp\TDM-GCC3264\x86_64-w64-mingw32\lib/libmsvcrt.a(lib64_libmsvcrt_os_a-invalid_parameter_handler.o)
 .debug_abbrev  0x0000000000000000      0x15f D:\CODEX\Dev-Cpp\TDM-GCC3264\x86_64-w64-mingw32\lib/libmsvcrt.a(lib64_libmsvcrt_os_a-invalid_parameter_handler.o)
 .debug_loc     0x0000000000000000       0x53 D:\CODEX\Dev-Cpp\TDM-GCC3264\x86_64-w64-mingw32\lib/libmsvcrt.a(lib64_libmsvcrt_os_a-invalid_parameter_handler.o)
 .debug_aranges
                0x0000000000000000       0x30 D:\CODEX\Dev-Cpp\TDM-GCC3264\x86_64-w64-mingw32\lib/libmsvcrt.a(lib64_libmsvcrt_os_a-invalid_parameter_handler.o)
 .debug_line    0x0000000000000000      0x154 D:\CODEX\Dev-Cpp\TDM-GCC3264\x86_64-w64-mingw32\lib/libmsvcrt.a(lib64_libmsvcrt_os_a-invalid_parameter_handler.o)
 .debug_str     0x0000000000000000        0x0 D:\CODEX\Dev-Cpp\TDM-GCC3264\x86_64-w64-mingw32\lib/libmsvcrt.a(lib64_libmsvcrt_os_a-invalid_parameter_handler.o)
 .rdata$zzz     0x0000000000000000       0x20 D:\CODEX\Dev-Cpp\TDM-GCC3264\x86_64-w64-mingw32\lib/libmsvcrt.a(lib64_libmsvcrt_os_a-invalid_parameter_handler.o)
 .data          0x0000000000000000       0x10 D:\CODEX\Dev-Cpp\TDM-GCC3264\x86_64-w64-mingw32\lib/libmsvcrt.a(lib64_libmsvcrt_os_a-mingw_lock.o)
 .bss           0x0000000000000000        0x0 D:\CODEX\Dev-Cpp\TDM-GCC3264\x86_64-w64-mingw32\lib/libmsvcrt.a(lib64_libmsvcrt_os_a-mingw_lock.o)
 .debug_frame   0x0000000000000000       0xb8 D:\CODEX\Dev-Cpp\TDM-GCC3264\x86_64-w64-mingw32\lib/libmsvcrt.a(lib64_libmsvcrt_os_a-mingw_lock.o)
 .debug_info    0x0000000000000000      0xa4b D:\CODEX\Dev-Cpp\TDM-GCC3264\x86_64-w64-mingw32\lib/libmsvcrt.a(lib64_libmsvcrt_os_a-mingw_lock.o)
 .debug_abbrev  0x0000000000000000      0x1c5 D:\CODEX\Dev-Cpp\TDM-GCC3264\x86_64-w64-mingw32\lib/libmsvcrt.a(lib64_libmsvcrt_os_a-mingw_lock.o)
 .debug_loc     0x0000000000000000      0x1a6 D:\CODEX\Dev-Cpp\TDM-GCC3264\x86_64-w64-mingw32\lib/libmsvcrt.a(lib64_libmsvcrt_os_a-mingw_lock.o)
 .debug_aranges
                0x0000000000000000       0x30 D:\CODEX\Dev-Cpp\TDM-GCC3264\x86_64-w64-mingw32\lib/libmsvcrt.a(lib64_libmsvcrt_os_a-mingw_lock.o)
 .debug_ranges  0x0000000000000000       0x30 D:\CODEX\Dev-Cpp\TDM-GCC3264\x86_64-w64-mingw32\lib/libmsvcrt.a(lib64_libmsvcrt_os_a-mingw_lock.o)
 .debug_line    0x0000000000000000      0x1fc D:\CODEX\Dev-Cpp\TDM-GCC3264\x86_64-w64-mingw32\lib/libmsvcrt.a(lib64_libmsvcrt_os_a-mingw_lock.o)
 .debug_str     0x0000000000000000       0x3a D:\CODEX\Dev-Cpp\TDM-GCC3264\x86_64-w64-mingw32\lib/libmsvcrt.a(lib64_libmsvcrt_os_a-mingw_lock.o)
 .rdata$zzz     0x0000000000000000       0x20 D:\CODEX\Dev-Cpp\TDM-GCC3264\x86_64-w64-mingw32\lib/libmsvcrt.a(lib64_libmsvcrt_os_a-mingw_lock.o)
 .data          0x0000000000000000       0x10 D:\CODEX\Dev-Cpp\TDM-GCC3264\x86_64-w64-mingw32\lib/libmsvcrt.a(lib64_libmsvcrt_os_a-__p__acmdln.o)
 .bss           0x0000000000000000        0x0 D:\CODEX\Dev-Cpp\TDM-GCC3264\x86_64-w64-mingw32\lib/libmsvcrt.a(lib64_libmsvcrt_os_a-__p__acmdln.o)
 .debug_frame   0x0000000000000000       0x30 D:\CODEX\Dev-Cpp\TDM-GCC3264\x86_64-w64-mingw32\lib/libmsvcrt.a(lib64_libmsvcrt_os_a-__p__acmdln.o)
 .debug_info    0x0000000000000000      0x174 D:\CODEX\Dev-Cpp\TDM-GCC3264\x86_64-w64-mingw32\lib/libmsvcrt.a(lib64_libmsvcrt_os_a-__p__acmdln.o)
 .debug_abbrev  0x0000000000000000       0x82 D:\CODEX\Dev-Cpp\TDM-GCC3264\x86_64-w64-mingw32\lib/libmsvcrt.a(lib64_libmsvcrt_os_a-__p__acmdln.o)
 .debug_aranges
                0x0000000000000000       0x30 D:\CODEX\Dev-Cpp\TDM-GCC3264\x86_64-w64-mingw32\lib/libmsvcrt.a(lib64_libmsvcrt_os_a-__p__acmdln.o)
 .debug_line    0x0000000000000000       0x81 D:\CODEX\Dev-Cpp\TDM-GCC3264\x86_64-w64-mingw32\lib/libmsvcrt.a(lib64_libmsvcrt_os_a-__p__acmdln.o)
 .debug_str     0x0000000000000000        0x0 D:\CODEX\Dev-Cpp\TDM-GCC3264\x86_64-w64-mingw32\lib/libmsvcrt.a(lib64_libmsvcrt_os_a-__p__acmdln.o)
 .rdata$zzz     0x0000000000000000       0x20 D:\CODEX\Dev-Cpp\TDM-GCC3264\x86_64-w64-mingw32\lib/libmsvcrt.a(lib64_libmsvcrt_os_a-__p__acmdln.o)
 .data          0x0000000000000000       0x10 D:\CODEX\Dev-Cpp\TDM-GCC3264\x86_64-w64-mingw32\lib/libmsvcrt.a(lib64_libmsvcrt_os_a-__p__commode.o)
 .bss           0x0000000000000000        0x0 D:\CODEX\Dev-Cpp\TDM-GCC3264\x86_64-w64-mingw32\lib/libmsvcrt.a(lib64_libmsvcrt_os_a-__p__commode.o)
 .debug_frame   0x0000000000000000       0x30 D:\CODEX\Dev-Cpp\TDM-GCC3264\x86_64-w64-mingw32\lib/libmsvcrt.a(lib64_libmsvcrt_os_a-__p__commode.o)
 .debug_info    0x0000000000000000      0x163 D:\CODEX\Dev-Cpp\TDM-GCC3264\x86_64-w64-mingw32\lib/libmsvcrt.a(lib64_libmsvcrt_os_a-__p__commode.o)
 .debug_abbrev  0x0000000000000000       0x73 D:\CODEX\Dev-Cpp\TDM-GCC3264\x86_64-w64-mingw32\lib/libmsvcrt.a(lib64_libmsvcrt_os_a-__p__commode.o)
 .debug_aranges
                0x0000000000000000       0x30 D:\CODEX\Dev-Cpp\TDM-GCC3264\x86_64-w64-mingw32\lib/libmsvcrt.a(lib64_libmsvcrt_os_a-__p__commode.o)
 .debug_line    0x0000000000000000       0x82 D:\CODEX\Dev-Cpp\TDM-GCC3264\x86_64-w64-mingw32\lib/libmsvcrt.a(lib64_libmsvcrt_os_a-__p__commode.o)
 .debug_str     0x0000000000000000        0x0 D:\CODEX\Dev-Cpp\TDM-GCC3264\x86_64-w64-mingw32\lib/libmsvcrt.a(lib64_libmsvcrt_os_a-__p__commode.o)
 .rdata$zzz     0x0000000000000000       0x20 D:\CODEX\Dev-Cpp\TDM-GCC3264\x86_64-w64-mingw32\lib/libmsvcrt.a(lib64_libmsvcrt_os_a-__p__commode.o)
 .data          0x0000000000000000       0x10 D:\CODEX\Dev-Cpp\TDM-GCC3264\x86_64-w64-mingw32\lib/libmsvcrt.a(lib64_libmsvcrt_os_a-__p__fmode.o)
 .bss           0x0000000000000000        0x0 D:\CODEX\Dev-Cpp\TDM-GCC3264\x86_64-w64-mingw32\lib/libmsvcrt.a(lib64_libmsvcrt_os_a-__p__fmode.o)
 .debug_frame   0x0000000000000000       0x30 D:\CODEX\Dev-Cpp\TDM-GCC3264\x86_64-w64-mingw32\lib/libmsvcrt.a(lib64_libmsvcrt_os_a-__p__fmode.o)
 .debug_info    0x0000000000000000      0x15b D:\CODEX\Dev-Cpp\TDM-GCC3264\x86_64-w64-mingw32\lib/libmsvcrt.a(lib64_libmsvcrt_os_a-__p__fmode.o)
 .debug_abbrev  0x0000000000000000       0x73 D:\CODEX\Dev-Cpp\TDM-GCC3264\x86_64-w64-mingw32\lib/libmsvcrt.a(lib64_libmsvcrt_os_a-__p__fmode.o)
 .debug_aranges
                0x0000000000000000       0x30 D:\CODEX\Dev-Cpp\TDM-GCC3264\x86_64-w64-mingw32\lib/libmsvcrt.a(lib64_libmsvcrt_os_a-__p__fmode.o)
 .debug_line    0x0000000000000000       0x80 D:\CODEX\Dev-Cpp\TDM-GCC3264\x86_64-w64-mingw32\lib/libmsvcrt.a(lib64_libmsvcrt_os_a-__p__fmode.o)
 .debug_str     0x0000000000000000        0x0 D:\CODEX\Dev-Cpp\TDM-GCC3264\x86_64-w64-mingw32\lib/libmsvcrt.a(lib64_libmsvcrt_os_a-__p__fmode.o)
 .rdata$zzz     0x0000000000000000       0x20 D:\CODEX\Dev-Cpp\TDM-GCC3264\x86_64-w64-mingw32\lib/libmsvcrt.a(lib64_libmsvcrt_os_a-__p__fmode.o)
 .text          0x0000000000000000        0x0 D:\CODEX\Dev-Cpp\TDM-GCC3264\x86_64-w64-mingw32\lib/libmsvcrt.a(dcfxh.o)
 .data          0x0000000000000000        0x0 D:\CODEX\Dev-Cpp\TDM-GCC3264\x86_64-w64-mingw32\lib/libmsvcrt.a(dcfxh.o)
 .bss           0x0000000000000000        0x0 D:\CODEX\Dev-Cpp\TDM-GCC3264\x86_64-w64-mingw32\lib/libmsvcrt.a(dcfxh.o)
 .data          0x0000000000000000        0x0 D:\CODEX\Dev-Cpp\TDM-GCC3264\x86_64-w64-mingw32\lib/libmsvcrt.a(dcfxs00821.o)
 .bss           0x0000000000000000        0x0 D:\CODEX\Dev-Cpp\TDM-GCC3264\x86_64-w64-mingw32\lib/libmsvcrt.a(dcfxs00821.o)
 .data          0x0000000000000000        0x0 D:\CODEX\Dev-Cpp\TDM-GCC3264\x86_64-w64-mingw32\lib/libmsvcrt.a(dcfxs00443.o)
 .bss           0x0000000000000000        0x0 D:\CODEX\Dev-Cpp\TDM-GCC3264\x86_64-w64-mingw32\lib/libmsvcrt.a(dcfxs00443.o)
 .text          0x0000000000000000        0x0 D:\CODEX\Dev-Cpp\TDM-GCC3264\x86_64-w64-mingw32\lib/libmsvcrt.a(dcfxs00116.o)
 .data          0x0000000000000000        0x0 D:\CODEX\Dev-Cpp\TDM-GCC3264\x86_64-w64-mingw32\lib/libmsvcrt.a(dcfxs00116.o)
 .bss           0x0000000000000000        0x0 D:\CODEX\Dev-Cpp\TDM-GCC3264\x86_64-w64-mingw32\lib/libmsvcrt.a(dcfxs00116.o)
 .data          0x0000000000000000        0x0 D:\CODEX\Dev-Cpp\TDM-GCC3264\x86_64-w64-mingw32\lib/libmsvcrt.a(dcfxs00083.o)
 .bss           0x0000000000000000        0x0 D:\CODEX\Dev-Cpp\TDM-GCC3264\x86_64-w64-mingw32\lib/libmsvcrt.a(dcfxs00083.o)
 .data          0x0000000000000000        0x0 D:\CODEX\Dev-Cpp\TDM-GCC3264\x86_64-w64-mingw32\lib/libmsvcrt.a(dcfxs00066.o)
 .bss           0x0000000000000000        0x0 D:\CODEX\Dev-Cpp\TDM-GCC3264\x86_64-w64-mingw32\lib/libmsvcrt.a(dcfxs00066.o)
 .data          0x0000000000000000        0x0 D:\CODEX\Dev-Cpp\TDM-GCC3264\x86_64-w64-mingw32\lib/libmsvcrt.a(dcfxs00063.o)
 .bss           0x0000000000000000        0x0 D:\CODEX\Dev-Cpp\TDM-GCC3264\x86_64-w64-mingw32\lib/libmsvcrt.a(dcfxs00063.o)
 .text          0x0000000000000000        0x0 D:\CODEX\Dev-Cpp\TDM-GCC3264\x86_64-w64-mingw32\lib/libmsvcrt.a(dcfxt.o)
 .data          0x0000000000000000        0x0 D:\CODEX\Dev-Cpp\TDM-GCC3264\x86_64-w64-mingw32\lib/libmsvcrt.a(dcfxt.o)
 .bss           0x0000000000000000        0x0 D:\CODEX\Dev-Cpp\TDM-GCC3264\x86_64-w64-mingw32\lib/libmsvcrt.a(dcfxt.o)
 .data          0x0000000000000000        0x0 D:\CODEX\Dev-Cpp\TDM-GCC3264\x86_64-w64-mingw32\lib/libmsvcrt.a(dcfxs01163.o)
 .bss           0x0000000000000000        0x0 D:\CODEX\Dev-Cpp\TDM-GCC3264\x86_64-w64-mingw32\lib/libmsvcrt.a(dcfxs01163.o)
 .text          0x0000000000000000        0x8 D:\CODEX\Dev-Cpp\TDM-GCC3264\x86_64-w64-mingw32\lib/libkernel32.a(dwdrs01546.o)
 .data          0x0000000000000000        0x0 D:\CODEX\Dev-Cpp\TDM-GCC3264\x86_64-w64-mingw32\lib/libkernel32.a(dwdrs01546.o)
 .bss           0x0000000000000000        0x0 D:\CODEX\Dev-Cpp\TDM-GCC3264\x86_64-w64-mingw32\lib/libkernel32.a(dwdrs01546.o)
 .text          0x0000000000000000        0x8 D:\CODEX\Dev-Cpp\TDM-GCC3264\x86_64-w64-mingw32\lib/libkernel32.a(dwdrs01035.o)
 .data          0x0000000000000000        0x0 D:\CODEX\Dev-Cpp\TDM-GCC3264\x86_64-w64-mingw32\lib/libkernel32.a(dwdrs01035.o)
 .bss           0x0000000000000000        0x0 D:\CODEX\Dev-Cpp\TDM-GCC3264\x86_64-w64-mingw32\lib/libkernel32.a(dwdrs01035.o)
 .text          0x0000000000000000        0x8 D:\CODEX\Dev-Cpp\TDM-GCC3264\x86_64-w64-mingw32\lib/libkernel32.a(dwdrs00918.o)
 .data          0x0000000000000000        0x0 D:\CODEX\Dev-Cpp\TDM-GCC3264\x86_64-w64-mingw32\lib/libkernel32.a(dwdrs00918.o)
 .bss           0x0000000000000000        0x0 D:\CODEX\Dev-Cpp\TDM-GCC3264\x86_64-w64-mingw32\lib/libkernel32.a(dwdrs00918.o)
 .text          0x0000000000000000        0x0 D:\CODEX\Dev-Cpp\TDM-GCC3264\x86_64-w64-mingw32\lib/libmsvcrt.a(dcfxs00254.o)
 .data          0x0000000000000000        0x0 D:\CODEX\Dev-Cpp\TDM-GCC3264\x86_64-w64-mingw32\lib/libmsvcrt.a(dcfxs00254.o)
 .bss           0x0000000000000000        0x0 D:\CODEX\Dev-Cpp\TDM-GCC3264\x86_64-w64-mingw32\lib/libmsvcrt.a(dcfxs00254.o)
 .text          0x0000000000000000        0x0 D:\CODEX\Dev-Cpp\TDM-GCC3264\x86_64-w64-mingw32\lib/libmsvcrt.a(dcfxs00157.o)
 .data          0x0000000000000000        0x0 D:\CODEX\Dev-Cpp\TDM-GCC3264\x86_64-w64-mingw32\lib/libmsvcrt.a(dcfxs00157.o)
 .bss           0x0000000000000000        0x0 D:\CODEX\Dev-Cpp\TDM-GCC3264\x86_64-w64-mingw32\lib/libmsvcrt.a(dcfxs00157.o)
 .text          0x0000000000000000        0x0 D:/CODEX/Dev-Cpp/TDM-GCC3264/bin/../lib/gcc/x86_64-w64-mingw32/10.3.0/crtend.o
 .data          0x0000000000000000        0x0 D:/CODEX/Dev-Cpp/TDM-GCC3264/bin/../lib/gcc/x86_64-w64-mingw32/10.3.0/crtend.o
 .bss           0x0000000000000000        0x0 D:/CODEX/Dev-Cpp/TDM-GCC3264/bin/../lib/gcc/x86_64-w64-mingw32/10.3.0/crtend.o
 .rdata$zzz     0x0000000000000000       0x20 D:/CODEX/Dev-Cpp/TDM-GCC3264/bin/../lib/gcc/x86_64-w64-mingw32/10.3.0/crtend.o

Memory Configuration

Name             Origin             Length             Attributes
*default*        0x0000000000000000 0xffffffffffffffff

Linker script and memory map

                0x0000000140000000                __image_base__ = 0x140000000
                0x0000000000000000                __dll__ = 0x0
                0x0000000140000000                __ImageBase = 0x140000000
                0x0000000000001000                __section_alignment__ = 0x1000
                0x0000000000000200                __file_alignment__ = 0x200
                0x0000000000000004                __major_os_version__ = 0x4
                0x0000000000000000                __minor_os_version__ = 0x0
                0x0000000000000000                __major_image_version__ = 0x0
                0x0000000000000000                __minor_image_version__ = 0x0
                0x0000000000000005                __major_subsystem_version__ = 0x5
                0x0000000000000002                __minor_subsystem_version__ = 0x2
                0x0000000000000003                __subsystem__ = 0x3
                0x0000000000200000                __size_of_stack_reserve__ = 0x200000
                0x0000000000001000                __size_of_stack_commit__ = 0x1000
                0x0000000000100000                __size_of_heap_reserve__ = 0x100000
                0x0000000000001000                __size_of_heap_commit__ = 0x1000
                0x0000000000000000                __loader_flags__ = 0x0
                0x0000000000000160                __dll_characteristics__ = 0x160
LOAD D:/CODEX/Dev-Cpp/TDM-GCC3264/bin/../lib/gcc/x86_64-w64-mingw32/10.3.0/../../../../x86_64-w64-mingw32/lib/../lib/crt2.o
LOAD D:/CODEX/Dev-Cpp/TDM-GCC3264/bin/../lib/gcc/x86_64-w64-mingw32/10.3.0/crtbegin.o
LOAD C:\Users\ARABBI~1\AppData\Local\Temp\ccJboNLv.o
LOAD C:\Users\ARABBI~1\AppData\Local\Temp\main.exe.6iMB3F.ltrans0.ltrans.o
LOAD D:\CODEX\Dev-Cpp\TDM-GCC3264\x86_64-w64-mingw32\lib/libgdi32.a
LOAD D:\CODEX\Dev-Cpp\TDM-GCC3264\x86_64-w64-mingw32\lib/libuser32.a
LOAD D:\CODEX\Dev-Cpp\TDM-GCC3264\x86_64-w64-mingw32\lib/libkernel32.a
LOAD D:\CODEX\Dev-Cpp\TDM-GCC3264\x86_64-w64-mingw32\lib/libwinmm.a
LOAD D:\CODEX\Dev-Cpp\TDM-GCC3264\x86_64-w64-mingw32\lib/libMsimg32.a
LOAD D:\CODEX\Dev-Cpp\TDM-GCC3264\x86_64-w64-mingw32\lib/libgdiplus.a
LOAD D:\CODEX\Dev-Cpp\TDM-GCC3264\x86_64-w64-mingw32\lib/libcomctl32.a
LOAD D:\CODEX\Dev-Cpp\TDM-GCC3264\x86_64-w64-mingw32\lib/libopengl32.a
LOAD D:\CODEX\Dev-Cpp\TDM-GCC3264\x86_64-w64-mingw32\lib/libd3d9.a
LOAD D:\CODEX\Dev-Cpp\TDM-GCC3264\x86_64-w64-mingw32\lib/libd3dx9_43.a
LOAD D:\CODEX\Dev-Cpp\TDM-GCC3264\x86_64-w64-mingw32\lib/libws2_32.a
LOAD D:/CODEX/Dev-Cpp/TDM-GCC3264/bin/../lib/gcc/x86_64-w64-mingw32/10.3.0\libstdc++.a
LOAD D:\CODEX\Dev-Cpp\TDM-GCC3264\x86_64-w64-mingw32\lib/libmingw32.a
LOAD D:/CODEX/Dev-Cpp/TDM-GCC3264/bin/../lib/gcc/x86_64-w64-mingw32/10.3.0/libgcc_s.a
LOAD D:/CODEX/Dev-Cpp/TDM-GCC3264/bin/../lib/gcc/x86_64-w64-mingw32/10.3.0/libgcc.a
LOAD D:\CODEX\Dev-Cpp\TDM-GCC3264\x86_64-w64-mingw32\lib/libpthread.a
LOAD D:/CODEX/Dev-Cpp/TDM-GCC3264/bin/../lib/gcc/x86_64-w64-mingw32/10.3.0/libgcc_s.a
LOAD D:/CODEX/Dev-Cpp/TDM-GCC3264/bin/../lib/gcc/x86_64-w64-mingw32/10.3.0/libgcc.a
LOAD D:\CODEX\Dev-Cpp\TDM-GCC3264\x86_64-w64-mingw32\lib/libkernel32.a
LOAD D:\CODEX\Dev-Cpp\TDM-GCC3264\x86_64-w64-mingw32\lib/libmoldname.a
LOAD D:\CODEX\Dev-Cpp\TDM-GCC3264\x86_64-w64-mingw32\lib/libmingwex.a
LOAD D:\CODEX\Dev-Cpp\TDM-GCC3264\x86_64-w64-mingw32\lib/libmsvcrt.a
LOAD D:\CODEX\Dev-Cpp\TDM-GCC3264\x86_64-w64-mingw32\lib/libkernel32.a
LOAD D:\CODEX\Dev-Cpp\TDM-GCC3264\x86_64-w64-mingw32\lib/libpthread.a
LOAD D:\CODEX\Dev-Cpp\TDM-GCC3264\x86_64-w64-mingw32\lib/libadvapi32.a
LOAD D:\CODEX\Dev-Cpp\TDM-GCC3264\x86_64-w64-mingw32\lib/libshell32.a
LOAD D:\CODEX\Dev-Cpp\TDM-GCC3264\x86_64-w64-mingw32\lib/libuser32.a
LOAD D:\CODEX\Dev-Cpp\TDM-GCC3264\x86_64-w64-mingw32\lib/libkernel32.a
LOAD D:\CODEX\Dev-Cpp\TDM-GCC3264\x86_64-w64-mingw32\lib/libmingw32.a
LOAD D:/CODEX/Dev-Cpp/TDM-GCC3264/bin/../lib/gcc/x86_64-w64-mingw32/10.3.0/libgcc_s.a
LOAD D:/CODEX/Dev-Cpp/TDM-GCC3264/bin/../lib/gcc/x86_64-w64-mingw32/10.3.0/libgcc.a
LOAD D:\CODEX\Dev-Cpp\TDM-GCC3264\x86_64-w64-mingw32\lib/libpthread.a
LOAD D:/CODEX/Dev-Cpp/TDM-GCC3264/bin/../lib/gcc/x86_64-w64-mingw32/10.3.0/libgcc_s.a
LOAD D:/CODEX/Dev-Cpp/TDM-GCC3264/bin/../lib/gcc/x86_64-w64-mingw32/10.3.0/libgcc.a
LOAD D:\CODEX\Dev-Cpp\TDM-GCC3264\x86_64-w64-mingw32\lib/libkernel32.a
LOAD D:\CODEX\Dev-Cpp\TDM-GCC3264\x86_64-w64-mingw32\lib/libmoldname.a
LOAD D:\CODEX\Dev-Cpp\TDM-GCC3264\x86_64-w64-mingw32\lib/libmingwex.a
LOAD D:\CODEX\Dev-Cpp\TDM-GCC3264\x86_64-w64-mingw32\lib/libmsvcrt.a
LOAD D:\CODEX\Dev-Cpp\TDM-GCC3264\x86_64-w64-mingw32\lib/libkernel32.a
LOAD D:/CODEX/Dev-Cpp/TDM-GCC3264/bin/../lib/gcc/x86_64-w64-mingw32/10.3.0/../../../../x86_64-w64-mingw32/lib/../lib/default-manifest.o
LOAD D:/CODEX/Dev-Cpp/TDM-GCC3264/bin/../lib/gcc/x86_64-w64-mingw32/10.3.0/crtend.o
                0x0000000000000340                . = SIZEOF_HEADERS
                0x0000000000001000                . = ALIGN (__section_alignment__)

.text           0x0000000140001000    0x20200
 *(SORT_NONE(.init))
 *(.text)
 .text          0x0000000140001000      0x520 D:/CODEX/Dev-Cpp/TDM-GCC3264/bin/../lib/gcc/x86_64-w64-mingw32/10.3.0/../../../../x86_64-w64-mingw32/lib/../lib/crt2.o
                0x00000001400014c0                WinMainCRTStartup
                0x00000001400014e0                mainCRTStartup
                0x0000000140001500                atexit
 .text          0x0000000140001520       0x20 D:/CODEX/Dev-Cpp/TDM-GCC3264/bin/../lib/gcc/x86_64-w64-mingw32/10.3.0/crtbegin.o
                0x0000000140001520                __gcc_register_frame
                0x0000000140001530                __gcc_deregister_frame
 .text          0x0000000140001540        0x8 D:\CODEX\Dev-Cpp\TDM-GCC3264\x86_64-w64-mingw32\lib/libkernel32.a(dwdrs01583.o)
                0x0000000140001540                __C_specific_handler
 *fill*         0x0000000140001548        0x8 
 .text          0x0000000140001550     0x95b0 D:/CODEX/Dev-Cpp/TDM-GCC3264/bin/../lib/gcc/x86_64-w64-mingw32/10.3.0\libstdc++.a(cp-demangle.o)
                0x000000014000a970                __cxa_demangle
                0x000000014000aad0                __gcclibcxx_demangle_callback
 .text          0x000000014000ab00       0xd0 D:\CODEX\Dev-Cpp\TDM-GCC3264\x86_64-w64-mingw32\lib/libmingw32.a(lib64_libmingw32_a-gccmain.o)
                0x000000014000ab00                __do_global_dtors
                0x000000014000ab40                __do_global_ctors
                0x000000014000abb0                __main
 .text          0x000000014000abd0       0x10 D:\CODEX\Dev-Cpp\TDM-GCC3264\x86_64-w64-mingw32\lib/libmingw32.a(lib64_libmingw32_a-charmax.o)
 .text          0x000000014000abe0       0x10 D:\CODEX\Dev-Cpp\TDM-GCC3264\x86_64-w64-mingw32\lib/libmingw32.a(lib64_libmingw32_a-dllargv.o)
                0x000000014000abe0                _setargv
 .text          0x000000014000abf0       0xd0 D:\CODEX\Dev-Cpp\TDM-GCC3264\x86_64-w64-mingw32\lib/libmingw32.a(lib64_libmingw32_a-tlssup.o)
                0x000000014000ac20                __dyn_tls_init
                0x000000014000acb0                __tlregdtor
 .text          0x000000014000acc0      0x100 D:\CODEX\Dev-Cpp\TDM-GCC3264\x86_64-w64-mingw32\lib/libmingw32.a(lib64_libmingw32_a-merr.o)
                0x000000014000acc0                _matherr
 .text          0x000000014000adc0       0x10 D:\CODEX\Dev-Cpp\TDM-GCC3264\x86_64-w64-mingw32\lib/libmingw32.a(lib64_libmingw32_a-CRT_fp10.o)
                0x000000014000adc0                fpreset
                0x000000014000adc0                _fpreset
 .text          0x000000014000add0      0x460 D:\CODEX\Dev-Cpp\TDM-GCC3264\x86_64-w64-mingw32\lib/libmingw32.a(lib64_libmingw32_a-pseudo-reloc.o)
                0x000000014000afb0                _pei386_runtime_relocator
 .text          0x000000014000b230       0x60 D:\CODEX\Dev-Cpp\TDM-GCC3264\x86_64-w64-mingw32\lib/libmingw32.a(lib64_libmingw32_a-usermatherr.o)
                0x000000014000b230                __mingw_raise_matherr
                0x000000014000b280                __mingw_setusermatherr
 .text          0x000000014000b290      0x1c0 D:\CODEX\Dev-Cpp\TDM-GCC3264\x86_64-w64-mingw32\lib/libmingw32.a(lib64_libmingw32_a-crt_handler.o)
                0x000000014000b290                _gnu_exception_handler
 .text          0x000000014000b450      0x270 D:\CODEX\Dev-Cpp\TDM-GCC3264\x86_64-w64-mingw32\lib/libmingw32.a(lib64_libmingw32_a-tlsthrd.o)
                0x000000014000b4c0                ___w64_mingwthr_add_key_dtor
                0x000000014000b540                ___w64_mingwthr_remove_key_dtor
                0x000000014000b5d0                __mingw_TLScallback
 .text          0x000000014000b6c0      0x3e0 D:\CODEX\Dev-Cpp\TDM-GCC3264\x86_64-w64-mingw32\lib/libmingw32.a(lib64_libmingw32_a-pesect.o)
                0x000000014000b6c0                _ValidateImageBase
                0x000000014000b6f0                _FindPESection
                0x000000014000b740                _FindPESectionByName
                0x000000014000b7e0                __mingw_GetSectionForAddress
                0x000000014000b860                __mingw_GetSectionCount
                0x000000014000b8a0                _FindPESectionExec
                0x000000014000b910                _GetPEImageBase
                0x000000014000b950                _IsNonwritableInCurrentImage
                0x000000014000b9e0                __mingw_enum_import_library_names
 .text          0x000000014000baa0        0x8 D:/CODEX/Dev-Cpp/TDM-GCC3264/bin/../lib/gcc/x86_64-w64-mingw32/10.3.0/libgcc_s.a(d000018.o)
                0x000000014000baa0                _Unwind_SetIP
 .text          0x000000014000baa8        0x8 D:/CODEX/Dev-Cpp/TDM-GCC3264/bin/../lib/gcc/x86_64-w64-mingw32/10.3.0/libgcc_s.a(d000017.o)
                0x000000014000baa8                _Unwind_SetGR
 .text          0x000000014000bab0        0x8 D:/CODEX/Dev-Cpp/TDM-GCC3264/bin/../lib/gcc/x86_64-w64-mingw32/10.3.0/libgcc_s.a(d000016.o)
                0x000000014000bab0                _Unwind_Resume_or_Rethrow
 .text          0x000000014000bab8        0x8 D:/CODEX/Dev-Cpp/TDM-GCC3264/bin/../lib/gcc/x86_64-w64-mingw32/10.3.0/libgcc_s.a(d000015.o)
                0x000000014000bab8                _Unwind_Resume
 .text          0x000000014000bac0        0x8 D:/CODEX/Dev-Cpp/TDM-GCC3264/bin/../lib/gcc/x86_64-w64-mingw32/10.3.0/libgcc_s.a(d000014.o)
                0x000000014000bac0                _Unwind_RaiseException
 .text          0x000000014000bac8        0x8 D:/CODEX/Dev-Cpp/TDM-GCC3264/bin/../lib/gcc/x86_64-w64-mingw32/10.3.0/libgcc_s.a(d000013.o)
                0x000000014000bac8                _Unwind_GetTextRelBase
 .text          0x000000014000bad0        0x8 D:/CODEX/Dev-Cpp/TDM-GCC3264/bin/../lib/gcc/x86_64-w64-mingw32/10.3.0/libgcc_s.a(d000012.o)
                0x000000014000bad0                _Unwind_GetRegionStart
 .text          0x000000014000bad8        0x8 D:/CODEX/Dev-Cpp/TDM-GCC3264/bin/../lib/gcc/x86_64-w64-mingw32/10.3.0/libgcc_s.a(d000011.o)
                0x000000014000bad8                _Unwind_GetLanguageSpecificData
 .text          0x000000014000bae0        0x8 D:/CODEX/Dev-Cpp/TDM-GCC3264/bin/../lib/gcc/x86_64-w64-mingw32/10.3.0/libgcc_s.a(d000010.o)
                0x000000014000bae0                _Unwind_GetIPInfo
 .text          0x000000014000bae8        0x8 D:/CODEX/Dev-Cpp/TDM-GCC3264/bin/../lib/gcc/x86_64-w64-mingw32/10.3.0/libgcc_s.a(d000007.o)
                0x000000014000bae8                _Unwind_GetDataRelBase
 .text          0x000000014000baf0        0x8 D:/CODEX/Dev-Cpp/TDM-GCC3264/bin/../lib/gcc/x86_64-w64-mingw32/10.3.0/libgcc_s.a(d000003.o)
                0x000000014000baf0                _Unwind_DeleteException
 .text          0x000000014000baf8        0x8 D:/CODEX/Dev-Cpp/TDM-GCC3264/bin/../lib/gcc/x86_64-w64-mingw32/10.3.0/libgcc_s.a(d000001.o)
                0x000000014000baf8                _GCC_specific_handler
 .text          0x000000014000bb00       0x40 D:/CODEX/Dev-Cpp/TDM-GCC3264/bin/../lib/gcc/x86_64-w64-mingw32/10.3.0/libgcc.a(_chkstk_ms.o)
                0x000000014000bb00                ___chkstk_ms
 .text          0x000000014000bb40      0x430 D:/CODEX/Dev-Cpp/TDM-GCC3264/bin/../lib/gcc/x86_64-w64-mingw32/10.3.0/libgcc.a(eh_shmem3_mingw.o)
                0x000000014000bbd0                __eh_shmem3_gcc_tdm_cleanup_local_region
                0x000000014000bcc0                __eh_shmem3_gcc_tdm_init_local_region
 .text          0x000000014000bf70      0x6e0 D:\CODEX\Dev-Cpp\TDM-GCC3264\x86_64-w64-mingw32\lib/libpthread.a(libwinpthread_la-mutex.o)
                0x000000014000bff0                pthread_mutex_lock
                0x000000014000c150                pthread_mutex_timedlock
                0x000000014000c310                pthread_mutex_unlock
                0x000000014000c3d0                pthread_mutex_trylock
                0x000000014000c490                pthread_mutex_init
                0x000000014000c4e0                pthread_mutex_destroy
                0x000000014000c530                pthread_mutexattr_init
                0x000000014000c540                pthread_mutexattr_destroy
                0x000000014000c550                pthread_mutexattr_gettype
                0x000000014000c570                pthread_mutexattr_settype
                0x000000014000c5a0                pthread_mutexattr_getpshared
                0x000000014000c5d0                pthread_mutexattr_setpshared
                0x000000014000c600                pthread_mutexattr_getprotocol
                0x000000014000c610                pthread_mutexattr_setprotocol
                0x000000014000c630                pthread_mutexattr_getprioceiling
                0x000000014000c640                pthread_mutexattr_setprioceiling
 .text          0x000000014000c650     0x63a0 D:\CODEX\Dev-Cpp\TDM-GCC3264\x86_64-w64-mingw32\lib/libpthread.a(libwinpthread_la-thread.o)
                0x000000014000dc70                pthread_tls_init
                0x000000014000eac0                __shmem_init__pthread_key_dest_shmem
                0x000000014000eae0                __shmem_init__pthread_cancelling_shmem
                0x000000014000eb00                __shmem_init__pthread_concur_shmem
                0x000000014000eb20                __shmem_init__pthread_tls_once_shmem
                0x000000014000eb40                __shmem_init__pthread_tls_shmem
                0x000000014000eb60                __shmem_init__pthread_key_lock_shmem
                0x000000014000eb80                __shmem_init__pthread_key_max_shmem
                0x000000014000eba0                __shmem_init__pthread_key_sch_shmem
                0x000000014000ebc0                __shmem_init_pthr_root_shmem
                0x000000014000ebe0                __shmem_init_pthr_last_shmem
                0x000000014000ec00                __shmem_init_mtx_pthr_locked_shmem
                0x000000014000ec20                __shmem_init_idList_shmem
                0x000000014000ec40                __shmem_init_idListCnt_shmem
                0x000000014000ec60                __shmem_init_idListMax_shmem
                0x000000014000ec80                __shmem_init_idListNextId_shmem
                0x000000014000eca0                __pth_gpointer_locked
                0x000000014000f3a0                pthread_create_wrapper
                0x000000014000f800                thread_print_set
                0x000000014000f810                thread_print
                0x000000014000f8c0                __shmem_init_once_obj_shmem
                0x000000014000f8e0                __shmem_init_once_global_shmem
                0x000000014000f900                pthread_timechange_handler_np
                0x000000014000f910                pthread_num_processors_np
                0x000000014000f970                pthread_set_num_processors_np
                0x000000014000fa10                pthread_once
                0x000000014000fb40                pthread_key_create
                0x0000000140010690                pthread_key_delete
                0x0000000140010d70                pthread_getspecific
                0x0000000140010de0                pthread_setspecific
                0x0000000140010ee0                pthread_equal
                0x0000000140010ef0                _pthread_cleanup_dest
                0x0000000140010f00                pthread_self
                0x0000000140010f30                pthread_getevent
                0x0000000140010f50                pthread_gethandle
                0x0000000140010f70                pthread_getclean
                0x0000000140010f90                pthread_get_concurrency
                0x0000000140011000                pthread_set_concurrency
                0x0000000140011070                pthread_exit
                0x0000000140011220                __pthread_shallcancel
                0x00000001400112b0                _pthread_setnobreak
                0x00000001400112f0                _pthread_invoke_cancel
                0x00000001400113f0                pthread_testcancel
                0x00000001400114d0                pthread_delay_np
                0x0000000140011580                pthread_delay_np_ms
                0x00000001400115f0                pthread_cancel
                0x00000001400118f0                pthread_kill
                0x0000000140011a90                _pthread_get_state
                0x0000000140011aa0                _pthread_set_state
                0x0000000140011ac0                pthread_attr_init
                0x0000000140011af0                pthread_attr_destroy
                0x0000000140011b20                pthread_attr_setdetachstate
                0x0000000140011b40                pthread_attr_getdetachstate
                0x0000000140011b50                pthread_attr_setinheritsched
                0x0000000140011b80                pthread_attr_getinheritsched
                0x0000000140011b90                pthread_attr_setscope
                0x0000000140011bb0                pthread_attr_getscope
                0x0000000140011bc0                pthread_attr_getstackaddr
                0x0000000140011bd0                pthread_attr_setstackaddr
                0x0000000140011be0                pthread_attr_getstacksize
                0x0000000140011bf0                pthread_attr_setstacksize
                0x0000000140011c00                pthread_setcancelstate
                0x0000000140011c80                pthread_setcanceltype
                0x0000000140011d00                pthread_create
                0x0000000140011fc0                pthread_join
                0x0000000140012110                _pthread_tryjoin
                0x0000000140012480                pthread_detach
                0x00000001400126f0                __shmem_init_dummy_concurrency_level_shmem
                0x0000000140012710                pthread_getconcurrency
                0x0000000140012780                pthread_setconcurrency
                0x00000001400127f0                pthread_setname_np
                0x0000000140012920                pthread_getname_np
 .text          0x00000001400129f0      0x430 D:\CODEX\Dev-Cpp\TDM-GCC3264\x86_64-w64-mingw32\lib/libpthread.a(libwinpthread_la-shmem3_mingw.o)
                0x0000000140012a80                __shmem3_winpthreads_tdm_cleanup_local_region
                0x0000000140012b70                __shmem3_winpthreads_tdm_init_local_region
 .text          0x0000000140012e20      0x300 D:\CODEX\Dev-Cpp\TDM-GCC3264\x86_64-w64-mingw32\lib/libpthread.a(libwinpthread_la-misc.o)
                0x0000000140012ec0                _pthread_time_in_ms
                0x0000000140012f10                _pthread_time_in_ms_from_timespec
                0x0000000140012f40                _pthread_rel_time_in_ms
                0x0000000140012fd0                _pthread_wait_for_single_object
                0x0000000140013070                _pthread_wait_for_multiple_objects
 .text          0x0000000140013120     0x1200 D:\CODEX\Dev-Cpp\TDM-GCC3264\x86_64-w64-mingw32\lib/libpthread.a(libwinpthread_la-rwlock.o)
                0x0000000140013530                __shmem_init_rwl_global_shmem
                0x0000000140013550                rwl_print_set
                0x0000000140013560                rwl_print
                0x0000000140013600                __shmem_init_cond_locked_shmem_rwlock
                0x0000000140013620                pthread_rwlock_init
                0x00000001400139b0                pthread_rwlock_destroy
                0x0000000140013bb0                pthread_rwlock_rdlock
                0x0000000140013c80                pthread_rwlock_timedrdlock
                0x0000000140013d60                pthread_rwlock_tryrdlock
                0x0000000140013e30                pthread_rwlock_trywrlock
                0x0000000140013f20                pthread_rwlock_unlock
                0x0000000140013fe0                pthread_rwlock_wrlock
                0x0000000140014130                pthread_rwlock_timedwrlock
                0x00000001400142b0                pthread_rwlockattr_destroy
                0x00000001400142c0                pthread_rwlockattr_init
                0x00000001400142e0                pthread_rwlockattr_getpshared
                0x0000000140014300                pthread_rwlockattr_setpshared
 .text          0x0000000140014320       0x70 D:\CODEX\Dev-Cpp\TDM-GCC3264\x86_64-w64-mingw32\lib/libpthread.a(libwinpthread_la-spinlock.o)
                0x0000000140014320                pthread_spin_init
                0x0000000140014330                pthread_spin_destroy
                0x0000000140014340                pthread_spin_lock
                0x0000000140014360                pthread_spin_trylock
                0x0000000140014380                pthread_spin_unlock
 .text          0x0000000140014390     0x13b0 D:\CODEX\Dev-Cpp\TDM-GCC3264\x86_64-w64-mingw32\lib/libpthread.a(libwinpthread_la-cond.o)
                0x0000000140014440                cond_print_set
                0x0000000140014490                cond_print
                0x0000000140014520                __shmem_init_cond_locked_shmem_cond
                0x0000000140014540                pthread_condattr_destroy
                0x0000000140014560                pthread_condattr_init
                0x0000000140014580                pthread_condattr_getpshared
                0x00000001400145a0                pthread_condattr_getclock
                0x00000001400145c0                pthread_condattr_setclock
                0x00000001400145e0                __pthread_clock_nanosleep
                0x0000000140014680                pthread_condattr_setpshared
                0x00000001400146b0                pthread_cond_init
                0x0000000140014920                do_sema_b_wait_intern
                0x0000000140014cd0                pthread_cond_destroy
                0x0000000140014f20                pthread_cond_signal
                0x0000000140015060                pthread_cond_broadcast
                0x00000001400151b0                pthread_cond_wait
                0x0000000140015720                pthread_cond_timedwait
                0x0000000140015730                pthread_cond_timedwait_relative_np
 .text          0x0000000140015740      0x3d0 D:\CODEX\Dev-Cpp\TDM-GCC3264\x86_64-w64-mingw32\lib/libpthread.a(libwinpthread_la-sched.o)
                0x0000000140015740                sched_get_priority_min
                0x0000000140015770                sched_get_priority_max
                0x00000001400157a0                pthread_attr_setschedparam
                0x00000001400157c0                pthread_attr_getschedparam
                0x00000001400157e0                pthread_attr_setschedpolicy
                0x0000000140015810                pthread_attr_getschedpolicy
                0x0000000140015830                pthread_getschedparam
                0x00000001400158d0                pthread_setschedparam
                0x00000001400159d0                sched_getscheduler
                0x0000000140015a40                sched_setscheduler
                0x0000000140015af0                sched_yield
 .text          0x0000000140015b10       0x50 D:\CODEX\Dev-Cpp\TDM-GCC3264\x86_64-w64-mingw32\lib/libmingwex.a(lib64_libmingwex_a-mingw_vfprintfw.o)
                0x0000000140015b10                __mingw_vfwprintf
 .text          0x0000000140015b60       0x30 D:\CODEX\Dev-Cpp\TDM-GCC3264\x86_64-w64-mingw32\lib/libmingwex.a(lib64_libmingwex_a-mingw_vsprintf.o)
                0x0000000140015b60                __mingw_vsprintf
 .text          0x0000000140015b90     0x25e0 D:\CODEX\Dev-Cpp\TDM-GCC3264\x86_64-w64-mingw32\lib/libmingwex.a(lib64_libmingwex_a-mingw_pformat.o)
                0x00000001400177c0                __mingw_pformat
 .text          0x0000000140018170     0x2570 D:\CODEX\Dev-Cpp\TDM-GCC3264\x86_64-w64-mingw32\lib/libmingwex.a(lib64_libmingwex_a-mingw_pformatw.o)
                0x0000000140019d80                __mingw_wpformat
 .text          0x000000014001a6e0      0x260 D:\CODEX\Dev-Cpp\TDM-GCC3264\x86_64-w64-mingw32\lib/libmingwex.a(lib64_libmingwex_a-dmisc.o)
                0x000000014001a6e0                __rv_alloc_D2A
                0x000000014001a720                __nrv_alloc_D2A
                0x000000014001a7a0                __freedtoa
                0x000000014001a7c0                __quorem_D2A
 .text          0x000000014001a940     0x1710 D:\CODEX\Dev-Cpp\TDM-GCC3264\x86_64-w64-mingw32\lib/libmingwex.a(lib64_libmingwex_a-gdtoa.o)
                0x000000014001a940                __gdtoa
 .text          0x000000014001c050      0x150 D:\CODEX\Dev-Cpp\TDM-GCC3264\x86_64-w64-mingw32\lib/libmingwex.a(lib64_libmingwex_a-gmisc.o)
                0x000000014001c050                __rshift_D2A
                0x000000014001c150                __trailz_D2A
 .text          0x000000014001c1a0      0xd00 D:\CODEX\Dev-Cpp\TDM-GCC3264\x86_64-w64-mingw32\lib/libmingwex.a(lib64_libmingwex_a-misc.o)
                0x000000014001c2d0                __Balloc_D2A
                0x000000014001c3d0                __Bfree_D2A
                0x000000014001c440                __multadd_D2A
                0x000000014001c4f0                __i2b_D2A
                0x000000014001c5b0                __mult_D2A
                0x000000014001c710                __pow5mult_D2A
                0x000000014001c910                __lshift_D2A
                0x000000014001ca20                __cmp_D2A
                0x000000014001ca70                __diff_D2A
                0x000000014001cc40                __b2d_D2A
                0x000000014001cd60                __d2b_D2A
                0x000000014001ce70                __strcp_D2A
 .text          0x000000014001cea0       0x30 D:\CODEX\Dev-Cpp\TDM-GCC3264\x86_64-w64-mingw32\lib/libmingwex.a(lib64_libmingwex_a-strnlen.o)
                0x000000014001cea0                strnlen
 .text          0x000000014001ced0       0x30 D:\CODEX\Dev-Cpp\TDM-GCC3264\x86_64-w64-mingw32\lib/libmingwex.a(lib64_libmingwex_a-wcsnlen.o)
                0x000000014001ced0                wcsnlen
 .text          0x000000014001cf00        0x8 D:\CODEX\Dev-Cpp\TDM-GCC3264\x86_64-w64-mingw32\lib/libmsvcrt.a(dcfxs01283.o)
                0x000000014001cf00                wcslen
 .text          0x000000014001cf08        0x8 D:\CODEX\Dev-Cpp\TDM-GCC3264\x86_64-w64-mingw32\lib/libmsvcrt.a(dcfxs01258.o)
                0x000000014001cf08                vfprintf
 .text          0x000000014001cf10        0x8 D:\CODEX\Dev-Cpp\TDM-GCC3264\x86_64-w64-mingw32\lib/libmsvcrt.a(dcfxs01222.o)
                0x000000014001cf10                strncmp
 .text          0x000000014001cf18        0x8 D:\CODEX\Dev-Cpp\TDM-GCC3264\x86_64-w64-mingw32\lib/libmsvcrt.a(dcfxs01219.o)
                0x000000014001cf18                strlen
 .text          0x000000014001cf20        0x8 D:\CODEX\Dev-Cpp\TDM-GCC3264\x86_64-w64-mingw32\lib/libmsvcrt.a(dcfxs01217.o)
                0x000000014001cf20                strerror
 .text          0x000000014001cf28        0x8 D:\CODEX\Dev-Cpp\TDM-GCC3264\x86_64-w64-mingw32\lib/libmsvcrt.a(dcfxs01212.o)
                0x000000014001cf28                strcmp
 .text          0x000000014001cf30        0x8 D:\CODEX\Dev-Cpp\TDM-GCC3264\x86_64-w64-mingw32\lib/libmsvcrt.a(dcfxs01196.o)
                0x000000014001cf30                signal
 .text          0x000000014001cf38        0x8 D:\CODEX\Dev-Cpp\TDM-GCC3264\x86_64-w64-mingw32\lib/libmsvcrt.a(dcfxs01187.o)
                0x000000014001cf38                realloc
 .text          0x000000014001cf40        0x8 D:\CODEX\Dev-Cpp\TDM-GCC3264\x86_64-w64-mingw32\lib/libmsvcrt.a(dcfxs01174.o)
                0x000000014001cf40                printf
 .text          0x000000014001cf48        0x8 D:\CODEX\Dev-Cpp\TDM-GCC3264\x86_64-w64-mingw32\lib/libmsvcrt.a(dcfxs01166.o)
                0x000000014001cf48                memset
 .text          0x000000014001cf50        0x8 D:\CODEX\Dev-Cpp\TDM-GCC3264\x86_64-w64-mingw32\lib/libmsvcrt.a(dcfxs01165.o)
                0x000000014001cf50                memmove
 .text          0x000000014001cf58        0x8 D:\CODEX\Dev-Cpp\TDM-GCC3264\x86_64-w64-mingw32\lib/libmsvcrt.a(dcfxs01164.o)
                0x000000014001cf58                memcpy
 .text          0x000000014001cf60        0x8 D:\CODEX\Dev-Cpp\TDM-GCC3264\x86_64-w64-mingw32\lib/libmsvcrt.a(dcfxs01156.o)
                0x000000014001cf60                malloc
 .text          0x000000014001cf68        0x8 D:\CODEX\Dev-Cpp\TDM-GCC3264\x86_64-w64-mingw32\lib/libmsvcrt.a(dcfxs01149.o)
                0x000000014001cf68                localeconv
 .text          0x000000014001cf70        0x8 D:\CODEX\Dev-Cpp\TDM-GCC3264\x86_64-w64-mingw32\lib/libmsvcrt.a(dcfxs01109.o)
                0x000000014001cf70                fwrite
 .text          0x000000014001cf78        0x8 D:\CODEX\Dev-Cpp\TDM-GCC3264\x86_64-w64-mingw32\lib/libmsvcrt.a(dcfxs01106.o)
                0x000000014001cf78                __ms_fwprintf
 .text          0x000000014001cf80        0x8 D:\CODEX\Dev-Cpp\TDM-GCC3264\x86_64-w64-mingw32\lib/libmsvcrt.a(dcfxs01097.o)
                0x000000014001cf80                free
 .text          0x000000014001cf88        0x8 D:\CODEX\Dev-Cpp\TDM-GCC3264\x86_64-w64-mingw32\lib/libmsvcrt.a(dcfxs01094.o)
                0x000000014001cf88                fputwc
 .text          0x000000014001cf90        0x8 D:\CODEX\Dev-Cpp\TDM-GCC3264\x86_64-w64-mingw32\lib/libmsvcrt.a(dcfxs01093.o)
                0x000000014001cf90                fputs
 .text          0x000000014001cf98        0x8 D:\CODEX\Dev-Cpp\TDM-GCC3264\x86_64-w64-mingw32\lib/libmsvcrt.a(dcfxs01092.o)
                0x000000014001cf98                fputc
 .text          0x000000014001cfa0        0x8 D:\CODEX\Dev-Cpp\TDM-GCC3264\x86_64-w64-mingw32\lib/libmsvcrt.a(dcfxs01090.o)
                0x000000014001cfa0                fprintf
 .text          0x000000014001cfa8        0x8 D:\CODEX\Dev-Cpp\TDM-GCC3264\x86_64-w64-mingw32\lib/libmsvcrt.a(dcfxs01068.o)
                0x000000014001cfa8                exit
 .text          0x000000014001cfb0        0x8 D:\CODEX\Dev-Cpp\TDM-GCC3264\x86_64-w64-mingw32\lib/libmsvcrt.a(dcfxs01054.o)
                0x000000014001cfb0                calloc
 .text          0x000000014001cfb8        0x8 D:\CODEX\Dev-Cpp\TDM-GCC3264\x86_64-w64-mingw32\lib/libmsvcrt.a(dcfxs01037.o)
                0x000000014001cfb8                abort
 .text          0x000000014001cfc0        0x8 D:\CODEX\Dev-Cpp\TDM-GCC3264\x86_64-w64-mingw32\lib/libmsvcrt.a(dcfxs00991.o)
                0x000000014001cfc0                write
 .text          0x000000014001cfc8        0x8 D:\CODEX\Dev-Cpp\TDM-GCC3264\x86_64-w64-mingw32\lib/libmsvcrt.a(dcfxs00734.o)
                0x000000014001cfc8                strdup
 .text          0x000000014001cfd0        0x8 D:\CODEX\Dev-Cpp\TDM-GCC3264\x86_64-w64-mingw32\lib/libmsvcrt.a(dcfxs00672.o)
                0x000000014001cfd0                _setjmp
 .text          0x000000014001cfd8        0x8 D:\CODEX\Dev-Cpp\TDM-GCC3264\x86_64-w64-mingw32\lib/libmsvcrt.a(dcfxs00615.o)
                0x000000014001cfd8                _onexit
 .text          0x000000014001cfe0        0x8 D:\CODEX\Dev-Cpp\TDM-GCC3264\x86_64-w64-mingw32\lib/libmsvcrt.a(dcfxs00602.o)
                0x000000014001cfe0                memccpy
 .text          0x000000014001cfe8        0x8 D:\CODEX\Dev-Cpp\TDM-GCC3264\x86_64-w64-mingw32\lib/libmsvcrt.a(dcfxs00332.o)
                0x000000014001cfe8                _initterm
 .text          0x000000014001cff0        0x8 D:\CODEX\Dev-Cpp\TDM-GCC3264\x86_64-w64-mingw32\lib/libmsvcrt.a(dcfxs00204.o)
                0x000000014001cff0                _errno
 .text          0x000000014001cff8        0x8 D:\CODEX\Dev-Cpp\TDM-GCC3264\x86_64-w64-mingw32\lib/libmsvcrt.a(dcfxs00141.o)
                0x000000014001cff8                _cexit
 .text          0x000000014001d000        0x8 D:\CODEX\Dev-Cpp\TDM-GCC3264\x86_64-w64-mingw32\lib/libmsvcrt.a(dcfxs00123.o)
                0x000000014001d000                _amsg_exit
 .text          0x000000014001d008        0x8 D:\CODEX\Dev-Cpp\TDM-GCC3264\x86_64-w64-mingw32\lib/libmsvcrt.a(dcfxs00099.o)
                0x000000014001d008                __setusermatherr
 .text          0x000000014001d010        0x8 D:\CODEX\Dev-Cpp\TDM-GCC3264\x86_64-w64-mingw32\lib/libmsvcrt.a(dcfxs00097.o)
                0x000000014001d010                __set_app_type
 .text          0x000000014001d018        0x8 D:\CODEX\Dev-Cpp\TDM-GCC3264\x86_64-w64-mingw32\lib/libmsvcrt.a(dcfxs00081.o)
                0x000000014001d018                __getmainargs
 .text          0x000000014001d020      0x360 D:\CODEX\Dev-Cpp\TDM-GCC3264\x86_64-w64-mingw32\lib/libmsvcrt.a(lib64_libmsvcrt_os_a-mbrtowc.o)
                0x000000014001d1a0                mbrtowc
                0x000000014001d210                mbsrtowcs
                0x000000014001d320                mbrlen
 .text          0x000000014001d380      0x1e0 D:\CODEX\Dev-Cpp\TDM-GCC3264\x86_64-w64-mingw32\lib/libmsvcrt.a(lib64_libmsvcrt_os_a-wcrtomb.o)
                0x000000014001d410                wcrtomb
                0x000000014001d460                wcsrtombs
 .text          0x000000014001d560       0x20 D:\CODEX\Dev-Cpp\TDM-GCC3264\x86_64-w64-mingw32\lib/libmsvcrt.a(lib64_libmsvcrt_os_a-acrt_iob_func.o)
                0x000000014001d560                __acrt_iob_func
 .text          0x000000014001d580       0x20 D:\CODEX\Dev-Cpp\TDM-GCC3264\x86_64-w64-mingw32\lib/libmsvcrt.a(lib64_libmsvcrt_os_a-invalid_parameter_handler.o)
                0x000000014001d580                _get_invalid_parameter_handler
                0x000000014001d590                _set_invalid_parameter_handler
 .text          0x000000014001d5a0       0xd0 D:\CODEX\Dev-Cpp\TDM-GCC3264\x86_64-w64-mingw32\lib/libmsvcrt.a(lib64_libmsvcrt_os_a-mingw_lock.o)
                0x000000014001d5a0                _lock_file
                0x000000014001d610                _unlock_file
 .text          0x000000014001d670       0x10 D:\CODEX\Dev-Cpp\TDM-GCC3264\x86_64-w64-mingw32\lib/libmsvcrt.a(lib64_libmsvcrt_os_a-__p__acmdln.o)
                0x000000014001d670                __p__acmdln
 .text          0x000000014001d680       0x10 D:\CODEX\Dev-Cpp\TDM-GCC3264\x86_64-w64-mingw32\lib/libmsvcrt.a(lib64_libmsvcrt_os_a-__p__commode.o)
                0x000000014001d680                __p__commode
 .text          0x000000014001d690       0x10 D:\CODEX\Dev-Cpp\TDM-GCC3264\x86_64-w64-mingw32\lib/libmsvcrt.a(lib64_libmsvcrt_os_a-__p__fmode.o)
                0x000000014001d690                __p__fmode
 .text          0x000000014001d6a0        0x8 D:\CODEX\Dev-Cpp\TDM-GCC3264\x86_64-w64-mingw32\lib/libmsvcrt.a(dcfxs00821.o)
                0x000000014001d6a0                _unlock
 .text          0x000000014001d6a8        0x8 D:\CODEX\Dev-Cpp\TDM-GCC3264\x86_64-w64-mingw32\lib/libmsvcrt.a(dcfxs00443.o)
                0x000000014001d6a8                _lock
 .text          0x000000014001d6b0        0x8 D:\CODEX\Dev-Cpp\TDM-GCC3264\x86_64-w64-mingw32\lib/libmsvcrt.a(dcfxs00083.o)
                0x000000014001d6b0                __iob_func
 .text          0x000000014001d6b8        0x8 D:\CODEX\Dev-Cpp\TDM-GCC3264\x86_64-w64-mingw32\lib/libmsvcrt.a(dcfxs00066.o)
                0x000000014001d6b8                ___mb_cur_max_func
 .text          0x000000014001d6c0        0x8 D:\CODEX\Dev-Cpp\TDM-GCC3264\x86_64-w64-mingw32\lib/libmsvcrt.a(dcfxs00063.o)
                0x000000014001d6c0                ___lc_codepage_func
 .text          0x000000014001d6c8        0x8 D:\CODEX\Dev-Cpp\TDM-GCC3264\x86_64-w64-mingw32\lib/libmsvcrt.a(dcfxs01163.o)
                0x000000014001d6c8                memcmp
 *(SORT_BY_NAME(.text$*))
 .text$_Z4errWPKw
                0x000000014001d6d0       0x60 C:\Users\ARABBI~1\AppData\Local\Temp\main.exe.6iMB3F.ltrans0.ltrans.o
 .text$_Z4errWPKw.part.0
                0x000000014001d730       0xd0 C:\Users\ARABBI~1\AppData\Local\Temp\main.exe.6iMB3F.ltrans0.ltrans.o
 .text$_Z4testv
                0x000000014001d800      0xa80 C:\Users\ARABBI~1\AppData\Local\Temp\main.exe.6iMB3F.ltrans0.ltrans.o
 .text$_Z6sigmaFP7MATHrawh
                0x000000014001e280       0x20 C:\Users\ARABBI~1\AppData\Local\Temp\main.exe.6iMB3F.ltrans0.ltrans.o
 .text$_ZGTtNKSt13bad_exceptionD1Ev
                0x000000014001e2a0       0x10 D:/CODEX/Dev-Cpp/TDM-GCC3264/bin/../lib/gcc/x86_64-w64-mingw32/10.3.0\libstdc++.a(eh_exception.o)
                0x000000014001e2a0                transaction clone for std::bad_exception::~bad_exception() const
 .text$_ZGTtNKSt9exceptionD1Ev
                0x000000014001e2b0       0x10 D:/CODEX/Dev-Cpp/TDM-GCC3264/bin/../lib/gcc/x86_64-w64-mingw32/10.3.0\libstdc++.a(eh_exception.o)
                0x000000014001e2b0                transaction clone for std::exception::~exception() const
 .text$_ZL15eh_globals_dtorPv
                0x000000014001e2c0       0x50 D:/CODEX/Dev-Cpp/TDM-GCC3264/bin/../lib/gcc/x86_64-w64-mingw32/10.3.0\libstdc++.a(eh_globals.o)
 .text$_ZL16get_adjusted_ptrPKSt9type_infoS1_PPv
                0x000000014001e310       0x70 D:/CODEX/Dev-Cpp/TDM-GCC3264/bin/../lib/gcc/x86_64-w64-mingw32/10.3.0\libstdc++.a(eh_personality.o)
 .text$_ZL17parse_lsda_headerP15_Unwind_ContextPKhP16lsda_header_info
                0x000000014001e380      0x110 D:/CODEX/Dev-Cpp/TDM-GCC3264/bin/../lib/gcc/x86_64-w64-mingw32/10.3.0\libstdc++.a(eh_personality.o)
 .text$_ZL20check_exception_specP16lsda_header_infoPKSt9type_infoPvx
                0x000000014001e490      0x110 D:/CODEX/Dev-Cpp/TDM-GCC3264/bin/../lib/gcc/x86_64-w64-mingw32/10.3.0\libstdc++.a(eh_personality.o)
 .text$_ZL21base_of_encoded_valuehP15_Unwind_Context
                0x000000014001e5a0       0x70 D:/CODEX/Dev-Cpp/TDM-GCC3264/bin/../lib/gcc/x86_64-w64-mingw32/10.3.0\libstdc++.a(eh_personality.o)
 .text$_ZL23__gxx_exception_cleanup19_Unwind_Reason_CodeP17_Unwind_Exception
                0x000000014001e610       0x50 D:/CODEX/Dev-Cpp/TDM-GCC3264/bin/../lib/gcc/x86_64-w64-mingw32/10.3.0\libstdc++.a(eh_throw.o)
 .text$_ZL28read_encoded_value_with_basehyPKhPy
                0x000000014001e660      0x160 D:/CODEX/Dev-Cpp/TDM-GCC3264/bin/../lib/gcc/x86_64-w64-mingw32/10.3.0\libstdc++.a(eh_personality.o)
 .text$_ZN10__cxxabiv111__terminateEPFvvE
                0x000000014001e7c0       0x40 D:/CODEX/Dev-Cpp/TDM-GCC3264/bin/../lib/gcc/x86_64-w64-mingw32/10.3.0\libstdc++.a(eh_terminate.o)
                0x000000014001e7c0                __cxxabiv1::__terminate(void (*)())
 .text$_ZN10__cxxabiv112__unexpectedEPFvvE
                0x000000014001e800       0x10 D:/CODEX/Dev-Cpp/TDM-GCC3264/bin/../lib/gcc/x86_64-w64-mingw32/10.3.0\libstdc++.a(eh_terminate.o)
                0x000000014001e800                __cxxabiv1::__unexpected(void (*)())
 .text$_ZN10__cxxabiv115__forced_unwindD0Ev
                0x000000014001e810       0x10 D:/CODEX/Dev-Cpp/TDM-GCC3264/bin/../lib/gcc/x86_64-w64-mingw32/10.3.0\libstdc++.a(eh_exception.o)
                0x000000014001e810                __cxxabiv1::__forced_unwind::~__forced_unwind()
 .text$_ZN10__cxxabiv115__forced_unwindD2Ev
                0x000000014001e820       0x10 D:/CODEX/Dev-Cpp/TDM-GCC3264/bin/../lib/gcc/x86_64-w64-mingw32/10.3.0\libstdc++.a(eh_exception.o)
                0x000000014001e820                __cxxabiv1::__forced_unwind::~__forced_unwind()
                0x000000014001e820                __cxxabiv1::__forced_unwind::~__forced_unwind()
 .text$_ZN10__cxxabiv117__class_type_infoD0Ev
                0x000000014001e830       0x30 D:/CODEX/Dev-Cpp/TDM-GCC3264/bin/../lib/gcc/x86_64-w64-mingw32/10.3.0\libstdc++.a(class_type_info.o)
                0x000000014001e830                __cxxabiv1::__class_type_info::~__class_type_info()
 .text$_ZN10__cxxabiv117__class_type_infoD2Ev
                0x000000014001e860       0x10 D:/CODEX/Dev-Cpp/TDM-GCC3264/bin/../lib/gcc/x86_64-w64-mingw32/10.3.0\libstdc++.a(class_type_info.o)
                0x000000014001e860                __cxxabiv1::__class_type_info::~__class_type_info()
                0x000000014001e860                __cxxabiv1::__class_type_info::~__class_type_info()
 .text$_ZN10__cxxabiv119__foreign_exceptionD0Ev
                0x000000014001e870       0x10 D:/CODEX/Dev-Cpp/TDM-GCC3264/bin/../lib/gcc/x86_64-w64-mingw32/10.3.0\libstdc++.a(eh_exception.o)
                0x000000014001e870                __cxxabiv1::__foreign_exception::~__foreign_exception()
 .text$_ZN10__cxxabiv119__foreign_exceptionD2Ev
                0x000000014001e880       0x10 D:/CODEX/Dev-Cpp/TDM-GCC3264/bin/../lib/gcc/x86_64-w64-mingw32/10.3.0\libstdc++.a(eh_exception.o)
                0x000000014001e880                __cxxabiv1::__foreign_exception::~__foreign_exception()
                0x000000014001e880                __cxxabiv1::__foreign_exception::~__foreign_exception()
 .text$_ZN10__cxxabiv120__si_class_type_infoD0Ev
                0x000000014001e890       0x30 D:/CODEX/Dev-Cpp/TDM-GCC3264/bin/../lib/gcc/x86_64-w64-mingw32/10.3.0\libstdc++.a(si_class_type_info.o)
                0x000000014001e890                __cxxabiv1::__si_class_type_info::~__si_class_type_info()
 .text$_ZN10__cxxabiv120__si_class_type_infoD2Ev
                0x000000014001e8c0       0x10 D:/CODEX/Dev-Cpp/TDM-GCC3264/bin/../lib/gcc/x86_64-w64-mingw32/10.3.0\libstdc++.a(si_class_type_info.o)
                0x000000014001e8c0                __cxxabiv1::__si_class_type_info::~__si_class_type_info()
                0x000000014001e8c0                __cxxabiv1::__si_class_type_info::~__si_class_type_info()
 .text$_ZN10__cxxabiv1L21__gxx_personality_impEiiyP17_Unwind_ExceptionP15_Unwind_Context
                0x000000014001e8d0      0x690 D:/CODEX/Dev-Cpp/TDM-GCC3264/bin/../lib/gcc/x86_64-w64-mingw32/10.3.0\libstdc++.a(eh_personality.o)
 .text$_ZN10lsMATHnode12finish_buildEb
                0x000000014001ef60       0x70 C:\Users\ARABBI~1\AppData\Local\Temp\main.exe.6iMB3F.ltrans0.ltrans.o
 .text$_ZN10lsMATHnode4callEv
                0x000000014001efd0       0x30 C:\Users\ARABBI~1\AppData\Local\Temp\main.exe.6iMB3F.ltrans0.ltrans.o
 .text$_ZN10lsMATHnode5trackEhy
                0x000000014001f000       0xb0 C:\Users\ARABBI~1\AppData\Local\Temp\main.exe.6iMB3F.ltrans0.ltrans.o
 .text$_ZN10lsMATHnode7addnodeEPF7MATHrawPS0_hEhh.constprop.0
                0x000000014001f0b0       0xc0 C:\Users\ARABBI~1\AppData\Local\Temp\main.exe.6iMB3F.ltrans0.ltrans.o
 .text$_ZN10lsMATHnode7addnodeEfh
                0x000000014001f170       0x60 C:\Users\ARABBI~1\AppData\Local\Temp\main.exe.6iMB3F.ltrans0.ltrans.o
 .text$_ZN10lsMATHnodeC4Ev
                0x000000014001f1d0       0x90 C:\Users\ARABBI~1\AppData\Local\Temp\main.exe.6iMB3F.ltrans0.ltrans.o
 .text$_ZN10lsMATHnodeD1Ev
                0x000000014001f260       0x90 C:\Users\ARABBI~1\AppData\Local\Temp\main.exe.6iMB3F.ltrans0.ltrans.o
 .text$_ZN12_GLOBAL__N_14pool4freeEPv.constprop.0
                0x000000014001f2f0      0x150 D:/CODEX/Dev-Cpp/TDM-GCC3264/bin/../lib/gcc/x86_64-w64-mingw32/10.3.0\libstdc++.a(eh_alloc.o)
 .text$_ZN12_GLOBAL__N_14pool8allocateEy.constprop.0
                0x000000014001f440      0x100 D:/CODEX/Dev-Cpp/TDM-GCC3264/bin/../lib/gcc/x86_64-w64-mingw32/10.3.0\libstdc++.a(eh_alloc.o)
 .text$_ZN13MATHcontainer6appendEPvy
                0x000000014001f540       0xd0 C:\Users\ARABBI~1\AppData\Local\Temp\main.exe.6iMB3F.ltrans0.ltrans.o
 .text$_ZN13MATHcontainer8minimizeEv
                0x000000014001f610       0x40 C:\Users\ARABBI~1\AppData\Local\Temp\main.exe.6iMB3F.ltrans0.ltrans.o
 .text$_ZN13MATHcontainerC4Eyf
                0x000000014001f650       0x70 C:\Users\ARABBI~1\AppData\Local\Temp\main.exe.6iMB3F.ltrans0.ltrans.o
 .text$_ZN13MATHcontainerD1Ev
                0x000000014001f6c0       0x10 C:\Users\ARABBI~1\AppData\Local\Temp\main.exe.6iMB3F.ltrans0.ltrans.o
 .text$_ZN15lsMATHstaticstr4findEPKw
                0x000000014001f6d0       0x80 C:\Users\ARABBI~1\AppData\Local\Temp\main.exe.6iMB3F.ltrans0.ltrans.o
 .text$_ZN15lsMATHstaticstr6addstrEPKw.isra.0
                0x000000014001f750       0x50 C:\Users\ARABBI~1\AppData\Local\Temp\main.exe.6iMB3F.ltrans0.ltrans.o
 .text$_ZN15lsMATHstaticstrC4Ev
                0x000000014001f7a0       0x40 C:\Users\ARABBI~1\AppData\Local\Temp\main.exe.6iMB3F.ltrans0.ltrans.o
 .text$_ZN7MATHenv6addvarEPKw7MATHraw
                0x000000014001f7e0       0x50 C:\Users\ARABBI~1\AppData\Local\Temp\main.exe.6iMB3F.ltrans0.ltrans.o
 .text$_ZN7MATHenv6getvalEPKw
                0x000000014001f830       0x30 C:\Users\ARABBI~1\AppData\Local\Temp\main.exe.6iMB3F.ltrans0.ltrans.o
 .text$_ZN7MATHenv6setvalEPKw7MATHraw.constprop.0.isra.0
                0x000000014001f860       0x30 C:\Users\ARABBI~1\AppData\Local\Temp\main.exe.6iMB3F.ltrans0.ltrans.o
 .text$_ZN8MATHnode4callEP13MATHcontainerP7MATHenvS1_
                0x000000014001f890      0x170 C:\Users\ARABBI~1\AppData\Local\Temp\main.exe.6iMB3F.ltrans0.ltrans.o
 .text$_ZN9__gnu_cxx24__concurrence_lock_errorD0Ev
                0x000000014001fa00       0x30 D:/CODEX/Dev-Cpp/TDM-GCC3264/bin/../lib/gcc/x86_64-w64-mingw32/10.3.0\libstdc++.a(eh_alloc.o)
                0x000000014001fa00                __gnu_cxx::__concurrence_lock_error::~__concurrence_lock_error()
 .text$_ZN9__gnu_cxx24__concurrence_lock_errorD1Ev
                0x000000014001fa30       0x10 D:/CODEX/Dev-Cpp/TDM-GCC3264/bin/../lib/gcc/x86_64-w64-mingw32/10.3.0\libstdc++.a(eh_alloc.o)
                0x000000014001fa30                __gnu_cxx::__concurrence_lock_error::~__concurrence_lock_error()
 .text$_ZN9__gnu_cxx26__concurrence_unlock_errorD0Ev
                0x000000014001fa40       0x30 D:/CODEX/Dev-Cpp/TDM-GCC3264/bin/../lib/gcc/x86_64-w64-mingw32/10.3.0\libstdc++.a(eh_alloc.o)
                0x000000014001fa40                __gnu_cxx::__concurrence_unlock_error::~__concurrence_unlock_error()
 .text$_ZN9__gnu_cxx26__concurrence_unlock_errorD1Ev
                0x000000014001fa70       0x10 D:/CODEX/Dev-Cpp/TDM-GCC3264/bin/../lib/gcc/x86_64-w64-mingw32/10.3.0\libstdc++.a(eh_alloc.o)
                0x000000014001fa70                __gnu_cxx::__concurrence_unlock_error::~__concurrence_unlock_error()
 .text$_ZN9__gnu_cxx27__verbose_terminate_handlerEv
                0x000000014001fa80      0x1c0 D:/CODEX/Dev-Cpp/TDM-GCC3264/bin/../lib/gcc/x86_64-w64-mingw32/10.3.0\libstdc++.a(vterminate.o)
                0x000000014001fa80                __gnu_cxx::__verbose_terminate_handler()
 .text$_ZN9__gnu_cxx30__throw_concurrence_lock_errorEv
                0x000000014001fc40       0x30 D:/CODEX/Dev-Cpp/TDM-GCC3264/bin/../lib/gcc/x86_64-w64-mingw32/10.3.0\libstdc++.a(eh_alloc.o)
                0x000000014001fc40                __gnu_cxx::__throw_concurrence_lock_error()
 .text$_ZN9__gnu_cxx9__freeresEv
                0x000000014001fc70       0x30 D:/CODEX/Dev-Cpp/TDM-GCC3264/bin/../lib/gcc/x86_64-w64-mingw32/10.3.0\libstdc++.a(eh_alloc.o)
                0x000000014001fc70                __gnu_cxx::__freeres()
 .text$_ZNK10__cxxabiv117__class_type_info10__do_catchEPKSt9type_infoPPvj
                0x000000014001fca0       0x60 D:/CODEX/Dev-Cpp/TDM-GCC3264/bin/../lib/gcc/x86_64-w64-mingw32/10.3.0\libstdc++.a(class_type_info.o)
                0x000000014001fca0                __cxxabiv1::__class_type_info::__do_catch(std::type_info const*, void**, unsigned int) const
 .text$_ZNK10__cxxabiv117__class_type_info11__do_upcastEPKS0_PKvRNS0_15__upcast_resultE
                0x000000014001fd00       0x30 D:/CODEX/Dev-Cpp/TDM-GCC3264/bin/../lib/gcc/x86_64-w64-mingw32/10.3.0\libstdc++.a(class_type_info.o)
                0x000000014001fd00                __cxxabiv1::__class_type_info::__do_upcast(__cxxabiv1::__class_type_info const*, void const*, __cxxabiv1::__class_type_info::__upcast_result&) const
 .text$_ZNK10__cxxabiv117__class_type_info11__do_upcastEPKS0_PPv
                0x000000014001fd30       0x60 D:/CODEX/Dev-Cpp/TDM-GCC3264/bin/../lib/gcc/x86_64-w64-mingw32/10.3.0\libstdc++.a(class_type_info.o)
                0x000000014001fd30                __cxxabiv1::__class_type_info::__do_upcast(__cxxabiv1::__class_type_info const*, void**) const
 .text$_ZNK10__cxxabiv117__class_type_info12__do_dyncastExNS0_10__sub_kindEPKS0_PKvS3_S5_RNS0_16__dyncast_resultE
                0x000000014001fd90       0x80 D:/CODEX/Dev-Cpp/TDM-GCC3264/bin/../lib/gcc/x86_64-w64-mingw32/10.3.0\libstdc++.a(class_type_info.o)
                0x000000014001fd90                __cxxabiv1::__class_type_info::__do_dyncast(long long, __cxxabiv1::__class_type_info::__sub_kind, __cxxabiv1::__class_type_info const*, void const*, __cxxabiv1::__class_type_info const*, void const*, __cxxabiv1::__class_type_info::__dyncast_result&) const
 .text$_ZNK10__cxxabiv117__class_type_info20__do_find_public_srcExPKvPKS0_S2_
                0x000000014001fe10       0x10 D:/CODEX/Dev-Cpp/TDM-GCC3264/bin/../lib/gcc/x86_64-w64-mingw32/10.3.0\libstdc++.a(class_type_info.o)
                0x000000014001fe10                __cxxabiv1::__class_type_info::__do_find_public_src(long long, void const*, __cxxabiv1::__class_type_info const*, void const*) const
 .text$_ZNK10__cxxabiv120__si_class_type_info11__do_upcastEPKNS_17__class_type_infoEPKvRNS1_15__upcast_resultE
                0x000000014001fe20       0x50 D:/CODEX/Dev-Cpp/TDM-GCC3264/bin/../lib/gcc/x86_64-w64-mingw32/10.3.0\libstdc++.a(si_class_type_info.o)
                0x000000014001fe20                __cxxabiv1::__si_class_type_info::__do_upcast(__cxxabiv1::__class_type_info const*, void const*, __cxxabiv1::__class_type_info::__upcast_result&) const
 .text$_ZNK10__cxxabiv120__si_class_type_info12__do_dyncastExNS_17__class_type_info10__sub_kindEPKS1_PKvS4_S6_RNS1_16__dyncast_resultE
                0x000000014001fe70      0x110 D:/CODEX/Dev-Cpp/TDM-GCC3264/bin/../lib/gcc/x86_64-w64-mingw32/10.3.0\libstdc++.a(si_class_type_info.o)
                0x000000014001fe70                __cxxabiv1::__si_class_type_info::__do_dyncast(long long, __cxxabiv1::__class_type_info::__sub_kind, __cxxabiv1::__class_type_info const*, void const*, __cxxabiv1::__class_type_info const*, void const*, __cxxabiv1::__class_type_info::__dyncast_result&) const
 .text$_ZNK10__cxxabiv120__si_class_type_info20__do_find_public_srcExPKvPKNS_17__class_type_infoES2_
                0x000000014001ff80       0x70 D:/CODEX/Dev-Cpp/TDM-GCC3264/bin/../lib/gcc/x86_64-w64-mingw32/10.3.0\libstdc++.a(si_class_type_info.o)
                0x000000014001ff80                __cxxabiv1::__si_class_type_info::__do_find_public_src(long long, void const*, __cxxabiv1::__class_type_info const*, void const*) const
 .text$_ZNK9__gnu_cxx24__concurrence_lock_error4whatEv
                0x000000014001fff0       0x10 D:/CODEX/Dev-Cpp/TDM-GCC3264/bin/../lib/gcc/x86_64-w64-mingw32/10.3.0\libstdc++.a(eh_alloc.o)
                0x000000014001fff0                __gnu_cxx::__concurrence_lock_error::what() const
 .text$_ZNK9__gnu_cxx26__concurrence_unlock_error4whatEv
                0x0000000140020000       0x10 D:/CODEX/Dev-Cpp/TDM-GCC3264/bin/../lib/gcc/x86_64-w64-mingw32/10.3.0\libstdc++.a(eh_alloc.o)
                0x0000000140020000                __gnu_cxx::__concurrence_unlock_error::what() const
 .text$_ZNKSt13bad_exception4whatEv
                0x0000000140020010       0x10 D:/CODEX/Dev-Cpp/TDM-GCC3264/bin/../lib/gcc/x86_64-w64-mingw32/10.3.0\libstdc++.a(eh_exception.o)
                0x0000000140020010                std::bad_exception::what() const
                0x0000000140020010                transaction clone for std::bad_exception::what() const
 .text$_ZNKSt9bad_alloc4whatEv
                0x0000000140020020       0x10 D:/CODEX/Dev-Cpp/TDM-GCC3264/bin/../lib/gcc/x86_64-w64-mingw32/10.3.0\libstdc++.a(bad_alloc.o)
                0x0000000140020020                std::bad_alloc::what() const
 .text$_ZNKSt9exception4whatEv
                0x0000000140020030       0x10 D:/CODEX/Dev-Cpp/TDM-GCC3264/bin/../lib/gcc/x86_64-w64-mingw32/10.3.0\libstdc++.a(eh_exception.o)
                0x0000000140020030                std::exception::what() const
                0x0000000140020030                transaction clone for std::exception::what() const
 .text$_ZNKSt9type_info10__do_catchEPKS_PPvj
                0x0000000140020040       0x40 D:/CODEX/Dev-Cpp/TDM-GCC3264/bin/../lib/gcc/x86_64-w64-mingw32/10.3.0\libstdc++.a(tinfo.o)
                0x0000000140020040                std::type_info::__do_catch(std::type_info const*, void**, unsigned int) const
 .text$_ZNKSt9type_info11__do_upcastEPKN10__cxxabiv117__class_type_infoEPPv
                0x0000000140020080       0x10 D:/CODEX/Dev-Cpp/TDM-GCC3264/bin/../lib/gcc/x86_64-w64-mingw32/10.3.0\libstdc++.a(tinfo.o)
                0x0000000140020080                std::type_info::__do_upcast(__cxxabiv1::__class_type_info const*, void**) const
 .text$_ZNKSt9type_info14__is_pointer_pEv
                0x0000000140020090       0x10 D:/CODEX/Dev-Cpp/TDM-GCC3264/bin/../lib/gcc/x86_64-w64-mingw32/10.3.0\libstdc++.a(tinfo.o)
                0x0000000140020090                std::type_info::__is_pointer_p() const
                0x0000000140020090                std::type_info::__is_function_p() const
 .text$_ZNKSt9type_infoeqERKS_
                0x00000001400200a0       0x40 D:/CODEX/Dev-Cpp/TDM-GCC3264/bin/../lib/gcc/x86_64-w64-mingw32/10.3.0\libstdc++.a(tinfo.o)
                0x00000001400200a0                std::type_info::operator==(std::type_info const&) const
 .text$_ZNSt13bad_exceptionD0Ev
                0x00000001400200e0       0x10 D:/CODEX/Dev-Cpp/TDM-GCC3264/bin/../lib/gcc/x86_64-w64-mingw32/10.3.0\libstdc++.a(eh_exception.o)
                0x00000001400200e0                std::bad_exception::~bad_exception()
 .text$_ZNSt13bad_exceptionD2Ev
                0x00000001400200f0       0x10 D:/CODEX/Dev-Cpp/TDM-GCC3264/bin/../lib/gcc/x86_64-w64-mingw32/10.3.0\libstdc++.a(eh_exception.o)
                0x00000001400200f0                std::bad_exception::~bad_exception()
                0x00000001400200f0                std::bad_exception::~bad_exception()
 .text$_ZNSt9bad_allocD0Ev
                0x0000000140020100       0x30 D:/CODEX/Dev-Cpp/TDM-GCC3264/bin/../lib/gcc/x86_64-w64-mingw32/10.3.0\libstdc++.a(bad_alloc.o)
                0x0000000140020100                std::bad_alloc::~bad_alloc()
 .text$_ZNSt9bad_allocD2Ev
                0x0000000140020130       0x10 D:/CODEX/Dev-Cpp/TDM-GCC3264/bin/../lib/gcc/x86_64-w64-mingw32/10.3.0\libstdc++.a(bad_alloc.o)
                0x0000000140020130                std::bad_alloc::~bad_alloc()
                0x0000000140020130                std::bad_alloc::~bad_alloc()
 .text$_ZNSt9exceptionD0Ev
                0x0000000140020140       0x10 D:/CODEX/Dev-Cpp/TDM-GCC3264/bin/../lib/gcc/x86_64-w64-mingw32/10.3.0\libstdc++.a(eh_exception.o)
                0x0000000140020140                std::exception::~exception()
 .text$_ZNSt9exceptionD2Ev
                0x0000000140020150       0x10 D:/CODEX/Dev-Cpp/TDM-GCC3264/bin/../lib/gcc/x86_64-w64-mingw32/10.3.0\libstdc++.a(eh_exception.o)
                0x0000000140020150                std::exception::~exception()
                0x0000000140020150                std::exception::~exception()
 .text$_ZNSt9type_infoD0Ev
                0x0000000140020160       0x10 D:/CODEX/Dev-Cpp/TDM-GCC3264/bin/../lib/gcc/x86_64-w64-mingw32/10.3.0\libstdc++.a(tinfo.o)
                0x0000000140020160                std::type_info::~type_info()
 .text$_ZNSt9type_infoD2Ev
                0x0000000140020170       0x10 D:/CODEX/Dev-Cpp/TDM-GCC3264/bin/../lib/gcc/x86_64-w64-mingw32/10.3.0\libstdc++.a(tinfo.o)
                0x0000000140020170                std::type_info::~type_info()
                0x0000000140020170                std::type_info::~type_info()
 .text$_ZSt10unexpectedv
                0x0000000140020180       0x20 D:/CODEX/Dev-Cpp/TDM-GCC3264/bin/../lib/gcc/x86_64-w64-mingw32/10.3.0\libstdc++.a(eh_terminate.o)
                0x0000000140020180                std::unexpected()
 .text$_ZSt13get_terminatev
                0x00000001400201a0       0x60 D:/CODEX/Dev-Cpp/TDM-GCC3264/bin/../lib/gcc/x86_64-w64-mingw32/10.3.0\libstdc++.a(eh_terminate.o)
                0x00000001400201a0                std::get_terminate()
 .text$_ZSt13set_terminatePFvvE
                0x0000000140020200       0x80 D:/CODEX/Dev-Cpp/TDM-GCC3264/bin/../lib/gcc/x86_64-w64-mingw32/10.3.0\libstdc++.a(eh_terminate.o)
                0x0000000140020200                std::set_terminate(void (*)())
 .text$_ZSt14get_unexpectedv
                0x0000000140020280       0x60 D:/CODEX/Dev-Cpp/TDM-GCC3264/bin/../lib/gcc/x86_64-w64-mingw32/10.3.0\libstdc++.a(eh_terminate.o)
                0x0000000140020280                std::get_unexpected()
 .text$_ZSt14set_unexpectedPFvvE
                0x00000001400202e0       0x90 D:/CODEX/Dev-Cpp/TDM-GCC3264/bin/../lib/gcc/x86_64-w64-mingw32/10.3.0\libstdc++.a(eh_terminate.o)
                0x00000001400202e0                std::set_unexpected(void (*)())
 .text$_ZSt15get_new_handlerv
                0x0000000140020370       0x10 D:/CODEX/Dev-Cpp/TDM-GCC3264/bin/../lib/gcc/x86_64-w64-mingw32/10.3.0\libstdc++.a(new_handler.o)
                0x0000000140020370                std::get_new_handler()
 .text$_ZSt15set_new_handlerPFvvE
                0x0000000140020380       0x10 D:/CODEX/Dev-Cpp/TDM-GCC3264/bin/../lib/gcc/x86_64-w64-mingw32/10.3.0\libstdc++.a(new_handler.o)
                0x0000000140020380                std::set_new_handler(void (*)())
 .text$_ZSt18uncaught_exceptionv
                0x0000000140020390       0x20 D:/CODEX/Dev-Cpp/TDM-GCC3264/bin/../lib/gcc/x86_64-w64-mingw32/10.3.0\libstdc++.a(eh_catch.o)
                0x0000000140020390                std::uncaught_exception()
 .text$_ZSt19uncaught_exceptionsv
                0x00000001400203b0       0x20 D:/CODEX/Dev-Cpp/TDM-GCC3264/bin/../lib/gcc/x86_64-w64-mingw32/10.3.0\libstdc++.a(eh_catch.o)
                0x00000001400203b0                std::uncaught_exceptions()
 .text$_ZSt9terminatev
                0x00000001400203d0       0x20 D:/CODEX/Dev-Cpp/TDM-GCC3264/bin/../lib/gcc/x86_64-w64-mingw32/10.3.0\libstdc++.a(eh_terminate.o)
                0x00000001400203d0                std::terminate()
 .text$_ZdlPv   0x00000001400203f0       0x10 D:/CODEX/Dev-Cpp/TDM-GCC3264/bin/../lib/gcc/x86_64-w64-mingw32/10.3.0\libstdc++.a(del_op.o)
                0x00000001400203f0                operator delete(void*)
 .text$_ZdlPvy  0x0000000140020400       0x10 D:/CODEX/Dev-Cpp/TDM-GCC3264/bin/../lib/gcc/x86_64-w64-mingw32/10.3.0\libstdc++.a(del_ops.o)
                0x0000000140020400                operator delete(void*, unsigned long long)
 .text$_Znwy    0x0000000140020410       0x70 D:/CODEX/Dev-Cpp/TDM-GCC3264/bin/../lib/gcc/x86_64-w64-mingw32/10.3.0\libstdc++.a(new_op.o)
                0x0000000140020410                operator new(unsigned long long)
 .text$__cxa_allocate_dependent_exception
                0x0000000140020480       0x70 D:/CODEX/Dev-Cpp/TDM-GCC3264/bin/../lib/gcc/x86_64-w64-mingw32/10.3.0\libstdc++.a(eh_alloc.o)
                0x0000000140020480                __cxa_allocate_dependent_exception
 .text$__cxa_allocate_exception
                0x00000001400204f0       0x70 D:/CODEX/Dev-Cpp/TDM-GCC3264/bin/../lib/gcc/x86_64-w64-mingw32/10.3.0\libstdc++.a(eh_alloc.o)
                0x00000001400204f0                __cxa_allocate_exception
 .text$__cxa_begin_catch
                0x0000000140020560       0x80 D:/CODEX/Dev-Cpp/TDM-GCC3264/bin/../lib/gcc/x86_64-w64-mingw32/10.3.0\libstdc++.a(eh_catch.o)
                0x0000000140020560                __cxa_begin_catch
 .text$__cxa_call_terminate
                0x00000001400205e0       0x40 D:/CODEX/Dev-Cpp/TDM-GCC3264/bin/../lib/gcc/x86_64-w64-mingw32/10.3.0\libstdc++.a(eh_call.o)
                0x00000001400205e0                __cxa_call_terminate
 .text$__cxa_call_unexpected
                0x0000000140020620       0xf0 D:/CODEX/Dev-Cpp/TDM-GCC3264/bin/../lib/gcc/x86_64-w64-mingw32/10.3.0\libstdc++.a(eh_personality.o)
                0x0000000140020620                __cxa_call_unexpected
 .text$__cxa_current_exception_type
                0x0000000140020710       0x30 D:/CODEX/Dev-Cpp/TDM-GCC3264/bin/../lib/gcc/x86_64-w64-mingw32/10.3.0\libstdc++.a(eh_type.o)
                0x0000000140020710                __cxa_current_exception_type
 .text$__cxa_deleted_virtual
                0x0000000140020740       0x30 D:/CODEX/Dev-Cpp/TDM-GCC3264/bin/../lib/gcc/x86_64-w64-mingw32/10.3.0\libstdc++.a(pure.o)
                0x0000000140020740                __cxa_deleted_virtual
 .text$__cxa_end_catch
                0x0000000140020770       0x90 D:/CODEX/Dev-Cpp/TDM-GCC3264/bin/../lib/gcc/x86_64-w64-mingw32/10.3.0\libstdc++.a(eh_catch.o)
                0x0000000140020770                __cxa_end_catch
 .text$__cxa_free_dependent_exception
                0x0000000140020800       0x40 D:/CODEX/Dev-Cpp/TDM-GCC3264/bin/../lib/gcc/x86_64-w64-mingw32/10.3.0\libstdc++.a(eh_alloc.o)
                0x0000000140020800                __cxa_free_dependent_exception
 .text$__cxa_free_exception
                0x0000000140020840       0x40 D:/CODEX/Dev-Cpp/TDM-GCC3264/bin/../lib/gcc/x86_64-w64-mingw32/10.3.0\libstdc++.a(eh_alloc.o)
                0x0000000140020840                __cxa_free_exception
 .text$__cxa_get_exception_ptr
                0x0000000140020880       0x10 D:/CODEX/Dev-Cpp/TDM-GCC3264/bin/../lib/gcc/x86_64-w64-mingw32/10.3.0\libstdc++.a(eh_catch.o)
                0x0000000140020880                __cxa_get_exception_ptr
 .text$__cxa_get_globals
                0x0000000140020890      0x200 D:/CODEX/Dev-Cpp/TDM-GCC3264/bin/../lib/gcc/x86_64-w64-mingw32/10.3.0\libstdc++.a(eh_globals.o)
                0x0000000140020890                __cxa_get_globals
 .text$__cxa_get_globals_fast
                0x0000000140020a90      0x140 D:/CODEX/Dev-Cpp/TDM-GCC3264/bin/../lib/gcc/x86_64-w64-mingw32/10.3.0\libstdc++.a(eh_globals.o)
                0x0000000140020a90                __cxa_get_globals_fast
 .text$__cxa_init_primary_exception
                0x0000000140020bd0       0x60 D:/CODEX/Dev-Cpp/TDM-GCC3264/bin/../lib/gcc/x86_64-w64-mingw32/10.3.0\libstdc++.a(eh_throw.o)
                0x0000000140020bd0                __cxa_init_primary_exception
 .text$__cxa_pure_virtual
                0x0000000140020c30       0x30 D:/CODEX/Dev-Cpp/TDM-GCC3264/bin/../lib/gcc/x86_64-w64-mingw32/10.3.0\libstdc++.a(pure.o)
                0x0000000140020c30                __cxa_pure_virtual
 .text$__cxa_rethrow
                0x0000000140020c60       0x50 D:/CODEX/Dev-Cpp/TDM-GCC3264/bin/../lib/gcc/x86_64-w64-mingw32/10.3.0\libstdc++.a(eh_throw.o)
                0x0000000140020c60                __cxa_rethrow
 .text$__cxa_throw
                0x0000000140020cb0       0x50 D:/CODEX/Dev-Cpp/TDM-GCC3264/bin/../lib/gcc/x86_64-w64-mingw32/10.3.0\libstdc++.a(eh_throw.o)
                0x0000000140020cb0                __cxa_throw
 .text$__gxx_personality_seh0
                0x0000000140020d00       0x20 D:/CODEX/Dev-Cpp/TDM-GCC3264/bin/../lib/gcc/x86_64-w64-mingw32/10.3.0\libstdc++.a(eh_personality.o)
                0x0000000140020d00                __gxx_personality_seh0
 .text$__shmem_init_eh_globals_eh_globals
                0x0000000140020d20       0x20 D:/CODEX/Dev-Cpp/TDM-GCC3264/bin/../lib/gcc/x86_64-w64-mingw32/10.3.0\libstdc++.a(eh_globals.o)
                0x0000000140020d20                __shmem_init_eh_globals_eh_globals
 .text$__shmem_init_eh_globals_init
                0x0000000140020d40       0x20 D:/CODEX/Dev-Cpp/TDM-GCC3264/bin/../lib/gcc/x86_64-w64-mingw32/10.3.0\libstdc++.a(eh_globals.o)
                0x0000000140020d40                __shmem_init_eh_globals_init
 .text$__shmem_init_eh_term_handler__terminate_handler
                0x0000000140020d60       0x20 D:/CODEX/Dev-Cpp/TDM-GCC3264/bin/../lib/gcc/x86_64-w64-mingw32/10.3.0\libstdc++.a(eh_term_handler.o)
                0x0000000140020d60                __shmem_init_eh_term_handler__terminate_handler
 .text$__shmem_init_eh_unex_handler__unexpected_handler
                0x0000000140020d80       0x20 D:/CODEX/Dev-Cpp/TDM-GCC3264/bin/../lib/gcc/x86_64-w64-mingw32/10.3.0\libstdc++.a(eh_unex_handler.o)
                0x0000000140020d80                __shmem_init_eh_unex_handler__unexpected_handler
 .text$__tcf_0  0x0000000140020da0       0x20 D:/CODEX/Dev-Cpp/TDM-GCC3264/bin/../lib/gcc/x86_64-w64-mingw32/10.3.0\libstdc++.a(eh_alloc.o)
 .text$__tcf_0  0x0000000140020dc0       0x30 D:/CODEX/Dev-Cpp/TDM-GCC3264/bin/../lib/gcc/x86_64-w64-mingw32/10.3.0\libstdc++.a(eh_globals.o)
 .text$wprintf  0x0000000140020df0       0x50 C:\Users\ARABBI~1\AppData\Local\Temp\main.exe.6iMB3F.ltrans0.ltrans.o
 *(.text.*)
 .text.startup.main
                0x0000000140020e40       0x20 C:\Users\ARABBI~1\AppData\Local\Temp\main.exe.6iMB3F.ltrans0.ltrans.o
                0x0000000140020e40                main
 .text.startup._GLOBAL__sub_I__ZN9__gnu_cxx9__freeresEv
                0x0000000140020e60       0x80 D:/CODEX/Dev-Cpp/TDM-GCC3264/bin/../lib/gcc/x86_64-w64-mingw32/10.3.0\libstdc++.a(eh_alloc.o)
 .text.unlikely
                0x0000000140020ee0       0xc0 D:/CODEX/Dev-Cpp/TDM-GCC3264/bin/../lib/gcc/x86_64-w64-mingw32/10.3.0\libstdc++.a(cp-demangle.o)
 .text.startup._GLOBAL__sub_I___shmem_eh_globals_eh_globals
                0x0000000140020fa0       0x40 D:/CODEX/Dev-Cpp/TDM-GCC3264/bin/../lib/gcc/x86_64-w64-mingw32/10.3.0\libstdc++.a(eh_globals.o)
 .text.unlikely
                0x0000000140020fe0       0x40 D:\CODEX\Dev-Cpp\TDM-GCC3264\x86_64-w64-mingw32\lib/libpthread.a(libwinpthread_la-thread.o)
 .text.startup  0x0000000140021020       0x10 D:/CODEX/Dev-Cpp/TDM-GCC3264/bin/../lib/gcc/x86_64-w64-mingw32/10.3.0/crtend.o
 *(.gnu.linkonce.t.*)
 *(.glue_7t)
 *(.glue_7)
                0x0000000140021030                . = ALIGN (0x8)
                0x0000000140021030                ___CTOR_LIST__ = .
                0x0000000140021030                __CTOR_LIST__ = .
                0x0000000140021030        0x4 LONG 0xffffffffffffffff
                0x0000000140021034        0x4 LONG 0xffffffffffffffff
 *(.ctors)
 .ctors         0x0000000140021038        0x8 D:/CODEX/Dev-Cpp/TDM-GCC3264/bin/../lib/gcc/x86_64-w64-mingw32/10.3.0\libstdc++.a(eh_alloc.o)
 .ctors         0x0000000140021040        0x8 D:/CODEX/Dev-Cpp/TDM-GCC3264/bin/../lib/gcc/x86_64-w64-mingw32/10.3.0\libstdc++.a(eh_globals.o)
 *(.ctor)
 *(SORT_BY_NAME(.ctors.*))
 .ctors.65535   0x0000000140021048        0x8 D:/CODEX/Dev-Cpp/TDM-GCC3264/bin/../lib/gcc/x86_64-w64-mingw32/10.3.0/crtend.o
                0x0000000140021050        0x4 LONG 0x0
                0x0000000140021054        0x4 LONG 0x0
                0x0000000140021058                ___DTOR_LIST__ = .
                0x0000000140021058                __DTOR_LIST__ = .
                0x0000000140021058        0x4 LONG 0xffffffffffffffff
                0x000000014002105c        0x4 LONG 0xffffffffffffffff
 *(.dtors)
 *(.dtor)
 *(SORT_BY_NAME(.dtors.*))
                0x0000000140021060        0x4 LONG 0x0
                0x0000000140021064        0x4 LONG 0x0
 *(SORT_NONE(.fini))
 *(.gcc_exc)
                [!provide]                        PROVIDE (etext = .)
 *(.gcc_except_table)

.data           0x0000000140022000      0x200
                0x0000000140022000                __data_start__ = .
 *(.data)
 .data          0x0000000140022000       0x10 D:/CODEX/Dev-Cpp/TDM-GCC3264/bin/../lib/gcc/x86_64-w64-mingw32/10.3.0/../../../../x86_64-w64-mingw32/lib/../lib/crt2.o
                0x0000000140022000                __mingw_winmain_nShowCmd
 .data          0x0000000140022010       0x10 D:\CODEX\Dev-Cpp\TDM-GCC3264\x86_64-w64-mingw32\lib/libmingw32.a(lib64_libmingw32_a-gccmain.o)
 .data          0x0000000140022020       0x10 D:\CODEX\Dev-Cpp\TDM-GCC3264\x86_64-w64-mingw32\lib/libmingw32.a(lib64_libmingw32_a-wildcard.o)
                0x0000000140022020                _dowildcard
 .data          0x0000000140022030       0x10 D:\CODEX\Dev-Cpp\TDM-GCC3264\x86_64-w64-mingw32\lib/libmingw32.a(lib64_libmingw32_a-tlsmcrt.o)
                0x0000000140022030                _CRT_MT
 .data          0x0000000140022040       0x20 D:\CODEX\Dev-Cpp\TDM-GCC3264\x86_64-w64-mingw32\lib/libpthread.a(libwinpthread_la-thread.o)
                0x0000000140022040                __shmem_once_global_shmem
                0x0000000140022048                __shmem_mtx_pthr_locked_shmem
                0x0000000140022050                __shmem__pthread_key_lock_shmem
                0x0000000140022058                __shmem__pthread_tls_shmem
 .data          0x0000000140022060       0x10 D:\CODEX\Dev-Cpp\TDM-GCC3264\x86_64-w64-mingw32\lib/libpthread.a(libwinpthread_la-rwlock.o)
                0x0000000140022060                __shmem_cond_locked_shmem_rwlock
                0x0000000140022068                __shmem_rwl_global_shmem
 .data          0x0000000140022070       0x10 D:\CODEX\Dev-Cpp\TDM-GCC3264\x86_64-w64-mingw32\lib/libpthread.a(libwinpthread_la-cond.o)
                0x0000000140022070                __shmem_cond_locked_shmem_cond
 .data          0x0000000140022080       0x10 D:\CODEX\Dev-Cpp\TDM-GCC3264\x86_64-w64-mingw32\lib/libmingwex.a(lib64_libmingwex_a-mingw_matherr.o)
                0x0000000140022080                _MINGW_INSTALL_DEBUG_MATHERR
 .data          0x0000000140022090       0x20 D:\CODEX\Dev-Cpp\TDM-GCC3264\x86_64-w64-mingw32\lib/libmingwex.a(lib64_libmingwex_a-mingw_pformat.o)
 .data          0x00000001400220b0       0x20 D:\CODEX\Dev-Cpp\TDM-GCC3264\x86_64-w64-mingw32\lib/libmingwex.a(lib64_libmingwex_a-mingw_pformatw.o)
 .data          0x00000001400220d0       0x10 D:\CODEX\Dev-Cpp\TDM-GCC3264\x86_64-w64-mingw32\lib/libmingwex.a(lib64_libmingwex_a-misc.o)
 .data          0x00000001400220e0       0x10 D:\CODEX\Dev-Cpp\TDM-GCC3264\x86_64-w64-mingw32\lib/libmsvcrt.a(lib64_libmsvcrt_os_a-acrt_iob_func.o)
                0x00000001400220e0                __imp___acrt_iob_func
 *(.data2)
 *(SORT_BY_NAME(.data$*))
 .data$.LDFCM0  0x00000001400220f0       0x10 D:/CODEX/Dev-Cpp/TDM-GCC3264/bin/../lib/gcc/x86_64-w64-mingw32/10.3.0\libstdc++.a(vterminate.o)
 .data$_ZN10__cxxabiv142__shmem_eh_term_handler__terminate_handlerE
                0x0000000140022100       0x10 D:/CODEX/Dev-Cpp/TDM-GCC3264/bin/../lib/gcc/x86_64-w64-mingw32/10.3.0\libstdc++.a(eh_term_handler.o)
                0x0000000140022100                __cxxabiv1::__shmem_eh_term_handler__terminate_handler
 .data$_ZN10__cxxabiv143__shmem_eh_unex_handler__unexpected_handlerE
                0x0000000140022110       0x10 D:/CODEX/Dev-Cpp/TDM-GCC3264/bin/../lib/gcc/x86_64-w64-mingw32/10.3.0\libstdc++.a(eh_unex_handler.o)
                0x0000000140022110                __cxxabiv1::__shmem_eh_unex_handler__unexpected_handler
 .data$_ZN12_GLOBAL__N_113__new_handlerE
                0x0000000140022120       0x10 D:/CODEX/Dev-Cpp/TDM-GCC3264/bin/../lib/gcc/x86_64-w64-mingw32/10.3.0\libstdc++.a(new_handler.o)
 *fill*         0x0000000140022130       0x10 
 .data$_ZN12_GLOBAL__N_114emergency_poolE
                0x0000000140022140       0x20 D:/CODEX/Dev-Cpp/TDM-GCC3264/bin/../lib/gcc/x86_64-w64-mingw32/10.3.0\libstdc++.a(eh_alloc.o)
 .data$_ZZN9__gnu_cxx27__verbose_terminate_handlerEvE11terminating
                0x0000000140022160       0x10 D:/CODEX/Dev-Cpp/TDM-GCC3264/bin/../lib/gcc/x86_64-w64-mingw32/10.3.0\libstdc++.a(vterminate.o)
 .data$__shmem_eh_globals_eh_globals
                0x0000000140022170       0x10 D:/CODEX/Dev-Cpp/TDM-GCC3264/bin/../lib/gcc/x86_64-w64-mingw32/10.3.0\libstdc++.a(eh_globals.o)
                0x0000000140022170                __shmem_eh_globals_eh_globals
 .data$__shmem_eh_globals_init
                0x0000000140022180       0x10 D:/CODEX/Dev-Cpp/TDM-GCC3264/bin/../lib/gcc/x86_64-w64-mingw32/10.3.0\libstdc++.a(eh_globals.o)
                0x0000000140022180                __shmem_eh_globals_init
 *(.jcr)
                0x0000000140022190                __data_end__ = .
 *(.data_cygwin_nocopy)

.rdata          0x0000000140023000     0x3800
 *(.rdata)
 .rdata         0x0000000140023000      0x590 C:\Users\ARABBI~1\AppData\Local\Temp\main.exe.6iMB3F.ltrans0.ltrans.o
 .rdata         0x0000000140023590       0x10 D:/CODEX/Dev-Cpp/TDM-GCC3264/bin/../lib/gcc/x86_64-w64-mingw32/10.3.0\libstdc++.a(bad_alloc.o)
 .rdata         0x00000001400235a0       0x50 D:/CODEX/Dev-Cpp/TDM-GCC3264/bin/../lib/gcc/x86_64-w64-mingw32/10.3.0\libstdc++.a(eh_alloc.o)
 .rdata         0x00000001400235f0       0x30 D:/CODEX/Dev-Cpp/TDM-GCC3264/bin/../lib/gcc/x86_64-w64-mingw32/10.3.0\libstdc++.a(eh_exception.o)
 .rdata         0x0000000140023620       0x40 D:/CODEX/Dev-Cpp/TDM-GCC3264/bin/../lib/gcc/x86_64-w64-mingw32/10.3.0\libstdc++.a(eh_personality.o)
 .rdata         0x0000000140023660       0x40 D:/CODEX/Dev-Cpp/TDM-GCC3264/bin/../lib/gcc/x86_64-w64-mingw32/10.3.0\libstdc++.a(pure.o)
 .rdata         0x00000001400236a0       0xa0 D:/CODEX/Dev-Cpp/TDM-GCC3264/bin/../lib/gcc/x86_64-w64-mingw32/10.3.0\libstdc++.a(vterminate.o)
 .rdata         0x0000000140023740     0x1dc0 D:/CODEX/Dev-Cpp/TDM-GCC3264/bin/../lib/gcc/x86_64-w64-mingw32/10.3.0\libstdc++.a(cp-demangle.o)
 .rdata         0x0000000140025500       0x60 D:\CODEX\Dev-Cpp\TDM-GCC3264\x86_64-w64-mingw32\lib/libmingw32.a(lib64_libmingw32_a-tlssup.o)
                0x0000000140025500                __dyn_tls_init_callback
                0x0000000140025520                _tls_used
 .rdata         0x0000000140025560      0x140 D:\CODEX\Dev-Cpp\TDM-GCC3264\x86_64-w64-mingw32\lib/libmingw32.a(lib64_libmingw32_a-merr.o)
 .rdata         0x00000001400256a0      0x110 D:\CODEX\Dev-Cpp\TDM-GCC3264\x86_64-w64-mingw32\lib/libmingw32.a(lib64_libmingw32_a-pseudo-reloc.o)
 .rdata         0x00000001400257b0       0x30 D:\CODEX\Dev-Cpp\TDM-GCC3264\x86_64-w64-mingw32\lib/libmingw32.a(lib64_libmingw32_a-crt_handler.o)
 .rdata         0x00000001400257e0       0xb0 D:/CODEX/Dev-Cpp/TDM-GCC3264/bin/../lib/gcc/x86_64-w64-mingw32/10.3.0/libgcc.a(eh_shmem3_mingw.o)
 .rdata         0x0000000140025890       0x50 D:\CODEX\Dev-Cpp\TDM-GCC3264\x86_64-w64-mingw32\lib/libpthread.a(libwinpthread_la-thread.o)
 .rdata         0x00000001400258e0       0xb0 D:\CODEX\Dev-Cpp\TDM-GCC3264\x86_64-w64-mingw32\lib/libpthread.a(libwinpthread_la-shmem3_mingw.o)
 .rdata         0x0000000140025990      0x110 D:\CODEX\Dev-Cpp\TDM-GCC3264\x86_64-w64-mingw32\lib/libpthread.a(libwinpthread_la-rwlock.o)
 .rdata         0x0000000140025aa0       0x30 D:\CODEX\Dev-Cpp\TDM-GCC3264\x86_64-w64-mingw32\lib/libpthread.a(libwinpthread_la-cond.o)
 .rdata         0x0000000140025ad0      0x190 D:\CODEX\Dev-Cpp\TDM-GCC3264\x86_64-w64-mingw32\lib/libmingwex.a(lib64_libmingwex_a-mingw_pformat.o)
 .rdata         0x0000000140025c60      0x1e0 D:\CODEX\Dev-Cpp\TDM-GCC3264\x86_64-w64-mingw32\lib/libmingwex.a(lib64_libmingwex_a-mingw_pformatw.o)
 .rdata         0x0000000140025e40       0x90 D:\CODEX\Dev-Cpp\TDM-GCC3264\x86_64-w64-mingw32\lib/libmingwex.a(lib64_libmingwex_a-gdtoa.o)
 *fill*         0x0000000140025ed0       0x10 
 .rdata         0x0000000140025ee0      0x160 D:\CODEX\Dev-Cpp\TDM-GCC3264\x86_64-w64-mingw32\lib/libmingwex.a(lib64_libmingwex_a-misc.o)
                0x0000000140025f00                __tens_D2A
                0x0000000140025fc0                __tinytens_D2A
                0x0000000140026000                __bigtens_D2A
 *(SORT_BY_NAME(.rdata$*))
 .rdata$.refptr._CRT_MT
                0x0000000140026040       0x10 D:\CODEX\Dev-Cpp\TDM-GCC3264\x86_64-w64-mingw32\lib/libmingw32.a(lib64_libmingw32_a-tlssup.o)
                0x0000000140026040                .refptr._CRT_MT
 .rdata$.refptr._MINGW_INSTALL_DEBUG_MATHERR
                0x0000000140026050       0x10 D:/CODEX/Dev-Cpp/TDM-GCC3264/bin/../lib/gcc/x86_64-w64-mingw32/10.3.0/../../../../x86_64-w64-mingw32/lib/../lib/crt2.o
                0x0000000140026050                .refptr._MINGW_INSTALL_DEBUG_MATHERR
 .rdata$.refptr._ZTVSt13bad_exception
                0x0000000140026060       0x10 D:/CODEX/Dev-Cpp/TDM-GCC3264/bin/../lib/gcc/x86_64-w64-mingw32/10.3.0\libstdc++.a(eh_personality.o)
                0x0000000140026060                .refptr._ZTVSt13bad_exception
 .rdata$.refptr._ZTVSt9bad_alloc
                0x0000000140026070       0x10 D:/CODEX/Dev-Cpp/TDM-GCC3264/bin/../lib/gcc/x86_64-w64-mingw32/10.3.0\libstdc++.a(new_op.o)
                0x0000000140026070                .refptr._ZTVSt9bad_alloc
 .rdata$.refptr.__CTOR_LIST__
                0x0000000140026080       0x10 D:\CODEX\Dev-Cpp\TDM-GCC3264\x86_64-w64-mingw32\lib/libmingw32.a(lib64_libmingw32_a-gccmain.o)
                0x0000000140026080                .refptr.__CTOR_LIST__
 .rdata$.refptr.__RUNTIME_PSEUDO_RELOC_LIST_END__
                0x0000000140026090       0x10 D:\CODEX\Dev-Cpp\TDM-GCC3264\x86_64-w64-mingw32\lib/libmingw32.a(lib64_libmingw32_a-pseudo-reloc.o)
                0x0000000140026090                .refptr.__RUNTIME_PSEUDO_RELOC_LIST_END__
 .rdata$.refptr.__RUNTIME_PSEUDO_RELOC_LIST__
                0x00000001400260a0       0x10 D:\CODEX\Dev-Cpp\TDM-GCC3264\x86_64-w64-mingw32\lib/libmingw32.a(lib64_libmingw32_a-pseudo-reloc.o)
                0x00000001400260a0                .refptr.__RUNTIME_PSEUDO_RELOC_LIST__
 .rdata$.refptr.__dyn_tls_init_callback
                0x00000001400260b0       0x10 D:/CODEX/Dev-Cpp/TDM-GCC3264/bin/../lib/gcc/x86_64-w64-mingw32/10.3.0/../../../../x86_64-w64-mingw32/lib/../lib/crt2.o
                0x00000001400260b0                .refptr.__dyn_tls_init_callback
 .rdata$.refptr.__eh_shmem3_gcc_tdm_local_shmem_region
                0x00000001400260c0       0x10 D:/CODEX/Dev-Cpp/TDM-GCC3264/bin/../lib/gcc/x86_64-w64-mingw32/10.3.0\libstdc++.a(eh_terminate.o)
                0x00000001400260c0                .refptr.__eh_shmem3_gcc_tdm_local_shmem_region
 .rdata$.refptr.__image_base__
                0x00000001400260d0       0x10 D:/CODEX/Dev-Cpp/TDM-GCC3264/bin/../lib/gcc/x86_64-w64-mingw32/10.3.0/../../../../x86_64-w64-mingw32/lib/../lib/crt2.o
                0x00000001400260d0                .refptr.__image_base__
 .rdata$.refptr.__imp___initenv
                0x00000001400260e0       0x10 D:/CODEX/Dev-Cpp/TDM-GCC3264/bin/../lib/gcc/x86_64-w64-mingw32/10.3.0/../../../../x86_64-w64-mingw32/lib/../lib/crt2.o
                0x00000001400260e0                .refptr.__imp___initenv
 .rdata$.refptr.__imp__acmdln
                0x00000001400260f0       0x10 D:\CODEX\Dev-Cpp\TDM-GCC3264\x86_64-w64-mingw32\lib/libmsvcrt.a(lib64_libmsvcrt_os_a-__p__acmdln.o)
                0x00000001400260f0                .refptr.__imp__acmdln
 .rdata$.refptr.__imp__commode
                0x0000000140026100       0x10 D:\CODEX\Dev-Cpp\TDM-GCC3264\x86_64-w64-mingw32\lib/libmsvcrt.a(lib64_libmsvcrt_os_a-__p__commode.o)
                0x0000000140026100                .refptr.__imp__commode
 .rdata$.refptr.__imp__fmode
                0x0000000140026110       0x10 D:\CODEX\Dev-Cpp\TDM-GCC3264\x86_64-w64-mingw32\lib/libmsvcrt.a(lib64_libmsvcrt_os_a-__p__fmode.o)
                0x0000000140026110                .refptr.__imp__fmode
 .rdata$.refptr.__mingw_oldexcpt_handler
                0x0000000140026120       0x10 D:/CODEX/Dev-Cpp/TDM-GCC3264/bin/../lib/gcc/x86_64-w64-mingw32/10.3.0/../../../../x86_64-w64-mingw32/lib/../lib/crt2.o
                0x0000000140026120                .refptr.__mingw_oldexcpt_handler
 .rdata$.refptr.__native_startup_lock
                0x0000000140026130       0x10 D:/CODEX/Dev-Cpp/TDM-GCC3264/bin/../lib/gcc/x86_64-w64-mingw32/10.3.0/../../../../x86_64-w64-mingw32/lib/../lib/crt2.o
                0x0000000140026130                .refptr.__native_startup_lock
 .rdata$.refptr.__native_startup_state
                0x0000000140026140       0x10 D:/CODEX/Dev-Cpp/TDM-GCC3264/bin/../lib/gcc/x86_64-w64-mingw32/10.3.0/../../../../x86_64-w64-mingw32/lib/../lib/crt2.o
                0x0000000140026140                .refptr.__native_startup_state
 .rdata$.refptr.__shmem3_winpthreads_tdm_local_shmem_region
                0x0000000140026150       0x10 D:\CODEX\Dev-Cpp\TDM-GCC3264\x86_64-w64-mingw32\lib/libpthread.a(libwinpthread_la-thread.o)
                0x0000000140026150                .refptr.__shmem3_winpthreads_tdm_local_shmem_region
 .rdata$.refptr.__tens_D2A
                0x0000000140026160       0x10 D:\CODEX\Dev-Cpp\TDM-GCC3264\x86_64-w64-mingw32\lib/libmingwex.a(lib64_libmingwex_a-gdtoa.o)
                0x0000000140026160                .refptr.__tens_D2A
 .rdata$.refptr.__xc_a
                0x0000000140026170       0x10 D:/CODEX/Dev-Cpp/TDM-GCC3264/bin/../lib/gcc/x86_64-w64-mingw32/10.3.0/../../../../x86_64-w64-mingw32/lib/../lib/crt2.o
                0x0000000140026170                .refptr.__xc_a
 .rdata$.refptr.__xc_z
                0x0000000140026180       0x10 D:/CODEX/Dev-Cpp/TDM-GCC3264/bin/../lib/gcc/x86_64-w64-mingw32/10.3.0/../../../../x86_64-w64-mingw32/lib/../lib/crt2.o
                0x0000000140026180                .refptr.__xc_z
 .rdata$.refptr.__xi_a
                0x0000000140026190       0x10 D:/CODEX/Dev-Cpp/TDM-GCC3264/bin/../lib/gcc/x86_64-w64-mingw32/10.3.0/../../../../x86_64-w64-mingw32/lib/../lib/crt2.o
                0x0000000140026190                .refptr.__xi_a
 .rdata$.refptr.__xi_z
                0x00000001400261a0       0x10 D:/CODEX/Dev-Cpp/TDM-GCC3264/bin/../lib/gcc/x86_64-w64-mingw32/10.3.0/../../../../x86_64-w64-mingw32/lib/../lib/crt2.o
                0x00000001400261a0                .refptr.__xi_z
 .rdata$.refptr._commode
                0x00000001400261b0       0x10 D:/CODEX/Dev-Cpp/TDM-GCC3264/bin/../lib/gcc/x86_64-w64-mingw32/10.3.0/../../../../x86_64-w64-mingw32/lib/../lib/crt2.o
                0x00000001400261b0                .refptr._commode
 .rdata$.refptr._dowildcard
                0x00000001400261c0       0x10 D:/CODEX/Dev-Cpp/TDM-GCC3264/bin/../lib/gcc/x86_64-w64-mingw32/10.3.0/../../../../x86_64-w64-mingw32/lib/../lib/crt2.o
                0x00000001400261c0                .refptr._dowildcard
 .rdata$.refptr._fmode
                0x00000001400261d0       0x10 D:/CODEX/Dev-Cpp/TDM-GCC3264/bin/../lib/gcc/x86_64-w64-mingw32/10.3.0/../../../../x86_64-w64-mingw32/lib/../lib/crt2.o
                0x00000001400261d0                .refptr._fmode
 .rdata$.refptr._newmode
                0x00000001400261e0       0x10 D:/CODEX/Dev-Cpp/TDM-GCC3264/bin/../lib/gcc/x86_64-w64-mingw32/10.3.0/../../../../x86_64-w64-mingw32/lib/../lib/crt2.o
                0x00000001400261e0                .refptr._newmode
 .rdata$.refptr.mingw_app_type
                0x00000001400261f0       0x10 D:/CODEX/Dev-Cpp/TDM-GCC3264/bin/../lib/gcc/x86_64-w64-mingw32/10.3.0/../../../../x86_64-w64-mingw32/lib/../lib/crt2.o
                0x00000001400261f0                .refptr.mingw_app_type
 .rdata$.refptr.mingw_initcharmax
                0x0000000140026200       0x10 D:/CODEX/Dev-Cpp/TDM-GCC3264/bin/../lib/gcc/x86_64-w64-mingw32/10.3.0/../../../../x86_64-w64-mingw32/lib/../lib/crt2.o
                0x0000000140026200                .refptr.mingw_initcharmax
 .rdata$.refptr.mingw_initltsdrot_force
                0x0000000140026210       0x10 D:/CODEX/Dev-Cpp/TDM-GCC3264/bin/../lib/gcc/x86_64-w64-mingw32/10.3.0/../../../../x86_64-w64-mingw32/lib/../lib/crt2.o
                0x0000000140026210                .refptr.mingw_initltsdrot_force
 .rdata$.refptr.mingw_initltsdyn_force
                0x0000000140026220       0x10 D:/CODEX/Dev-Cpp/TDM-GCC3264/bin/../lib/gcc/x86_64-w64-mingw32/10.3.0/../../../../x86_64-w64-mingw32/lib/../lib/crt2.o
                0x0000000140026220                .refptr.mingw_initltsdyn_force
 .rdata$.refptr.mingw_initltssuo_force
                0x0000000140026230       0x10 D:/CODEX/Dev-Cpp/TDM-GCC3264/bin/../lib/gcc/x86_64-w64-mingw32/10.3.0/../../../../x86_64-w64-mingw32/lib/../lib/crt2.o
                0x0000000140026230                .refptr.mingw_initltssuo_force
 .rdata$_ZTIN10__cxxabiv115__forced_unwindE
                0x0000000140026240       0x10 D:/CODEX/Dev-Cpp/TDM-GCC3264/bin/../lib/gcc/x86_64-w64-mingw32/10.3.0\libstdc++.a(eh_exception.o)
                0x0000000140026240                typeinfo for __cxxabiv1::__forced_unwind
 .rdata$_ZTIN10__cxxabiv117__class_type_infoE
                0x0000000140026250       0x20 D:/CODEX/Dev-Cpp/TDM-GCC3264/bin/../lib/gcc/x86_64-w64-mingw32/10.3.0\libstdc++.a(si_class_type_info.o)
                0x0000000140026250                typeinfo for __cxxabiv1::__class_type_info
 .rdata$_ZTIN10__cxxabiv119__foreign_exceptionE
                0x0000000140026270       0x10 D:/CODEX/Dev-Cpp/TDM-GCC3264/bin/../lib/gcc/x86_64-w64-mingw32/10.3.0\libstdc++.a(eh_exception.o)
                0x0000000140026270                typeinfo for __cxxabiv1::__foreign_exception
 .rdata$_ZTIN10__cxxabiv120__si_class_type_infoE
                0x0000000140026280       0x20 D:/CODEX/Dev-Cpp/TDM-GCC3264/bin/../lib/gcc/x86_64-w64-mingw32/10.3.0\libstdc++.a(si_class_type_info.o)
                0x0000000140026280                typeinfo for __cxxabiv1::__si_class_type_info
 .rdata$_ZTIN9__gnu_cxx24__concurrence_lock_errorE
                0x00000001400262a0       0x20 D:/CODEX/Dev-Cpp/TDM-GCC3264/bin/../lib/gcc/x86_64-w64-mingw32/10.3.0\libstdc++.a(eh_alloc.o)
                0x00000001400262a0                typeinfo for __gnu_cxx::__concurrence_lock_error
 .rdata$_ZTIN9__gnu_cxx26__concurrence_unlock_errorE
                0x00000001400262c0       0x20 D:/CODEX/Dev-Cpp/TDM-GCC3264/bin/../lib/gcc/x86_64-w64-mingw32/10.3.0\libstdc++.a(eh_alloc.o)
                0x00000001400262c0                typeinfo for __gnu_cxx::__concurrence_unlock_error
 .rdata$_ZTISt13bad_exception
                0x00000001400262e0       0x20 D:/CODEX/Dev-Cpp/TDM-GCC3264/bin/../lib/gcc/x86_64-w64-mingw32/10.3.0\libstdc++.a(eh_exception.o)
                0x00000001400262e0                typeinfo for std::bad_exception
 .rdata$_ZTISt9bad_alloc
                0x0000000140026300       0x20 D:/CODEX/Dev-Cpp/TDM-GCC3264/bin/../lib/gcc/x86_64-w64-mingw32/10.3.0\libstdc++.a(new_op.o)
                0x0000000140026300                typeinfo for std::bad_alloc
 .rdata$_ZTISt9exception
                0x0000000140026320       0x10 D:/CODEX/Dev-Cpp/TDM-GCC3264/bin/../lib/gcc/x86_64-w64-mingw32/10.3.0\libstdc++.a(new_op.o)
                0x0000000140026320                typeinfo for std::exception
 .rdata$_ZTISt9type_info
                0x0000000140026330       0x10 D:/CODEX/Dev-Cpp/TDM-GCC3264/bin/../lib/gcc/x86_64-w64-mingw32/10.3.0\libstdc++.a(si_class_type_info.o)
                0x0000000140026330                typeinfo for std::type_info
 .rdata$_ZTSN10__cxxabiv115__forced_unwindE
                0x0000000140026340       0x20 D:/CODEX/Dev-Cpp/TDM-GCC3264/bin/../lib/gcc/x86_64-w64-mingw32/10.3.0\libstdc++.a(eh_exception.o)
                0x0000000140026340                typeinfo name for __cxxabiv1::__forced_unwind
 .rdata$_ZTSN10__cxxabiv117__class_type_infoE
                0x0000000140026360       0x40 D:/CODEX/Dev-Cpp/TDM-GCC3264/bin/../lib/gcc/x86_64-w64-mingw32/10.3.0\libstdc++.a(si_class_type_info.o)
                0x0000000140026360                typeinfo name for __cxxabiv1::__class_type_info
 .rdata$_ZTSN10__cxxabiv119__foreign_exceptionE
                0x00000001400263a0       0x40 D:/CODEX/Dev-Cpp/TDM-GCC3264/bin/../lib/gcc/x86_64-w64-mingw32/10.3.0\libstdc++.a(eh_exception.o)
                0x00000001400263a0                typeinfo name for __cxxabiv1::__foreign_exception
 .rdata$_ZTSN10__cxxabiv120__si_class_type_infoE
                0x00000001400263e0       0x40 D:/CODEX/Dev-Cpp/TDM-GCC3264/bin/../lib/gcc/x86_64-w64-mingw32/10.3.0\libstdc++.a(si_class_type_info.o)
                0x00000001400263e0                typeinfo name for __cxxabiv1::__si_class_type_info
 .rdata$_ZTSN9__gnu_cxx24__concurrence_lock_errorE
                0x0000000140026420       0x40 D:/CODEX/Dev-Cpp/TDM-GCC3264/bin/../lib/gcc/x86_64-w64-mingw32/10.3.0\libstdc++.a(eh_alloc.o)
                0x0000000140026420                typeinfo name for __gnu_cxx::__concurrence_lock_error
 .rdata$_ZTSN9__gnu_cxx26__concurrence_unlock_errorE
                0x0000000140026460       0x40 D:/CODEX/Dev-Cpp/TDM-GCC3264/bin/../lib/gcc/x86_64-w64-mingw32/10.3.0\libstdc++.a(eh_alloc.o)
                0x0000000140026460                typeinfo name for __gnu_cxx::__concurrence_unlock_error
 .rdata$_ZTSSt13bad_exception
                0x00000001400264a0       0x20 D:/CODEX/Dev-Cpp/TDM-GCC3264/bin/../lib/gcc/x86_64-w64-mingw32/10.3.0\libstdc++.a(eh_exception.o)
                0x00000001400264a0                typeinfo name for std::bad_exception
 .rdata$_ZTSSt9bad_alloc
                0x00000001400264c0       0x10 D:/CODEX/Dev-Cpp/TDM-GCC3264/bin/../lib/gcc/x86_64-w64-mingw32/10.3.0\libstdc++.a(new_op.o)
                0x00000001400264c0                typeinfo name for std::bad_alloc
 .rdata$_ZTSSt9exception
                0x00000001400264d0       0x10 D:/CODEX/Dev-Cpp/TDM-GCC3264/bin/../lib/gcc/x86_64-w64-mingw32/10.3.0\libstdc++.a(new_op.o)
                0x00000001400264d0                typeinfo name for std::exception
 .rdata$_ZTSSt9type_info
                0x00000001400264e0       0x10 D:/CODEX/Dev-Cpp/TDM-GCC3264/bin/../lib/gcc/x86_64-w64-mingw32/10.3.0\libstdc++.a(si_class_type_info.o)
                0x00000001400264e0                typeinfo name for std::type_info
 .rdata$_ZTVN10__cxxabiv117__class_type_infoE
                0x00000001400264f0       0x60 D:/CODEX/Dev-Cpp/TDM-GCC3264/bin/../lib/gcc/x86_64-w64-mingw32/10.3.0\libstdc++.a(class_type_info.o)
                0x00000001400264f0                vtable for __cxxabiv1::__class_type_info
 .rdata$_ZTVN10__cxxabiv120__si_class_type_infoE
                0x0000000140026550       0x60 D:/CODEX/Dev-Cpp/TDM-GCC3264/bin/../lib/gcc/x86_64-w64-mingw32/10.3.0\libstdc++.a(si_class_type_info.o)
                0x0000000140026550                vtable for __cxxabiv1::__si_class_type_info
 .rdata$_ZTVN9__gnu_cxx24__concurrence_lock_errorE
                0x00000001400265b0       0x30 D:/CODEX/Dev-Cpp/TDM-GCC3264/bin/../lib/gcc/x86_64-w64-mingw32/10.3.0\libstdc++.a(eh_alloc.o)
                0x00000001400265b0                vtable for __gnu_cxx::__concurrence_lock_error
 .rdata$_ZTVN9__gnu_cxx26__concurrence_unlock_errorE
                0x00000001400265e0       0x30 D:/CODEX/Dev-Cpp/TDM-GCC3264/bin/../lib/gcc/x86_64-w64-mingw32/10.3.0\libstdc++.a(eh_alloc.o)
                0x00000001400265e0                vtable for __gnu_cxx::__concurrence_unlock_error
 .rdata$_ZTVSt13bad_exception
                0x0000000140026610       0x30 D:/CODEX/Dev-Cpp/TDM-GCC3264/bin/../lib/gcc/x86_64-w64-mingw32/10.3.0\libstdc++.a(eh_exception.o)
                0x0000000140026610                vtable for std::bad_exception
 .rdata$_ZTVSt9bad_alloc
                0x0000000140026640       0x30 D:/CODEX/Dev-Cpp/TDM-GCC3264/bin/../lib/gcc/x86_64-w64-mingw32/10.3.0\libstdc++.a(bad_alloc.o)
                0x0000000140026640                vtable for std::bad_alloc
                0x0000000140026670                . = ALIGN (0x4)
                0x0000000140026670                __rt_psrelocs_start = .
 *(.rdata_runtime_pseudo_reloc)
                0x0000000140026670                __rt_psrelocs_end = .
                0x0000000000000000                __rt_psrelocs_size = (__rt_psrelocs_end - __rt_psrelocs_start)
                0x0000000140026670                ___RUNTIME_PSEUDO_RELOC_LIST_END__ = .
                0x0000000140026670                __RUNTIME_PSEUDO_RELOC_LIST_END__ = .
                0x0000000140026670                ___RUNTIME_PSEUDO_RELOC_LIST__ = (. - __rt_psrelocs_size)
                0x0000000140026670                __RUNTIME_PSEUDO_RELOC_LIST__ = (. - __rt_psrelocs_size)

.eh_frame
 *(.eh_frame*)

.pdata          0x0000000140027000     0x1600
 *(.pdata*)
 .pdata         0x0000000140027000       0x54 D:/CODEX/Dev-Cpp/TDM-GCC3264/bin/../lib/gcc/x86_64-w64-mingw32/10.3.0/../../../../x86_64-w64-mingw32/lib/../lib/crt2.o
 .pdata         0x0000000140027054       0x18 D:/CODEX/Dev-Cpp/TDM-GCC3264/bin/../lib/gcc/x86_64-w64-mingw32/10.3.0/crtbegin.o
 .pdata$_Z6sigmaFP7MATHrawh
                0x000000014002706c        0xc C:\Users\ARABBI~1\AppData\Local\Temp\main.exe.6iMB3F.ltrans0.ltrans.o
 .pdata$wprintf
                0x0000000140027078        0xc C:\Users\ARABBI~1\AppData\Local\Temp\main.exe.6iMB3F.ltrans0.ltrans.o
 .pdata$_ZN13MATHcontainerD1Ev
                0x0000000140027084        0xc C:\Users\ARABBI~1\AppData\Local\Temp\main.exe.6iMB3F.ltrans0.ltrans.o
 .pdata$_ZN15lsMATHstaticstr4findEPKw
                0x0000000140027090        0xc C:\Users\ARABBI~1\AppData\Local\Temp\main.exe.6iMB3F.ltrans0.ltrans.o
 .pdata$_ZN7MATHenv6getvalEPKw
                0x000000014002709c        0xc C:\Users\ARABBI~1\AppData\Local\Temp\main.exe.6iMB3F.ltrans0.ltrans.o
 .pdata$_ZN7MATHenv6setvalEPKw7MATHraw.constprop.0.isra.0
                0x00000001400270a8        0xc C:\Users\ARABBI~1\AppData\Local\Temp\main.exe.6iMB3F.ltrans0.ltrans.o
 .pdata$_ZN8MATHnode4callEP13MATHcontainerP7MATHenvS1_
                0x00000001400270b4        0xc C:\Users\ARABBI~1\AppData\Local\Temp\main.exe.6iMB3F.ltrans0.ltrans.o
 .pdata$_ZN10lsMATHnode4callEv
                0x00000001400270c0        0xc C:\Users\ARABBI~1\AppData\Local\Temp\main.exe.6iMB3F.ltrans0.ltrans.o
 .pdata$_ZN10lsMATHnodeD1Ev
                0x00000001400270cc        0xc C:\Users\ARABBI~1\AppData\Local\Temp\main.exe.6iMB3F.ltrans0.ltrans.o
 .pdata$_Z4errWPKw.part.0
                0x00000001400270d8        0xc C:\Users\ARABBI~1\AppData\Local\Temp\main.exe.6iMB3F.ltrans0.ltrans.o
 .pdata$_Z4errWPKw
                0x00000001400270e4        0xc C:\Users\ARABBI~1\AppData\Local\Temp\main.exe.6iMB3F.ltrans0.ltrans.o
 .pdata$_ZN13MATHcontainerC4Eyf
                0x00000001400270f0        0xc C:\Users\ARABBI~1\AppData\Local\Temp\main.exe.6iMB3F.ltrans0.ltrans.o
 .pdata$_ZN15lsMATHstaticstrC4Ev
                0x00000001400270fc        0xc C:\Users\ARABBI~1\AppData\Local\Temp\main.exe.6iMB3F.ltrans0.ltrans.o
 .pdata$_ZN10lsMATHnodeC4Ev
                0x0000000140027108        0xc C:\Users\ARABBI~1\AppData\Local\Temp\main.exe.6iMB3F.ltrans0.ltrans.o
 .pdata$_ZN13MATHcontainer6appendEPvy
                0x0000000140027114        0xc C:\Users\ARABBI~1\AppData\Local\Temp\main.exe.6iMB3F.ltrans0.ltrans.o
 .pdata$_ZN10lsMATHnode5trackEhy
                0x0000000140027120        0xc C:\Users\ARABBI~1\AppData\Local\Temp\main.exe.6iMB3F.ltrans0.ltrans.o
 .pdata$_ZN10lsMATHnode7addnodeEfh
                0x000000014002712c        0xc C:\Users\ARABBI~1\AppData\Local\Temp\main.exe.6iMB3F.ltrans0.ltrans.o
 .pdata$_ZN10lsMATHnode7addnodeEPF7MATHrawPS0_hEhh.constprop.0
                0x0000000140027138        0xc C:\Users\ARABBI~1\AppData\Local\Temp\main.exe.6iMB3F.ltrans0.ltrans.o
 .pdata$_ZN15lsMATHstaticstr6addstrEPKw.isra.0
                0x0000000140027144        0xc C:\Users\ARABBI~1\AppData\Local\Temp\main.exe.6iMB3F.ltrans0.ltrans.o
 .pdata$_ZN7MATHenv6addvarEPKw7MATHraw
                0x0000000140027150        0xc C:\Users\ARABBI~1\AppData\Local\Temp\main.exe.6iMB3F.ltrans0.ltrans.o
 .pdata$_ZN13MATHcontainer8minimizeEv
                0x000000014002715c        0xc C:\Users\ARABBI~1\AppData\Local\Temp\main.exe.6iMB3F.ltrans0.ltrans.o
 .pdata$_ZN10lsMATHnode12finish_buildEb
                0x0000000140027168        0xc C:\Users\ARABBI~1\AppData\Local\Temp\main.exe.6iMB3F.ltrans0.ltrans.o
 .pdata$_Z4testv
                0x0000000140027174        0xc C:\Users\ARABBI~1\AppData\Local\Temp\main.exe.6iMB3F.ltrans0.ltrans.o
 .pdata.startup.main
                0x0000000140027180        0xc C:\Users\ARABBI~1\AppData\Local\Temp\main.exe.6iMB3F.ltrans0.ltrans.o
 .pdata$_ZdlPvy
                0x000000014002718c        0xc D:/CODEX/Dev-Cpp/TDM-GCC3264/bin/../lib/gcc/x86_64-w64-mingw32/10.3.0\libstdc++.a(del_ops.o)
 .pdata$_Znwy   0x0000000140027198        0xc D:/CODEX/Dev-Cpp/TDM-GCC3264/bin/../lib/gcc/x86_64-w64-mingw32/10.3.0\libstdc++.a(new_op.o)
 .pdata$_ZN10__cxxabiv120__si_class_type_infoD2Ev
                0x00000001400271a4        0xc D:/CODEX/Dev-Cpp/TDM-GCC3264/bin/../lib/gcc/x86_64-w64-mingw32/10.3.0\libstdc++.a(si_class_type_info.o)
 .pdata$_ZN10__cxxabiv120__si_class_type_infoD0Ev
                0x00000001400271b0        0xc D:/CODEX/Dev-Cpp/TDM-GCC3264/bin/../lib/gcc/x86_64-w64-mingw32/10.3.0\libstdc++.a(si_class_type_info.o)
 .pdata$_ZNK10__cxxabiv120__si_class_type_info20__do_find_public_srcExPKvPKNS_17__class_type_infoES2_
                0x00000001400271bc        0xc D:/CODEX/Dev-Cpp/TDM-GCC3264/bin/../lib/gcc/x86_64-w64-mingw32/10.3.0\libstdc++.a(si_class_type_info.o)
 .pdata$_ZNK10__cxxabiv120__si_class_type_info12__do_dyncastExNS_17__class_type_info10__sub_kindEPKS1_PKvS4_S6_RNS1_16__dyncast_resultE
                0x00000001400271c8        0xc D:/CODEX/Dev-Cpp/TDM-GCC3264/bin/../lib/gcc/x86_64-w64-mingw32/10.3.0\libstdc++.a(si_class_type_info.o)
 .pdata$_ZNK10__cxxabiv120__si_class_type_info11__do_upcastEPKNS_17__class_type_infoEPKvRNS1_15__upcast_resultE
                0x00000001400271d4        0xc D:/CODEX/Dev-Cpp/TDM-GCC3264/bin/../lib/gcc/x86_64-w64-mingw32/10.3.0\libstdc++.a(si_class_type_info.o)
 .pdata$_ZNSt9type_infoD2Ev
                0x00000001400271e0        0xc D:/CODEX/Dev-Cpp/TDM-GCC3264/bin/../lib/gcc/x86_64-w64-mingw32/10.3.0\libstdc++.a(tinfo.o)
 .pdata$_ZNKSt9type_info14__is_pointer_pEv
                0x00000001400271ec        0xc D:/CODEX/Dev-Cpp/TDM-GCC3264/bin/../lib/gcc/x86_64-w64-mingw32/10.3.0\libstdc++.a(tinfo.o)
 .pdata$_ZNKSt9type_info11__do_upcastEPKN10__cxxabiv117__class_type_infoEPPv
                0x00000001400271f8        0xc D:/CODEX/Dev-Cpp/TDM-GCC3264/bin/../lib/gcc/x86_64-w64-mingw32/10.3.0\libstdc++.a(tinfo.o)
 .pdata$_ZNSt9type_infoD0Ev
                0x0000000140027204        0xc D:/CODEX/Dev-Cpp/TDM-GCC3264/bin/../lib/gcc/x86_64-w64-mingw32/10.3.0\libstdc++.a(tinfo.o)
 .pdata$_ZNKSt9type_info10__do_catchEPKS_PPvj
                0x0000000140027210        0xc D:/CODEX/Dev-Cpp/TDM-GCC3264/bin/../lib/gcc/x86_64-w64-mingw32/10.3.0\libstdc++.a(tinfo.o)
 .pdata$_ZNKSt9type_infoeqERKS_
                0x000000014002721c        0xc D:/CODEX/Dev-Cpp/TDM-GCC3264/bin/../lib/gcc/x86_64-w64-mingw32/10.3.0\libstdc++.a(tinfo.o)
 .pdata$_ZNKSt9bad_alloc4whatEv
                0x0000000140027228        0xc D:/CODEX/Dev-Cpp/TDM-GCC3264/bin/../lib/gcc/x86_64-w64-mingw32/10.3.0\libstdc++.a(bad_alloc.o)
 .pdata$_ZNSt9bad_allocD2Ev
                0x0000000140027234        0xc D:/CODEX/Dev-Cpp/TDM-GCC3264/bin/../lib/gcc/x86_64-w64-mingw32/10.3.0\libstdc++.a(bad_alloc.o)
 .pdata$_ZNSt9bad_allocD0Ev
                0x0000000140027240        0xc D:/CODEX/Dev-Cpp/TDM-GCC3264/bin/../lib/gcc/x86_64-w64-mingw32/10.3.0\libstdc++.a(bad_alloc.o)
 .pdata$_ZNK10__cxxabiv117__class_type_info11__do_upcastEPKS0_PPv
                0x000000014002724c        0xc D:/CODEX/Dev-Cpp/TDM-GCC3264/bin/../lib/gcc/x86_64-w64-mingw32/10.3.0\libstdc++.a(class_type_info.o)
 .pdata$_ZNK10__cxxabiv117__class_type_info20__do_find_public_srcExPKvPKS0_S2_
                0x0000000140027258        0xc D:/CODEX/Dev-Cpp/TDM-GCC3264/bin/../lib/gcc/x86_64-w64-mingw32/10.3.0\libstdc++.a(class_type_info.o)
 .pdata$_ZN10__cxxabiv117__class_type_infoD2Ev
                0x0000000140027264        0xc D:/CODEX/Dev-Cpp/TDM-GCC3264/bin/../lib/gcc/x86_64-w64-mingw32/10.3.0\libstdc++.a(class_type_info.o)
 .pdata$_ZN10__cxxabiv117__class_type_infoD0Ev
                0x0000000140027270        0xc D:/CODEX/Dev-Cpp/TDM-GCC3264/bin/../lib/gcc/x86_64-w64-mingw32/10.3.0\libstdc++.a(class_type_info.o)
 .pdata$_ZNK10__cxxabiv117__class_type_info12__do_dyncastExNS0_10__sub_kindEPKS0_PKvS3_S5_RNS0_16__dyncast_resultE
                0x000000014002727c        0xc D:/CODEX/Dev-Cpp/TDM-GCC3264/bin/../lib/gcc/x86_64-w64-mingw32/10.3.0\libstdc++.a(class_type_info.o)
 .pdata$_ZNK10__cxxabiv117__class_type_info11__do_upcastEPKS0_PKvRNS0_15__upcast_resultE
                0x0000000140027288        0xc D:/CODEX/Dev-Cpp/TDM-GCC3264/bin/../lib/gcc/x86_64-w64-mingw32/10.3.0\libstdc++.a(class_type_info.o)
 .pdata$_ZNK10__cxxabiv117__class_type_info10__do_catchEPKSt9type_infoPPvj
                0x0000000140027294        0xc D:/CODEX/Dev-Cpp/TDM-GCC3264/bin/../lib/gcc/x86_64-w64-mingw32/10.3.0\libstdc++.a(class_type_info.o)
 .pdata$_ZdlPv  0x00000001400272a0        0xc D:/CODEX/Dev-Cpp/TDM-GCC3264/bin/../lib/gcc/x86_64-w64-mingw32/10.3.0\libstdc++.a(del_op.o)
 .pdata$_ZNK9__gnu_cxx24__concurrence_lock_error4whatEv
                0x00000001400272ac        0xc D:/CODEX/Dev-Cpp/TDM-GCC3264/bin/../lib/gcc/x86_64-w64-mingw32/10.3.0\libstdc++.a(eh_alloc.o)
 .pdata$_ZNK9__gnu_cxx26__concurrence_unlock_error4whatEv
                0x00000001400272b8        0xc D:/CODEX/Dev-Cpp/TDM-GCC3264/bin/../lib/gcc/x86_64-w64-mingw32/10.3.0\libstdc++.a(eh_alloc.o)
 .pdata$_ZN9__gnu_cxx24__concurrence_lock_errorD1Ev
                0x00000001400272c4        0xc D:/CODEX/Dev-Cpp/TDM-GCC3264/bin/../lib/gcc/x86_64-w64-mingw32/10.3.0\libstdc++.a(eh_alloc.o)
 .pdata$_ZN9__gnu_cxx26__concurrence_unlock_errorD1Ev
                0x00000001400272d0        0xc D:/CODEX/Dev-Cpp/TDM-GCC3264/bin/../lib/gcc/x86_64-w64-mingw32/10.3.0\libstdc++.a(eh_alloc.o)
 .pdata$_ZN9__gnu_cxx24__concurrence_lock_errorD0Ev
                0x00000001400272dc        0xc D:/CODEX/Dev-Cpp/TDM-GCC3264/bin/../lib/gcc/x86_64-w64-mingw32/10.3.0\libstdc++.a(eh_alloc.o)
 .pdata$_ZN9__gnu_cxx26__concurrence_unlock_errorD0Ev
                0x00000001400272e8        0xc D:/CODEX/Dev-Cpp/TDM-GCC3264/bin/../lib/gcc/x86_64-w64-mingw32/10.3.0\libstdc++.a(eh_alloc.o)
 .pdata$__tcf_0
                0x00000001400272f4        0xc D:/CODEX/Dev-Cpp/TDM-GCC3264/bin/../lib/gcc/x86_64-w64-mingw32/10.3.0\libstdc++.a(eh_alloc.o)
 .pdata$_ZN9__gnu_cxx30__throw_concurrence_lock_errorEv
                0x0000000140027300        0xc D:/CODEX/Dev-Cpp/TDM-GCC3264/bin/../lib/gcc/x86_64-w64-mingw32/10.3.0\libstdc++.a(eh_alloc.o)
 .pdata$_ZN12_GLOBAL__N_14pool4freeEPv.constprop.0
                0x000000014002730c        0xc D:/CODEX/Dev-Cpp/TDM-GCC3264/bin/../lib/gcc/x86_64-w64-mingw32/10.3.0\libstdc++.a(eh_alloc.o)
 .pdata$_ZN12_GLOBAL__N_14pool8allocateEy.constprop.0
                0x0000000140027318        0xc D:/CODEX/Dev-Cpp/TDM-GCC3264/bin/../lib/gcc/x86_64-w64-mingw32/10.3.0\libstdc++.a(eh_alloc.o)
 .pdata$_ZN9__gnu_cxx9__freeresEv
                0x0000000140027324        0xc D:/CODEX/Dev-Cpp/TDM-GCC3264/bin/../lib/gcc/x86_64-w64-mingw32/10.3.0\libstdc++.a(eh_alloc.o)
 .pdata$__cxa_allocate_exception
                0x0000000140027330        0xc D:/CODEX/Dev-Cpp/TDM-GCC3264/bin/../lib/gcc/x86_64-w64-mingw32/10.3.0\libstdc++.a(eh_alloc.o)
 .pdata$__cxa_free_exception
                0x000000014002733c        0xc D:/CODEX/Dev-Cpp/TDM-GCC3264/bin/../lib/gcc/x86_64-w64-mingw32/10.3.0\libstdc++.a(eh_alloc.o)
 .pdata$__cxa_allocate_dependent_exception
                0x0000000140027348        0xc D:/CODEX/Dev-Cpp/TDM-GCC3264/bin/../lib/gcc/x86_64-w64-mingw32/10.3.0\libstdc++.a(eh_alloc.o)
 .pdata$__cxa_free_dependent_exception
                0x0000000140027354        0xc D:/CODEX/Dev-Cpp/TDM-GCC3264/bin/../lib/gcc/x86_64-w64-mingw32/10.3.0\libstdc++.a(eh_alloc.o)
 .pdata.startup._GLOBAL__sub_I__ZN9__gnu_cxx9__freeresEv
                0x0000000140027360        0xc D:/CODEX/Dev-Cpp/TDM-GCC3264/bin/../lib/gcc/x86_64-w64-mingw32/10.3.0\libstdc++.a(eh_alloc.o)
 .pdata$_ZNSt9exceptionD2Ev
                0x000000014002736c        0xc D:/CODEX/Dev-Cpp/TDM-GCC3264/bin/../lib/gcc/x86_64-w64-mingw32/10.3.0\libstdc++.a(eh_exception.o)
 .pdata$_ZNSt13bad_exceptionD2Ev
                0x0000000140027378        0xc D:/CODEX/Dev-Cpp/TDM-GCC3264/bin/../lib/gcc/x86_64-w64-mingw32/10.3.0\libstdc++.a(eh_exception.o)
 .pdata$_ZNKSt9exception4whatEv
                0x0000000140027384        0xc D:/CODEX/Dev-Cpp/TDM-GCC3264/bin/../lib/gcc/x86_64-w64-mingw32/10.3.0\libstdc++.a(eh_exception.o)
 .pdata$_ZNKSt13bad_exception4whatEv
                0x0000000140027390        0xc D:/CODEX/Dev-Cpp/TDM-GCC3264/bin/../lib/gcc/x86_64-w64-mingw32/10.3.0\libstdc++.a(eh_exception.o)
 .pdata$_ZNSt9exceptionD0Ev
                0x000000014002739c        0xc D:/CODEX/Dev-Cpp/TDM-GCC3264/bin/../lib/gcc/x86_64-w64-mingw32/10.3.0\libstdc++.a(eh_exception.o)
 .pdata$_ZNSt13bad_exceptionD0Ev
                0x00000001400273a8        0xc D:/CODEX/Dev-Cpp/TDM-GCC3264/bin/../lib/gcc/x86_64-w64-mingw32/10.3.0\libstdc++.a(eh_exception.o)
 .pdata$_ZN10__cxxabiv115__forced_unwindD2Ev
                0x00000001400273b4        0xc D:/CODEX/Dev-Cpp/TDM-GCC3264/bin/../lib/gcc/x86_64-w64-mingw32/10.3.0\libstdc++.a(eh_exception.o)
 .pdata$_ZN10__cxxabiv115__forced_unwindD0Ev
                0x00000001400273c0        0xc D:/CODEX/Dev-Cpp/TDM-GCC3264/bin/../lib/gcc/x86_64-w64-mingw32/10.3.0\libstdc++.a(eh_exception.o)
 .pdata$_ZN10__cxxabiv119__foreign_exceptionD2Ev
                0x00000001400273cc        0xc D:/CODEX/Dev-Cpp/TDM-GCC3264/bin/../lib/gcc/x86_64-w64-mingw32/10.3.0\libstdc++.a(eh_exception.o)
 .pdata$_ZN10__cxxabiv119__foreign_exceptionD0Ev
                0x00000001400273d8        0xc D:/CODEX/Dev-Cpp/TDM-GCC3264/bin/../lib/gcc/x86_64-w64-mingw32/10.3.0\libstdc++.a(eh_exception.o)
 .pdata$_ZGTtNKSt9exceptionD1Ev
                0x00000001400273e4        0xc D:/CODEX/Dev-Cpp/TDM-GCC3264/bin/../lib/gcc/x86_64-w64-mingw32/10.3.0\libstdc++.a(eh_exception.o)
 .pdata$_ZGTtNKSt13bad_exceptionD1Ev
                0x00000001400273f0        0xc D:/CODEX/Dev-Cpp/TDM-GCC3264/bin/../lib/gcc/x86_64-w64-mingw32/10.3.0\libstdc++.a(eh_exception.o)
 .pdata$_ZL16get_adjusted_ptrPKSt9type_infoS1_PPv
                0x00000001400273fc        0xc D:/CODEX/Dev-Cpp/TDM-GCC3264/bin/../lib/gcc/x86_64-w64-mingw32/10.3.0\libstdc++.a(eh_personality.o)
 .pdata$_ZL21base_of_encoded_valuehP15_Unwind_Context
                0x0000000140027408        0xc D:/CODEX/Dev-Cpp/TDM-GCC3264/bin/../lib/gcc/x86_64-w64-mingw32/10.3.0\libstdc++.a(eh_personality.o)
 .pdata$_ZL28read_encoded_value_with_basehyPKhPy
                0x0000000140027414        0xc D:/CODEX/Dev-Cpp/TDM-GCC3264/bin/../lib/gcc/x86_64-w64-mingw32/10.3.0\libstdc++.a(eh_personality.o)
 .pdata$_ZL20check_exception_specP16lsda_header_infoPKSt9type_infoPvx
                0x0000000140027420        0xc D:/CODEX/Dev-Cpp/TDM-GCC3264/bin/../lib/gcc/x86_64-w64-mingw32/10.3.0\libstdc++.a(eh_personality.o)
 .pdata$_ZL17parse_lsda_headerP15_Unwind_ContextPKhP16lsda_header_info
                0x000000014002742c        0xc D:/CODEX/Dev-Cpp/TDM-GCC3264/bin/../lib/gcc/x86_64-w64-mingw32/10.3.0\libstdc++.a(eh_personality.o)
 .pdata$_ZN10__cxxabiv1L21__gxx_personality_impEiiyP17_Unwind_ExceptionP15_Unwind_Context
                0x0000000140027438        0xc D:/CODEX/Dev-Cpp/TDM-GCC3264/bin/../lib/gcc/x86_64-w64-mingw32/10.3.0\libstdc++.a(eh_personality.o)
 .pdata$__cxa_call_unexpected
                0x0000000140027444        0xc D:/CODEX/Dev-Cpp/TDM-GCC3264/bin/../lib/gcc/x86_64-w64-mingw32/10.3.0\libstdc++.a(eh_personality.o)
 .pdata$__gxx_personality_seh0
                0x0000000140027450        0xc D:/CODEX/Dev-Cpp/TDM-GCC3264/bin/../lib/gcc/x86_64-w64-mingw32/10.3.0\libstdc++.a(eh_personality.o)
 .pdata$_ZN10__cxxabiv111__terminateEPFvvE
                0x000000014002745c        0xc D:/CODEX/Dev-Cpp/TDM-GCC3264/bin/../lib/gcc/x86_64-w64-mingw32/10.3.0\libstdc++.a(eh_terminate.o)
 .pdata$_ZSt13set_terminatePFvvE
                0x0000000140027468        0xc D:/CODEX/Dev-Cpp/TDM-GCC3264/bin/../lib/gcc/x86_64-w64-mingw32/10.3.0\libstdc++.a(eh_terminate.o)
 .pdata$_ZSt13get_terminatev
                0x0000000140027474        0xc D:/CODEX/Dev-Cpp/TDM-GCC3264/bin/../lib/gcc/x86_64-w64-mingw32/10.3.0\libstdc++.a(eh_terminate.o)
 .pdata$_ZSt9terminatev
                0x0000000140027480        0xc D:/CODEX/Dev-Cpp/TDM-GCC3264/bin/../lib/gcc/x86_64-w64-mingw32/10.3.0\libstdc++.a(eh_terminate.o)
 .pdata$_ZN10__cxxabiv112__unexpectedEPFvvE
                0x000000014002748c        0xc D:/CODEX/Dev-Cpp/TDM-GCC3264/bin/../lib/gcc/x86_64-w64-mingw32/10.3.0\libstdc++.a(eh_terminate.o)
 .pdata$_ZSt14set_unexpectedPFvvE
                0x0000000140027498        0xc D:/CODEX/Dev-Cpp/TDM-GCC3264/bin/../lib/gcc/x86_64-w64-mingw32/10.3.0\libstdc++.a(eh_terminate.o)
 .pdata$_ZSt14get_unexpectedv
                0x00000001400274a4        0xc D:/CODEX/Dev-Cpp/TDM-GCC3264/bin/../lib/gcc/x86_64-w64-mingw32/10.3.0\libstdc++.a(eh_terminate.o)
 .pdata$_ZSt10unexpectedv
                0x00000001400274b0        0xc D:/CODEX/Dev-Cpp/TDM-GCC3264/bin/../lib/gcc/x86_64-w64-mingw32/10.3.0\libstdc++.a(eh_terminate.o)
 .pdata$_ZL23__gxx_exception_cleanup19_Unwind_Reason_CodeP17_Unwind_Exception
                0x00000001400274bc        0xc D:/CODEX/Dev-Cpp/TDM-GCC3264/bin/../lib/gcc/x86_64-w64-mingw32/10.3.0\libstdc++.a(eh_throw.o)
 .pdata$__cxa_init_primary_exception
                0x00000001400274c8        0xc D:/CODEX/Dev-Cpp/TDM-GCC3264/bin/../lib/gcc/x86_64-w64-mingw32/10.3.0\libstdc++.a(eh_throw.o)
 .pdata$__cxa_throw
                0x00000001400274d4        0xc D:/CODEX/Dev-Cpp/TDM-GCC3264/bin/../lib/gcc/x86_64-w64-mingw32/10.3.0\libstdc++.a(eh_throw.o)
 .pdata$__cxa_rethrow
                0x00000001400274e0        0xc D:/CODEX/Dev-Cpp/TDM-GCC3264/bin/../lib/gcc/x86_64-w64-mingw32/10.3.0\libstdc++.a(eh_throw.o)
 .pdata$__shmem_init_eh_unex_handler__unexpected_handler
                0x00000001400274ec        0xc D:/CODEX/Dev-Cpp/TDM-GCC3264/bin/../lib/gcc/x86_64-w64-mingw32/10.3.0\libstdc++.a(eh_unex_handler.o)
 .pdata$_ZSt15set_new_handlerPFvvE
                0x00000001400274f8        0xc D:/CODEX/Dev-Cpp/TDM-GCC3264/bin/../lib/gcc/x86_64-w64-mingw32/10.3.0\libstdc++.a(new_handler.o)
 .pdata$_ZSt15get_new_handlerv
                0x0000000140027504        0xc D:/CODEX/Dev-Cpp/TDM-GCC3264/bin/../lib/gcc/x86_64-w64-mingw32/10.3.0\libstdc++.a(new_handler.o)
 .pdata$__cxa_pure_virtual
                0x0000000140027510        0xc D:/CODEX/Dev-Cpp/TDM-GCC3264/bin/../lib/gcc/x86_64-w64-mingw32/10.3.0\libstdc++.a(pure.o)
 .pdata$__cxa_deleted_virtual
                0x000000014002751c        0xc D:/CODEX/Dev-Cpp/TDM-GCC3264/bin/../lib/gcc/x86_64-w64-mingw32/10.3.0\libstdc++.a(pure.o)
 .pdata$_ZN9__gnu_cxx27__verbose_terminate_handlerEv
                0x0000000140027528        0xc D:/CODEX/Dev-Cpp/TDM-GCC3264/bin/../lib/gcc/x86_64-w64-mingw32/10.3.0\libstdc++.a(vterminate.o)
 .pdata         0x0000000140027534      0x24c D:/CODEX/Dev-Cpp/TDM-GCC3264/bin/../lib/gcc/x86_64-w64-mingw32/10.3.0\libstdc++.a(cp-demangle.o)
 .pdata.unlikely
                0x0000000140027780        0xc D:/CODEX/Dev-Cpp/TDM-GCC3264/bin/../lib/gcc/x86_64-w64-mingw32/10.3.0\libstdc++.a(cp-demangle.o)
 .pdata$__cxa_call_terminate
                0x000000014002778c        0xc D:/CODEX/Dev-Cpp/TDM-GCC3264/bin/../lib/gcc/x86_64-w64-mingw32/10.3.0\libstdc++.a(eh_call.o)
 .pdata$__cxa_get_exception_ptr
                0x0000000140027798        0xc D:/CODEX/Dev-Cpp/TDM-GCC3264/bin/../lib/gcc/x86_64-w64-mingw32/10.3.0\libstdc++.a(eh_catch.o)
 .pdata$__cxa_begin_catch
                0x00000001400277a4        0xc D:/CODEX/Dev-Cpp/TDM-GCC3264/bin/../lib/gcc/x86_64-w64-mingw32/10.3.0\libstdc++.a(eh_catch.o)
 .pdata$__cxa_end_catch
                0x00000001400277b0        0xc D:/CODEX/Dev-Cpp/TDM-GCC3264/bin/../lib/gcc/x86_64-w64-mingw32/10.3.0\libstdc++.a(eh_catch.o)
 .pdata$_ZSt18uncaught_exceptionv
                0x00000001400277bc        0xc D:/CODEX/Dev-Cpp/TDM-GCC3264/bin/../lib/gcc/x86_64-w64-mingw32/10.3.0\libstdc++.a(eh_catch.o)
 .pdata$_ZSt19uncaught_exceptionsv
                0x00000001400277c8        0xc D:/CODEX/Dev-Cpp/TDM-GCC3264/bin/../lib/gcc/x86_64-w64-mingw32/10.3.0\libstdc++.a(eh_catch.o)
 .pdata$_ZL15eh_globals_dtorPv
                0x00000001400277d4        0xc D:/CODEX/Dev-Cpp/TDM-GCC3264/bin/../lib/gcc/x86_64-w64-mingw32/10.3.0\libstdc++.a(eh_globals.o)
 .pdata$__tcf_0
                0x00000001400277e0        0xc D:/CODEX/Dev-Cpp/TDM-GCC3264/bin/../lib/gcc/x86_64-w64-mingw32/10.3.0\libstdc++.a(eh_globals.o)
 .pdata$__shmem_init_eh_globals_eh_globals
                0x00000001400277ec        0xc D:/CODEX/Dev-Cpp/TDM-GCC3264/bin/../lib/gcc/x86_64-w64-mingw32/10.3.0\libstdc++.a(eh_globals.o)
 .pdata$__shmem_init_eh_globals_init
                0x00000001400277f8        0xc D:/CODEX/Dev-Cpp/TDM-GCC3264/bin/../lib/gcc/x86_64-w64-mingw32/10.3.0\libstdc++.a(eh_globals.o)
 .pdata$__cxa_get_globals_fast
                0x0000000140027804        0xc D:/CODEX/Dev-Cpp/TDM-GCC3264/bin/../lib/gcc/x86_64-w64-mingw32/10.3.0\libstdc++.a(eh_globals.o)
 .pdata$__cxa_get_globals
                0x0000000140027810        0xc D:/CODEX/Dev-Cpp/TDM-GCC3264/bin/../lib/gcc/x86_64-w64-mingw32/10.3.0\libstdc++.a(eh_globals.o)
 .pdata.startup._GLOBAL__sub_I___shmem_eh_globals_eh_globals
                0x000000014002781c        0xc D:/CODEX/Dev-Cpp/TDM-GCC3264/bin/../lib/gcc/x86_64-w64-mingw32/10.3.0\libstdc++.a(eh_globals.o)
 .pdata$__shmem_init_eh_term_handler__terminate_handler
                0x0000000140027828        0xc D:/CODEX/Dev-Cpp/TDM-GCC3264/bin/../lib/gcc/x86_64-w64-mingw32/10.3.0\libstdc++.a(eh_term_handler.o)
 .pdata$__cxa_current_exception_type
                0x0000000140027834        0xc D:/CODEX/Dev-Cpp/TDM-GCC3264/bin/../lib/gcc/x86_64-w64-mingw32/10.3.0\libstdc++.a(eh_type.o)
 .pdata         0x0000000140027840       0x24 D:\CODEX\Dev-Cpp\TDM-GCC3264\x86_64-w64-mingw32\lib/libmingw32.a(lib64_libmingw32_a-gccmain.o)
 .pdata         0x0000000140027864        0xc D:\CODEX\Dev-Cpp\TDM-GCC3264\x86_64-w64-mingw32\lib/libmingw32.a(lib64_libmingw32_a-charmax.o)
 .pdata         0x0000000140027870        0xc D:\CODEX\Dev-Cpp\TDM-GCC3264\x86_64-w64-mingw32\lib/libmingw32.a(lib64_libmingw32_a-dllargv.o)
 .pdata         0x000000014002787c       0x24 D:\CODEX\Dev-Cpp\TDM-GCC3264\x86_64-w64-mingw32\lib/libmingw32.a(lib64_libmingw32_a-tlssup.o)
 .pdata         0x00000001400278a0        0xc D:\CODEX\Dev-Cpp\TDM-GCC3264\x86_64-w64-mingw32\lib/libmingw32.a(lib64_libmingw32_a-merr.o)
 .pdata         0x00000001400278ac        0xc D:\CODEX\Dev-Cpp\TDM-GCC3264\x86_64-w64-mingw32\lib/libmingw32.a(lib64_libmingw32_a-CRT_fp10.o)
 .pdata         0x00000001400278b8       0x24 D:\CODEX\Dev-Cpp\TDM-GCC3264\x86_64-w64-mingw32\lib/libmingw32.a(lib64_libmingw32_a-pseudo-reloc.o)
 .pdata         0x00000001400278dc       0x18 D:\CODEX\Dev-Cpp\TDM-GCC3264\x86_64-w64-mingw32\lib/libmingw32.a(lib64_libmingw32_a-usermatherr.o)
 .pdata         0x00000001400278f4        0xc D:\CODEX\Dev-Cpp\TDM-GCC3264\x86_64-w64-mingw32\lib/libmingw32.a(lib64_libmingw32_a-crt_handler.o)
 .pdata         0x0000000140027900       0x30 D:\CODEX\Dev-Cpp\TDM-GCC3264\x86_64-w64-mingw32\lib/libmingw32.a(lib64_libmingw32_a-tlsthrd.o)
 .pdata         0x0000000140027930       0x6c D:\CODEX\Dev-Cpp\TDM-GCC3264\x86_64-w64-mingw32\lib/libmingw32.a(lib64_libmingw32_a-pesect.o)
 .pdata         0x000000014002799c       0x24 D:/CODEX/Dev-Cpp/TDM-GCC3264/bin/../lib/gcc/x86_64-w64-mingw32/10.3.0/libgcc.a(eh_shmem3_mingw.o)
 .pdata         0x00000001400279c0       0xcc D:\CODEX\Dev-Cpp\TDM-GCC3264\x86_64-w64-mingw32\lib/libpthread.a(libwinpthread_la-mutex.o)
 .pdata         0x0000000140027a8c      0x414 D:\CODEX\Dev-Cpp\TDM-GCC3264\x86_64-w64-mingw32\lib/libpthread.a(libwinpthread_la-thread.o)
 .pdata.unlikely
                0x0000000140027ea0       0x24 D:\CODEX\Dev-Cpp\TDM-GCC3264\x86_64-w64-mingw32\lib/libpthread.a(libwinpthread_la-thread.o)
 .pdata         0x0000000140027ec4       0x24 D:\CODEX\Dev-Cpp\TDM-GCC3264\x86_64-w64-mingw32\lib/libpthread.a(libwinpthread_la-shmem3_mingw.o)
 .pdata         0x0000000140027ee8       0x48 D:\CODEX\Dev-Cpp\TDM-GCC3264\x86_64-w64-mingw32\lib/libpthread.a(libwinpthread_la-misc.o)
 .pdata         0x0000000140027f30      0x114 D:\CODEX\Dev-Cpp\TDM-GCC3264\x86_64-w64-mingw32\lib/libpthread.a(libwinpthread_la-rwlock.o)
 .pdata         0x0000000140028044       0x3c D:\CODEX\Dev-Cpp\TDM-GCC3264\x86_64-w64-mingw32\lib/libpthread.a(libwinpthread_la-spinlock.o)
 .pdata         0x0000000140028080      0x114 D:\CODEX\Dev-Cpp\TDM-GCC3264\x86_64-w64-mingw32\lib/libpthread.a(libwinpthread_la-cond.o)
 .pdata         0x0000000140028194       0x84 D:\CODEX\Dev-Cpp\TDM-GCC3264\x86_64-w64-mingw32\lib/libpthread.a(libwinpthread_la-sched.o)
 .pdata         0x0000000140028218        0xc D:\CODEX\Dev-Cpp\TDM-GCC3264\x86_64-w64-mingw32\lib/libmingwex.a(lib64_libmingwex_a-mingw_vfprintfw.o)
 .pdata         0x0000000140028224        0xc D:\CODEX\Dev-Cpp\TDM-GCC3264\x86_64-w64-mingw32\lib/libmingwex.a(lib64_libmingwex_a-mingw_vsprintf.o)
 .pdata         0x0000000140028230       0xc0 D:\CODEX\Dev-Cpp\TDM-GCC3264\x86_64-w64-mingw32\lib/libmingwex.a(lib64_libmingwex_a-mingw_pformat.o)
 .pdata         0x00000001400282f0       0xc0 D:\CODEX\Dev-Cpp\TDM-GCC3264\x86_64-w64-mingw32\lib/libmingwex.a(lib64_libmingwex_a-mingw_pformatw.o)
 .pdata         0x00000001400283b0       0x30 D:\CODEX\Dev-Cpp\TDM-GCC3264\x86_64-w64-mingw32\lib/libmingwex.a(lib64_libmingwex_a-dmisc.o)
 .pdata         0x00000001400283e0        0xc D:\CODEX\Dev-Cpp\TDM-GCC3264\x86_64-w64-mingw32\lib/libmingwex.a(lib64_libmingwex_a-gdtoa.o)
 .pdata         0x00000001400283ec       0x18 D:\CODEX\Dev-Cpp\TDM-GCC3264\x86_64-w64-mingw32\lib/libmingwex.a(lib64_libmingwex_a-gmisc.o)
 .pdata         0x0000000140028404       0xa8 D:\CODEX\Dev-Cpp\TDM-GCC3264\x86_64-w64-mingw32\lib/libmingwex.a(lib64_libmingwex_a-misc.o)
 .pdata         0x00000001400284ac        0xc D:\CODEX\Dev-Cpp\TDM-GCC3264\x86_64-w64-mingw32\lib/libmingwex.a(lib64_libmingwex_a-strnlen.o)
 .pdata         0x00000001400284b8        0xc D:\CODEX\Dev-Cpp\TDM-GCC3264\x86_64-w64-mingw32\lib/libmingwex.a(lib64_libmingwex_a-wcsnlen.o)
 .pdata         0x00000001400284c4       0x30 D:\CODEX\Dev-Cpp\TDM-GCC3264\x86_64-w64-mingw32\lib/libmsvcrt.a(lib64_libmsvcrt_os_a-mbrtowc.o)
 .pdata         0x00000001400284f4       0x24 D:\CODEX\Dev-Cpp\TDM-GCC3264\x86_64-w64-mingw32\lib/libmsvcrt.a(lib64_libmsvcrt_os_a-wcrtomb.o)
 .pdata         0x0000000140028518        0xc D:\CODEX\Dev-Cpp\TDM-GCC3264\x86_64-w64-mingw32\lib/libmsvcrt.a(lib64_libmsvcrt_os_a-acrt_iob_func.o)
 .pdata         0x0000000140028524       0x18 D:\CODEX\Dev-Cpp\TDM-GCC3264\x86_64-w64-mingw32\lib/libmsvcrt.a(lib64_libmsvcrt_os_a-invalid_parameter_handler.o)
 .pdata         0x000000014002853c       0x18 D:\CODEX\Dev-Cpp\TDM-GCC3264\x86_64-w64-mingw32\lib/libmsvcrt.a(lib64_libmsvcrt_os_a-mingw_lock.o)
 .pdata         0x0000000140028554        0xc D:\CODEX\Dev-Cpp\TDM-GCC3264\x86_64-w64-mingw32\lib/libmsvcrt.a(lib64_libmsvcrt_os_a-__p__acmdln.o)
 .pdata         0x0000000140028560        0xc D:\CODEX\Dev-Cpp\TDM-GCC3264\x86_64-w64-mingw32\lib/libmsvcrt.a(lib64_libmsvcrt_os_a-__p__commode.o)
 .pdata         0x000000014002856c        0xc D:\CODEX\Dev-Cpp\TDM-GCC3264\x86_64-w64-mingw32\lib/libmsvcrt.a(lib64_libmsvcrt_os_a-__p__fmode.o)
 .pdata.startup
                0x0000000140028578        0xc D:/CODEX/Dev-Cpp/TDM-GCC3264/bin/../lib/gcc/x86_64-w64-mingw32/10.3.0/crtend.o

.xdata          0x0000000140029000     0x1400
 *(.xdata*)
 .xdata         0x0000000140029000       0x70 D:/CODEX/Dev-Cpp/TDM-GCC3264/bin/../lib/gcc/x86_64-w64-mingw32/10.3.0/../../../../x86_64-w64-mingw32/lib/../lib/crt2.o
 .xdata         0x0000000140029070        0x8 D:/CODEX/Dev-Cpp/TDM-GCC3264/bin/../lib/gcc/x86_64-w64-mingw32/10.3.0/crtbegin.o
 .xdata$_Z6sigmaFP7MATHrawh
                0x0000000140029078        0x4 C:\Users\ARABBI~1\AppData\Local\Temp\main.exe.6iMB3F.ltrans0.ltrans.o
 .xdata$wprintf
                0x000000014002907c        0x8 C:\Users\ARABBI~1\AppData\Local\Temp\main.exe.6iMB3F.ltrans0.ltrans.o
 .xdata$_ZN13MATHcontainerD1Ev
                0x0000000140029084        0x4 C:\Users\ARABBI~1\AppData\Local\Temp\main.exe.6iMB3F.ltrans0.ltrans.o
 .xdata$_ZN15lsMATHstaticstr4findEPKw
                0x0000000140029088       0x10 C:\Users\ARABBI~1\AppData\Local\Temp\main.exe.6iMB3F.ltrans0.ltrans.o
 .xdata$_ZN7MATHenv6getvalEPKw
                0x0000000140029098        0x8 C:\Users\ARABBI~1\AppData\Local\Temp\main.exe.6iMB3F.ltrans0.ltrans.o
 .xdata$_ZN7MATHenv6setvalEPKw7MATHraw.constprop.0.isra.0
                0x00000001400290a0        0xc C:\Users\ARABBI~1\AppData\Local\Temp\main.exe.6iMB3F.ltrans0.ltrans.o
 .xdata$_ZN8MATHnode4callEP13MATHcontainerP7MATHenvS1_
                0x00000001400290ac       0x18 C:\Users\ARABBI~1\AppData\Local\Temp\main.exe.6iMB3F.ltrans0.ltrans.o
 .xdata$_ZN10lsMATHnode4callEv
                0x00000001400290c4        0x4 C:\Users\ARABBI~1\AppData\Local\Temp\main.exe.6iMB3F.ltrans0.ltrans.o
 .xdata$_ZN10lsMATHnodeD1Ev
                0x00000001400290c8        0xc C:\Users\ARABBI~1\AppData\Local\Temp\main.exe.6iMB3F.ltrans0.ltrans.o
 .xdata$_Z4errWPKw.part.0
                0x00000001400290d4        0xc C:\Users\ARABBI~1\AppData\Local\Temp\main.exe.6iMB3F.ltrans0.ltrans.o
 .xdata$_Z4errWPKw
                0x00000001400290e0        0x8 C:\Users\ARABBI~1\AppData\Local\Temp\main.exe.6iMB3F.ltrans0.ltrans.o
 .xdata$_ZN13MATHcontainerC4Eyf
                0x00000001400290e8        0xc C:\Users\ARABBI~1\AppData\Local\Temp\main.exe.6iMB3F.ltrans0.ltrans.o
 .xdata$_ZN15lsMATHstaticstrC4Ev
                0x00000001400290f4        0x8 C:\Users\ARABBI~1\AppData\Local\Temp\main.exe.6iMB3F.ltrans0.ltrans.o
 .xdata$_ZN10lsMATHnodeC4Ev
                0x00000001400290fc        0x8 C:\Users\ARABBI~1\AppData\Local\Temp\main.exe.6iMB3F.ltrans0.ltrans.o
 .xdata$_ZN13MATHcontainer6appendEPvy
                0x0000000140029104       0x10 C:\Users\ARABBI~1\AppData\Local\Temp\main.exe.6iMB3F.ltrans0.ltrans.o
 .xdata$_ZN10lsMATHnode5trackEhy
                0x0000000140029114        0xc C:\Users\ARABBI~1\AppData\Local\Temp\main.exe.6iMB3F.ltrans0.ltrans.o
 .xdata$_ZN10lsMATHnode7addnodeEfh
                0x0000000140029120        0xc C:\Users\ARABBI~1\AppData\Local\Temp\main.exe.6iMB3F.ltrans0.ltrans.o
 .xdata$_ZN10lsMATHnode7addnodeEPF7MATHrawPS0_hEhh.constprop.0
                0x000000014002912c       0x10 C:\Users\ARABBI~1\AppData\Local\Temp\main.exe.6iMB3F.ltrans0.ltrans.o
 .xdata$_ZN15lsMATHstaticstr6addstrEPKw.isra.0
                0x000000014002913c        0xc C:\Users\ARABBI~1\AppData\Local\Temp\main.exe.6iMB3F.ltrans0.ltrans.o
 .xdata$_ZN7MATHenv6addvarEPKw7MATHraw
                0x0000000140029148        0x8 C:\Users\ARABBI~1\AppData\Local\Temp\main.exe.6iMB3F.ltrans0.ltrans.o
 .xdata$_ZN13MATHcontainer8minimizeEv
                0x0000000140029150        0x8 C:\Users\ARABBI~1\AppData\Local\Temp\main.exe.6iMB3F.ltrans0.ltrans.o
 .xdata$_ZN10lsMATHnode12finish_buildEb
                0x0000000140029158        0xc C:\Users\ARABBI~1\AppData\Local\Temp\main.exe.6iMB3F.ltrans0.ltrans.o
 .xdata$_Z4testv
                0x0000000140029164       0x18 C:\Users\ARABBI~1\AppData\Local\Temp\main.exe.6iMB3F.ltrans0.ltrans.o
 .xdata.startup.main
                0x000000014002917c        0x8 C:\Users\ARABBI~1\AppData\Local\Temp\main.exe.6iMB3F.ltrans0.ltrans.o
 .xdata$_ZdlPvy
                0x0000000140029184        0x4 D:/CODEX/Dev-Cpp/TDM-GCC3264/bin/../lib/gcc/x86_64-w64-mingw32/10.3.0\libstdc++.a(del_ops.o)
 .xdata$_Znwy   0x0000000140029188        0x8 D:/CODEX/Dev-Cpp/TDM-GCC3264/bin/../lib/gcc/x86_64-w64-mingw32/10.3.0\libstdc++.a(new_op.o)
 .xdata$_ZN10__cxxabiv120__si_class_type_infoD2Ev
                0x0000000140029190        0x4 D:/CODEX/Dev-Cpp/TDM-GCC3264/bin/../lib/gcc/x86_64-w64-mingw32/10.3.0\libstdc++.a(si_class_type_info.o)
 .xdata$_ZN10__cxxabiv120__si_class_type_infoD0Ev
                0x0000000140029194        0x8 D:/CODEX/Dev-Cpp/TDM-GCC3264/bin/../lib/gcc/x86_64-w64-mingw32/10.3.0\libstdc++.a(si_class_type_info.o)
 .xdata$_ZNK10__cxxabiv120__si_class_type_info20__do_find_public_srcExPKvPKNS_17__class_type_infoES2_
                0x000000014002919c        0xc D:/CODEX/Dev-Cpp/TDM-GCC3264/bin/../lib/gcc/x86_64-w64-mingw32/10.3.0\libstdc++.a(si_class_type_info.o)
 .xdata$_ZNK10__cxxabiv120__si_class_type_info12__do_dyncastExNS_17__class_type_info10__sub_kindEPKS1_PKvS4_S6_RNS1_16__dyncast_resultE
                0x00000001400291a8       0x18 D:/CODEX/Dev-Cpp/TDM-GCC3264/bin/../lib/gcc/x86_64-w64-mingw32/10.3.0\libstdc++.a(si_class_type_info.o)
 .xdata$_ZNK10__cxxabiv120__si_class_type_info11__do_upcastEPKNS_17__class_type_infoEPKvRNS1_15__upcast_resultE
                0x00000001400291c0       0x10 D:/CODEX/Dev-Cpp/TDM-GCC3264/bin/../lib/gcc/x86_64-w64-mingw32/10.3.0\libstdc++.a(si_class_type_info.o)
 .xdata$_ZNSt9type_infoD2Ev
                0x00000001400291d0        0x4 D:/CODEX/Dev-Cpp/TDM-GCC3264/bin/../lib/gcc/x86_64-w64-mingw32/10.3.0\libstdc++.a(tinfo.o)
 .xdata$_ZNKSt9type_info14__is_pointer_pEv
                0x00000001400291d4        0x4 D:/CODEX/Dev-Cpp/TDM-GCC3264/bin/../lib/gcc/x86_64-w64-mingw32/10.3.0\libstdc++.a(tinfo.o)
 .xdata$_ZNKSt9type_info11__do_upcastEPKN10__cxxabiv117__class_type_infoEPPv
                0x00000001400291d8        0x4 D:/CODEX/Dev-Cpp/TDM-GCC3264/bin/../lib/gcc/x86_64-w64-mingw32/10.3.0\libstdc++.a(tinfo.o)
 .xdata$_ZNSt9type_infoD0Ev
                0x00000001400291dc        0x4 D:/CODEX/Dev-Cpp/TDM-GCC3264/bin/../lib/gcc/x86_64-w64-mingw32/10.3.0\libstdc++.a(tinfo.o)
 .xdata$_ZNKSt9type_info10__do_catchEPKS_PPvj
                0x00000001400291e0        0x8 D:/CODEX/Dev-Cpp/TDM-GCC3264/bin/../lib/gcc/x86_64-w64-mingw32/10.3.0\libstdc++.a(tinfo.o)
 .xdata$_ZNKSt9type_infoeqERKS_
                0x00000001400291e8        0x8 D:/CODEX/Dev-Cpp/TDM-GCC3264/bin/../lib/gcc/x86_64-w64-mingw32/10.3.0\libstdc++.a(tinfo.o)
 .xdata$_ZNKSt9bad_alloc4whatEv
                0x00000001400291f0        0x4 D:/CODEX/Dev-Cpp/TDM-GCC3264/bin/../lib/gcc/x86_64-w64-mingw32/10.3.0\libstdc++.a(bad_alloc.o)
 .xdata$_ZNSt9bad_allocD2Ev
                0x00000001400291f4        0x4 D:/CODEX/Dev-Cpp/TDM-GCC3264/bin/../lib/gcc/x86_64-w64-mingw32/10.3.0\libstdc++.a(bad_alloc.o)
 .xdata$_ZNSt9bad_allocD0Ev
                0x00000001400291f8        0x8 D:/CODEX/Dev-Cpp/TDM-GCC3264/bin/../lib/gcc/x86_64-w64-mingw32/10.3.0\libstdc++.a(bad_alloc.o)
 .xdata$_ZNK10__cxxabiv117__class_type_info11__do_upcastEPKS0_PPv
                0x0000000140029200        0x8 D:/CODEX/Dev-Cpp/TDM-GCC3264/bin/../lib/gcc/x86_64-w64-mingw32/10.3.0\libstdc++.a(class_type_info.o)
 .xdata$_ZNK10__cxxabiv117__class_type_info20__do_find_public_srcExPKvPKS0_S2_
                0x0000000140029208        0x4 D:/CODEX/Dev-Cpp/TDM-GCC3264/bin/../lib/gcc/x86_64-w64-mingw32/10.3.0\libstdc++.a(class_type_info.o)
 .xdata$_ZN10__cxxabiv117__class_type_infoD2Ev
                0x000000014002920c        0x4 D:/CODEX/Dev-Cpp/TDM-GCC3264/bin/../lib/gcc/x86_64-w64-mingw32/10.3.0\libstdc++.a(class_type_info.o)
 .xdata$_ZN10__cxxabiv117__class_type_infoD0Ev
                0x0000000140029210        0x8 D:/CODEX/Dev-Cpp/TDM-GCC3264/bin/../lib/gcc/x86_64-w64-mingw32/10.3.0\libstdc++.a(class_type_info.o)
 .xdata$_ZNK10__cxxabiv117__class_type_info12__do_dyncastExNS0_10__sub_kindEPKS0_PKvS3_S5_RNS0_16__dyncast_resultE
                0x0000000140029218       0x10 D:/CODEX/Dev-Cpp/TDM-GCC3264/bin/../lib/gcc/x86_64-w64-mingw32/10.3.0\libstdc++.a(class_type_info.o)
 .xdata$_ZNK10__cxxabiv117__class_type_info11__do_upcastEPKS0_PKvRNS0_15__upcast_resultE
                0x0000000140029228        0xc D:/CODEX/Dev-Cpp/TDM-GCC3264/bin/../lib/gcc/x86_64-w64-mingw32/10.3.0\libstdc++.a(class_type_info.o)
 .xdata$_ZNK10__cxxabiv117__class_type_info10__do_catchEPKSt9type_infoPPvj
                0x0000000140029234       0x10 D:/CODEX/Dev-Cpp/TDM-GCC3264/bin/../lib/gcc/x86_64-w64-mingw32/10.3.0\libstdc++.a(class_type_info.o)
 .xdata$_ZdlPv  0x0000000140029244        0x4 D:/CODEX/Dev-Cpp/TDM-GCC3264/bin/../lib/gcc/x86_64-w64-mingw32/10.3.0\libstdc++.a(del_op.o)
 .xdata$_ZNK9__gnu_cxx24__concurrence_lock_error4whatEv
                0x0000000140029248        0x4 D:/CODEX/Dev-Cpp/TDM-GCC3264/bin/../lib/gcc/x86_64-w64-mingw32/10.3.0\libstdc++.a(eh_alloc.o)
 .xdata$_ZNK9__gnu_cxx26__concurrence_unlock_error4whatEv
                0x000000014002924c        0x4 D:/CODEX/Dev-Cpp/TDM-GCC3264/bin/../lib/gcc/x86_64-w64-mingw32/10.3.0\libstdc++.a(eh_alloc.o)
 .xdata$_ZN9__gnu_cxx24__concurrence_lock_errorD1Ev
                0x0000000140029250        0x4 D:/CODEX/Dev-Cpp/TDM-GCC3264/bin/../lib/gcc/x86_64-w64-mingw32/10.3.0\libstdc++.a(eh_alloc.o)
 .xdata$_ZN9__gnu_cxx26__concurrence_unlock_errorD1Ev
                0x0000000140029254        0x4 D:/CODEX/Dev-Cpp/TDM-GCC3264/bin/../lib/gcc/x86_64-w64-mingw32/10.3.0\libstdc++.a(eh_alloc.o)
 .xdata$_ZN9__gnu_cxx24__concurrence_lock_errorD0Ev
                0x0000000140029258        0x8 D:/CODEX/Dev-Cpp/TDM-GCC3264/bin/../lib/gcc/x86_64-w64-mingw32/10.3.0\libstdc++.a(eh_alloc.o)
 .xdata$_ZN9__gnu_cxx26__concurrence_unlock_errorD0Ev
                0x0000000140029260        0x8 D:/CODEX/Dev-Cpp/TDM-GCC3264/bin/../lib/gcc/x86_64-w64-mingw32/10.3.0\libstdc++.a(eh_alloc.o)
 .xdata$__tcf_0
                0x0000000140029268       0x10 D:/CODEX/Dev-Cpp/TDM-GCC3264/bin/../lib/gcc/x86_64-w64-mingw32/10.3.0\libstdc++.a(eh_alloc.o)
 .xdata$_ZN9__gnu_cxx30__throw_concurrence_lock_errorEv
                0x0000000140029278        0x8 D:/CODEX/Dev-Cpp/TDM-GCC3264/bin/../lib/gcc/x86_64-w64-mingw32/10.3.0\libstdc++.a(eh_alloc.o)
 .xdata$_ZN12_GLOBAL__N_14pool4freeEPv.constprop.0
                0x0000000140029280       0x34 D:/CODEX/Dev-Cpp/TDM-GCC3264/bin/../lib/gcc/x86_64-w64-mingw32/10.3.0\libstdc++.a(eh_alloc.o)
 .xdata$_ZN12_GLOBAL__N_14pool8allocateEy.constprop.0
                0x00000001400292b4       0x34 D:/CODEX/Dev-Cpp/TDM-GCC3264/bin/../lib/gcc/x86_64-w64-mingw32/10.3.0\libstdc++.a(eh_alloc.o)
 .xdata$_ZN9__gnu_cxx9__freeresEv
                0x00000001400292e8        0x8 D:/CODEX/Dev-Cpp/TDM-GCC3264/bin/../lib/gcc/x86_64-w64-mingw32/10.3.0\libstdc++.a(eh_alloc.o)
 .xdata$__cxa_allocate_exception
                0x00000001400292f0       0x14 D:/CODEX/Dev-Cpp/TDM-GCC3264/bin/../lib/gcc/x86_64-w64-mingw32/10.3.0\libstdc++.a(eh_alloc.o)
 .xdata$__cxa_free_exception
                0x0000000140029304       0x10 D:/CODEX/Dev-Cpp/TDM-GCC3264/bin/../lib/gcc/x86_64-w64-mingw32/10.3.0\libstdc++.a(eh_alloc.o)
 .xdata$__cxa_allocate_dependent_exception
                0x0000000140029314       0x10 D:/CODEX/Dev-Cpp/TDM-GCC3264/bin/../lib/gcc/x86_64-w64-mingw32/10.3.0\libstdc++.a(eh_alloc.o)
 .xdata$__cxa_free_dependent_exception
                0x0000000140029324       0x10 D:/CODEX/Dev-Cpp/TDM-GCC3264/bin/../lib/gcc/x86_64-w64-mingw32/10.3.0\libstdc++.a(eh_alloc.o)
 .xdata.startup._GLOBAL__sub_I__ZN9__gnu_cxx9__freeresEv
                0x0000000140029334        0x8 D:/CODEX/Dev-Cpp/TDM-GCC3264/bin/../lib/gcc/x86_64-w64-mingw32/10.3.0\libstdc++.a(eh_alloc.o)
 .xdata$_ZNSt9exceptionD2Ev
                0x000000014002933c        0x4 D:/CODEX/Dev-Cpp/TDM-GCC3264/bin/../lib/gcc/x86_64-w64-mingw32/10.3.0\libstdc++.a(eh_exception.o)
 .xdata$_ZNSt13bad_exceptionD2Ev
                0x0000000140029340        0x4 D:/CODEX/Dev-Cpp/TDM-GCC3264/bin/../lib/gcc/x86_64-w64-mingw32/10.3.0\libstdc++.a(eh_exception.o)
 .xdata$_ZNKSt9exception4whatEv
                0x0000000140029344        0x4 D:/CODEX/Dev-Cpp/TDM-GCC3264/bin/../lib/gcc/x86_64-w64-mingw32/10.3.0\libstdc++.a(eh_exception.o)
 .xdata$_ZNKSt13bad_exception4whatEv
                0x0000000140029348        0x4 D:/CODEX/Dev-Cpp/TDM-GCC3264/bin/../lib/gcc/x86_64-w64-mingw32/10.3.0\libstdc++.a(eh_exception.o)
 .xdata$_ZNSt9exceptionD0Ev
                0x000000014002934c        0x4 D:/CODEX/Dev-Cpp/TDM-GCC3264/bin/../lib/gcc/x86_64-w64-mingw32/10.3.0\libstdc++.a(eh_exception.o)
 .xdata$_ZNSt13bad_exceptionD0Ev
                0x0000000140029350        0x4 D:/CODEX/Dev-Cpp/TDM-GCC3264/bin/../lib/gcc/x86_64-w64-mingw32/10.3.0\libstdc++.a(eh_exception.o)
 .xdata$_ZN10__cxxabiv115__forced_unwindD2Ev
                0x0000000140029354        0x4 D:/CODEX/Dev-Cpp/TDM-GCC3264/bin/../lib/gcc/x86_64-w64-mingw32/10.3.0\libstdc++.a(eh_exception.o)
 .xdata$_ZN10__cxxabiv115__forced_unwindD0Ev
                0x0000000140029358        0x4 D:/CODEX/Dev-Cpp/TDM-GCC3264/bin/../lib/gcc/x86_64-w64-mingw32/10.3.0\libstdc++.a(eh_exception.o)
 .xdata$_ZN10__cxxabiv119__foreign_exceptionD2Ev
                0x000000014002935c        0x4 D:/CODEX/Dev-Cpp/TDM-GCC3264/bin/../lib/gcc/x86_64-w64-mingw32/10.3.0\libstdc++.a(eh_exception.o)
 .xdata$_ZN10__cxxabiv119__foreign_exceptionD0Ev
                0x0000000140029360        0x4 D:/CODEX/Dev-Cpp/TDM-GCC3264/bin/../lib/gcc/x86_64-w64-mingw32/10.3.0\libstdc++.a(eh_exception.o)
 .xdata$_ZGTtNKSt9exceptionD1Ev
                0x0000000140029364        0x4 D:/CODEX/Dev-Cpp/TDM-GCC3264/bin/../lib/gcc/x86_64-w64-mingw32/10.3.0\libstdc++.a(eh_exception.o)
 .xdata$_ZGTtNKSt13bad_exceptionD1Ev
                0x0000000140029368        0x4 D:/CODEX/Dev-Cpp/TDM-GCC3264/bin/../lib/gcc/x86_64-w64-mingw32/10.3.0\libstdc++.a(eh_exception.o)
 .xdata$_ZL16get_adjusted_ptrPKSt9type_infoS1_PPv
                0x000000014002936c        0xc D:/CODEX/Dev-Cpp/TDM-GCC3264/bin/../lib/gcc/x86_64-w64-mingw32/10.3.0\libstdc++.a(eh_personality.o)
 .xdata$_ZL21base_of_encoded_valuehP15_Unwind_Context
                0x0000000140029378        0x8 D:/CODEX/Dev-Cpp/TDM-GCC3264/bin/../lib/gcc/x86_64-w64-mingw32/10.3.0\libstdc++.a(eh_personality.o)
 .xdata$_ZL28read_encoded_value_with_basehyPKhPy
                0x0000000140029380        0xc D:/CODEX/Dev-Cpp/TDM-GCC3264/bin/../lib/gcc/x86_64-w64-mingw32/10.3.0\libstdc++.a(eh_personality.o)
 .xdata$_ZL20check_exception_specP16lsda_header_infoPKSt9type_infoPvx
                0x000000014002938c       0x10 D:/CODEX/Dev-Cpp/TDM-GCC3264/bin/../lib/gcc/x86_64-w64-mingw32/10.3.0\libstdc++.a(eh_personality.o)
 .xdata$_ZL17parse_lsda_headerP15_Unwind_ContextPKhP16lsda_header_info
                0x000000014002939c       0x10 D:/CODEX/Dev-Cpp/TDM-GCC3264/bin/../lib/gcc/x86_64-w64-mingw32/10.3.0\libstdc++.a(eh_personality.o)
 .xdata$_ZN10__cxxabiv1L21__gxx_personality_impEiiyP17_Unwind_ExceptionP15_Unwind_Context
                0x00000001400293ac       0x38 D:/CODEX/Dev-Cpp/TDM-GCC3264/bin/../lib/gcc/x86_64-w64-mingw32/10.3.0\libstdc++.a(eh_personality.o)
 .xdata$__cxa_call_unexpected
                0x00000001400293e4       0x34 D:/CODEX/Dev-Cpp/TDM-GCC3264/bin/../lib/gcc/x86_64-w64-mingw32/10.3.0\libstdc++.a(eh_personality.o)
 .xdata$__gxx_personality_seh0
                0x0000000140029418        0x8 D:/CODEX/Dev-Cpp/TDM-GCC3264/bin/../lib/gcc/x86_64-w64-mingw32/10.3.0\libstdc++.a(eh_personality.o)
 .xdata$_ZN10__cxxabiv111__terminateEPFvvE
                0x0000000140029420       0x30 D:/CODEX/Dev-Cpp/TDM-GCC3264/bin/../lib/gcc/x86_64-w64-mingw32/10.3.0\libstdc++.a(eh_terminate.o)
 .xdata$_ZSt13set_terminatePFvvE
                0x0000000140029450       0x24 D:/CODEX/Dev-Cpp/TDM-GCC3264/bin/../lib/gcc/x86_64-w64-mingw32/10.3.0\libstdc++.a(eh_terminate.o)
 .xdata$_ZSt13get_terminatev
                0x0000000140029474       0x10 D:/CODEX/Dev-Cpp/TDM-GCC3264/bin/../lib/gcc/x86_64-w64-mingw32/10.3.0\libstdc++.a(eh_terminate.o)
 .xdata$_ZSt9terminatev
                0x0000000140029484        0x8 D:/CODEX/Dev-Cpp/TDM-GCC3264/bin/../lib/gcc/x86_64-w64-mingw32/10.3.0\libstdc++.a(eh_terminate.o)
 .xdata$_ZN10__cxxabiv112__unexpectedEPFvvE
                0x000000014002948c        0x8 D:/CODEX/Dev-Cpp/TDM-GCC3264/bin/../lib/gcc/x86_64-w64-mingw32/10.3.0\libstdc++.a(eh_terminate.o)
 .xdata$_ZSt14set_unexpectedPFvvE
                0x0000000140029494       0x24 D:/CODEX/Dev-Cpp/TDM-GCC3264/bin/../lib/gcc/x86_64-w64-mingw32/10.3.0\libstdc++.a(eh_terminate.o)
 .xdata$_ZSt14get_unexpectedv
                0x00000001400294b8       0x10 D:/CODEX/Dev-Cpp/TDM-GCC3264/bin/../lib/gcc/x86_64-w64-mingw32/10.3.0\libstdc++.a(eh_terminate.o)
 .xdata$_ZSt10unexpectedv
                0x00000001400294c8        0x8 D:/CODEX/Dev-Cpp/TDM-GCC3264/bin/../lib/gcc/x86_64-w64-mingw32/10.3.0\libstdc++.a(eh_terminate.o)
 .xdata$_ZL23__gxx_exception_cleanup19_Unwind_Reason_CodeP17_Unwind_Exception
                0x00000001400294d0        0x8 D:/CODEX/Dev-Cpp/TDM-GCC3264/bin/../lib/gcc/x86_64-w64-mingw32/10.3.0\libstdc++.a(eh_throw.o)
 .xdata$__cxa_init_primary_exception
                0x00000001400294d8        0x8 D:/CODEX/Dev-Cpp/TDM-GCC3264/bin/../lib/gcc/x86_64-w64-mingw32/10.3.0\libstdc++.a(eh_throw.o)
 .xdata$__cxa_throw
                0x00000001400294e0        0xc D:/CODEX/Dev-Cpp/TDM-GCC3264/bin/../lib/gcc/x86_64-w64-mingw32/10.3.0\libstdc++.a(eh_throw.o)
 .xdata$__cxa_rethrow
                0x00000001400294ec        0x8 D:/CODEX/Dev-Cpp/TDM-GCC3264/bin/../lib/gcc/x86_64-w64-mingw32/10.3.0\libstdc++.a(eh_throw.o)
 .xdata$__shmem_init_eh_unex_handler__unexpected_handler
                0x00000001400294f4        0x4 D:/CODEX/Dev-Cpp/TDM-GCC3264/bin/../lib/gcc/x86_64-w64-mingw32/10.3.0\libstdc++.a(eh_unex_handler.o)
 .xdata$_ZSt15set_new_handlerPFvvE
                0x00000001400294f8        0x4 D:/CODEX/Dev-Cpp/TDM-GCC3264/bin/../lib/gcc/x86_64-w64-mingw32/10.3.0\libstdc++.a(new_handler.o)
 .xdata$_ZSt15get_new_handlerv
                0x00000001400294fc        0x4 D:/CODEX/Dev-Cpp/TDM-GCC3264/bin/../lib/gcc/x86_64-w64-mingw32/10.3.0\libstdc++.a(new_handler.o)
 .xdata$__cxa_pure_virtual
                0x0000000140029500        0x8 D:/CODEX/Dev-Cpp/TDM-GCC3264/bin/../lib/gcc/x86_64-w64-mingw32/10.3.0\libstdc++.a(pure.o)
 .xdata$__cxa_deleted_virtual
                0x0000000140029508        0x8 D:/CODEX/Dev-Cpp/TDM-GCC3264/bin/../lib/gcc/x86_64-w64-mingw32/10.3.0\libstdc++.a(pure.o)
 .xdata$_ZN9__gnu_cxx27__verbose_terminate_handlerEv
                0x0000000140029510       0x3c D:/CODEX/Dev-Cpp/TDM-GCC3264/bin/../lib/gcc/x86_64-w64-mingw32/10.3.0\libstdc++.a(vterminate.o)
 .xdata         0x000000014002954c      0x264 D:/CODEX/Dev-Cpp/TDM-GCC3264/bin/../lib/gcc/x86_64-w64-mingw32/10.3.0\libstdc++.a(cp-demangle.o)
 .xdata.unlikely
                0x00000001400297b0       0x1c D:/CODEX/Dev-Cpp/TDM-GCC3264/bin/../lib/gcc/x86_64-w64-mingw32/10.3.0\libstdc++.a(cp-demangle.o)
 .xdata$__cxa_call_terminate
                0x00000001400297cc        0x8 D:/CODEX/Dev-Cpp/TDM-GCC3264/bin/../lib/gcc/x86_64-w64-mingw32/10.3.0\libstdc++.a(eh_call.o)
 .xdata$__cxa_get_exception_ptr
                0x00000001400297d4        0x4 D:/CODEX/Dev-Cpp/TDM-GCC3264/bin/../lib/gcc/x86_64-w64-mingw32/10.3.0\libstdc++.a(eh_catch.o)
 .xdata$__cxa_begin_catch
                0x00000001400297d8        0x8 D:/CODEX/Dev-Cpp/TDM-GCC3264/bin/../lib/gcc/x86_64-w64-mingw32/10.3.0\libstdc++.a(eh_catch.o)
 .xdata$__cxa_end_catch
                0x00000001400297e0        0x8 D:/CODEX/Dev-Cpp/TDM-GCC3264/bin/../lib/gcc/x86_64-w64-mingw32/10.3.0\libstdc++.a(eh_catch.o)
 .xdata$_ZSt18uncaught_exceptionv
                0x00000001400297e8        0x8 D:/CODEX/Dev-Cpp/TDM-GCC3264/bin/../lib/gcc/x86_64-w64-mingw32/10.3.0\libstdc++.a(eh_catch.o)
 .xdata$_ZSt19uncaught_exceptionsv
                0x00000001400297f0        0x8 D:/CODEX/Dev-Cpp/TDM-GCC3264/bin/../lib/gcc/x86_64-w64-mingw32/10.3.0\libstdc++.a(eh_catch.o)
 .xdata$_ZL15eh_globals_dtorPv
                0x00000001400297f8        0xc D:/CODEX/Dev-Cpp/TDM-GCC3264/bin/../lib/gcc/x86_64-w64-mingw32/10.3.0\libstdc++.a(eh_globals.o)
 .xdata$__tcf_0
                0x0000000140029804       0x10 D:/CODEX/Dev-Cpp/TDM-GCC3264/bin/../lib/gcc/x86_64-w64-mingw32/10.3.0\libstdc++.a(eh_globals.o)
 .xdata$__shmem_init_eh_globals_eh_globals
                0x0000000140029814        0x4 D:/CODEX/Dev-Cpp/TDM-GCC3264/bin/../lib/gcc/x86_64-w64-mingw32/10.3.0\libstdc++.a(eh_globals.o)
 .xdata$__shmem_init_eh_globals_init
                0x0000000140029818        0x4 D:/CODEX/Dev-Cpp/TDM-GCC3264/bin/../lib/gcc/x86_64-w64-mingw32/10.3.0\libstdc++.a(eh_globals.o)
 .xdata$__cxa_get_globals_fast
                0x000000014002981c       0x10 D:/CODEX/Dev-Cpp/TDM-GCC3264/bin/../lib/gcc/x86_64-w64-mingw32/10.3.0\libstdc++.a(eh_globals.o)
 .xdata$__cxa_get_globals
                0x000000014002982c       0x14 D:/CODEX/Dev-Cpp/TDM-GCC3264/bin/../lib/gcc/x86_64-w64-mingw32/10.3.0\libstdc++.a(eh_globals.o)
 .xdata.startup._GLOBAL__sub_I___shmem_eh_globals_eh_globals
                0x0000000140029840        0x8 D:/CODEX/Dev-Cpp/TDM-GCC3264/bin/../lib/gcc/x86_64-w64-mingw32/10.3.0\libstdc++.a(eh_globals.o)
 .xdata$__shmem_init_eh_term_handler__terminate_handler
                0x0000000140029848        0x4 D:/CODEX/Dev-Cpp/TDM-GCC3264/bin/../lib/gcc/x86_64-w64-mingw32/10.3.0\libstdc++.a(eh_term_handler.o)
 .xdata$__cxa_current_exception_type
                0x000000014002984c        0x8 D:/CODEX/Dev-Cpp/TDM-GCC3264/bin/../lib/gcc/x86_64-w64-mingw32/10.3.0\libstdc++.a(eh_type.o)
 .xdata         0x0000000140029854       0x18 D:\CODEX\Dev-Cpp\TDM-GCC3264\x86_64-w64-mingw32\lib/libmingw32.a(lib64_libmingw32_a-gccmain.o)
 .xdata         0x000000014002986c        0x4 D:\CODEX\Dev-Cpp\TDM-GCC3264\x86_64-w64-mingw32\lib/libmingw32.a(lib64_libmingw32_a-charmax.o)
 .xdata         0x0000000140029870        0x4 D:\CODEX\Dev-Cpp\TDM-GCC3264\x86_64-w64-mingw32\lib/libmingw32.a(lib64_libmingw32_a-dllargv.o)
 .xdata         0x0000000140029874       0x18 D:\CODEX\Dev-Cpp\TDM-GCC3264\x86_64-w64-mingw32\lib/libmingw32.a(lib64_libmingw32_a-tlssup.o)
 .xdata         0x000000014002988c       0x18 D:\CODEX\Dev-Cpp\TDM-GCC3264\x86_64-w64-mingw32\lib/libmingw32.a(lib64_libmingw32_a-merr.o)
 .xdata         0x00000001400298a4        0x4 D:\CODEX\Dev-Cpp\TDM-GCC3264\x86_64-w64-mingw32\lib/libmingw32.a(lib64_libmingw32_a-CRT_fp10.o)
 .xdata         0x00000001400298a8       0x30 D:\CODEX\Dev-Cpp\TDM-GCC3264\x86_64-w64-mingw32\lib/libmingw32.a(lib64_libmingw32_a-pseudo-reloc.o)
 .xdata         0x00000001400298d8        0xc D:\CODEX\Dev-Cpp\TDM-GCC3264\x86_64-w64-mingw32\lib/libmingw32.a(lib64_libmingw32_a-usermatherr.o)
 .xdata         0x00000001400298e4        0x8 D:\CODEX\Dev-Cpp\TDM-GCC3264\x86_64-w64-mingw32\lib/libmingw32.a(lib64_libmingw32_a-crt_handler.o)
 .xdata         0x00000001400298ec       0x2c D:\CODEX\Dev-Cpp\TDM-GCC3264\x86_64-w64-mingw32\lib/libmingw32.a(lib64_libmingw32_a-tlsthrd.o)
 .xdata         0x0000000140029918       0x2c D:\CODEX\Dev-Cpp\TDM-GCC3264\x86_64-w64-mingw32\lib/libmingw32.a(lib64_libmingw32_a-pesect.o)
 .xdata         0x0000000140029944       0x20 D:/CODEX/Dev-Cpp/TDM-GCC3264/bin/../lib/gcc/x86_64-w64-mingw32/10.3.0/libgcc.a(eh_shmem3_mingw.o)
 .xdata         0x0000000140029964       0x78 D:\CODEX\Dev-Cpp\TDM-GCC3264\x86_64-w64-mingw32\lib/libpthread.a(libwinpthread_la-mutex.o)
 .xdata         0x00000001400299dc      0x358 D:\CODEX\Dev-Cpp\TDM-GCC3264\x86_64-w64-mingw32\lib/libpthread.a(libwinpthread_la-thread.o)
 .xdata.unlikely
                0x0000000140029d34       0x48 D:\CODEX\Dev-Cpp\TDM-GCC3264\x86_64-w64-mingw32\lib/libpthread.a(libwinpthread_la-thread.o)
 .xdata         0x0000000140029d7c       0x20 D:\CODEX\Dev-Cpp\TDM-GCC3264\x86_64-w64-mingw32\lib/libpthread.a(libwinpthread_la-shmem3_mingw.o)
 .xdata         0x0000000140029d9c       0x40 D:\CODEX\Dev-Cpp\TDM-GCC3264\x86_64-w64-mingw32\lib/libpthread.a(libwinpthread_la-misc.o)
 .xdata         0x0000000140029ddc      0x10c D:\CODEX\Dev-Cpp\TDM-GCC3264\x86_64-w64-mingw32\lib/libpthread.a(libwinpthread_la-rwlock.o)
 .xdata         0x0000000140029ee8       0x14 D:\CODEX\Dev-Cpp\TDM-GCC3264\x86_64-w64-mingw32\lib/libpthread.a(libwinpthread_la-spinlock.o)
 .xdata         0x0000000140029efc      0x104 D:\CODEX\Dev-Cpp\TDM-GCC3264\x86_64-w64-mingw32\lib/libpthread.a(libwinpthread_la-cond.o)
 .xdata         0x000000014002a000       0x58 D:\CODEX\Dev-Cpp\TDM-GCC3264\x86_64-w64-mingw32\lib/libpthread.a(libwinpthread_la-sched.o)
 .xdata         0x000000014002a058        0xc D:\CODEX\Dev-Cpp\TDM-GCC3264\x86_64-w64-mingw32\lib/libmingwex.a(lib64_libmingwex_a-mingw_vfprintfw.o)
 .xdata         0x000000014002a064        0x8 D:\CODEX\Dev-Cpp\TDM-GCC3264\x86_64-w64-mingw32\lib/libmingwex.a(lib64_libmingwex_a-mingw_vsprintf.o)
 .xdata         0x000000014002a06c       0xf4 D:\CODEX\Dev-Cpp\TDM-GCC3264\x86_64-w64-mingw32\lib/libmingwex.a(lib64_libmingwex_a-mingw_pformat.o)
 .xdata         0x000000014002a160       0xe8 D:\CODEX\Dev-Cpp\TDM-GCC3264\x86_64-w64-mingw32\lib/libmingwex.a(lib64_libmingwex_a-mingw_pformatw.o)
 .xdata         0x000000014002a248       0x30 D:\CODEX\Dev-Cpp\TDM-GCC3264\x86_64-w64-mingw32\lib/libmingwex.a(lib64_libmingwex_a-dmisc.o)
 .xdata         0x000000014002a278       0x1c D:\CODEX\Dev-Cpp\TDM-GCC3264\x86_64-w64-mingw32\lib/libmingwex.a(lib64_libmingwex_a-gdtoa.o)
 .xdata         0x000000014002a294       0x14 D:\CODEX\Dev-Cpp\TDM-GCC3264\x86_64-w64-mingw32\lib/libmingwex.a(lib64_libmingwex_a-gmisc.o)
 .xdata         0x000000014002a2a8       0xac D:\CODEX\Dev-Cpp\TDM-GCC3264\x86_64-w64-mingw32\lib/libmingwex.a(lib64_libmingwex_a-misc.o)
 .xdata         0x000000014002a354        0x4 D:\CODEX\Dev-Cpp\TDM-GCC3264\x86_64-w64-mingw32\lib/libmingwex.a(lib64_libmingwex_a-strnlen.o)
 .xdata         0x000000014002a358        0x4 D:\CODEX\Dev-Cpp\TDM-GCC3264\x86_64-w64-mingw32\lib/libmingwex.a(lib64_libmingwex_a-wcsnlen.o)
 .xdata         0x000000014002a35c       0x40 D:\CODEX\Dev-Cpp\TDM-GCC3264\x86_64-w64-mingw32\lib/libmsvcrt.a(lib64_libmsvcrt_os_a-mbrtowc.o)
 .xdata         0x000000014002a39c       0x28 D:\CODEX\Dev-Cpp\TDM-GCC3264\x86_64-w64-mingw32\lib/libmsvcrt.a(lib64_libmsvcrt_os_a-wcrtomb.o)
 .xdata         0x000000014002a3c4        0x8 D:\CODEX\Dev-Cpp\TDM-GCC3264\x86_64-w64-mingw32\lib/libmsvcrt.a(lib64_libmsvcrt_os_a-acrt_iob_func.o)
 .xdata         0x000000014002a3cc        0x8 D:\CODEX\Dev-Cpp\TDM-GCC3264\x86_64-w64-mingw32\lib/libmsvcrt.a(lib64_libmsvcrt_os_a-invalid_parameter_handler.o)
 .xdata         0x000000014002a3d4       0x10 D:\CODEX\Dev-Cpp\TDM-GCC3264\x86_64-w64-mingw32\lib/libmsvcrt.a(lib64_libmsvcrt_os_a-mingw_lock.o)
 .xdata         0x000000014002a3e4        0x4 D:\CODEX\Dev-Cpp\TDM-GCC3264\x86_64-w64-mingw32\lib/libmsvcrt.a(lib64_libmsvcrt_os_a-__p__acmdln.o)
 .xdata         0x000000014002a3e8        0x4 D:\CODEX\Dev-Cpp\TDM-GCC3264\x86_64-w64-mingw32\lib/libmsvcrt.a(lib64_libmsvcrt_os_a-__p__commode.o)
 .xdata         0x000000014002a3ec        0x4 D:\CODEX\Dev-Cpp\TDM-GCC3264\x86_64-w64-mingw32\lib/libmsvcrt.a(lib64_libmsvcrt_os_a-__p__fmode.o)
 .xdata.startup
                0x000000014002a3f0        0x4 D:/CODEX/Dev-Cpp/TDM-GCC3264/bin/../lib/gcc/x86_64-w64-mingw32/10.3.0/crtend.o

.bss            0x000000014002b000      0xe80
                0x000000014002b000                __bss_start__ = .
 *(.bss)
 .bss           0x000000014002b000       0x40 D:/CODEX/Dev-Cpp/TDM-GCC3264/bin/../lib/gcc/x86_64-w64-mingw32/10.3.0/../../../../x86_64-w64-mingw32/lib/../lib/crt2.o
                0x000000014002b000                __mingw_module_is_dll
                0x000000014002b008                __mingw_winmain_lpCmdLine
                0x000000014002b010                __mingw_winmain_hInstance
 .bss           0x000000014002b040       0x10 D:\CODEX\Dev-Cpp\TDM-GCC3264\x86_64-w64-mingw32\lib/libmingw32.a(lib64_libmingw32_a-gccmain.o)
 .bss           0x000000014002b050       0x10 D:\CODEX\Dev-Cpp\TDM-GCC3264\x86_64-w64-mingw32\lib/libmingw32.a(lib64_libmingw32_a-natstart.o)
                0x000000014002b050                __native_startup_lock
                0x000000014002b058                __native_startup_state
 .bss           0x000000014002b060       0x10 D:\CODEX\Dev-Cpp\TDM-GCC3264\x86_64-w64-mingw32\lib/libmingw32.a(lib64_libmingw32_a-charmax.o)
                0x000000014002b060                mingw_initcharmax
 .bss           0x000000014002b070       0x10 D:\CODEX\Dev-Cpp\TDM-GCC3264\x86_64-w64-mingw32\lib/libmingw32.a(lib64_libmingw32_a-_newmode.o)
                0x000000014002b070                _newmode
 .bss           0x000000014002b080       0x10 D:\CODEX\Dev-Cpp\TDM-GCC3264\x86_64-w64-mingw32\lib/libmingw32.a(lib64_libmingw32_a-tlssup.o)
                0x000000014002b080                mingw_initltssuo_force
                0x000000014002b084                mingw_initltsdyn_force
                0x000000014002b088                mingw_initltsdrot_force
                0x000000014002b08c                _tls_index
 .bss           0x000000014002b090       0x10 D:\CODEX\Dev-Cpp\TDM-GCC3264\x86_64-w64-mingw32\lib/libmingw32.a(lib64_libmingw32_a-xncommod.o)
                0x000000014002b090                _commode
 .bss           0x000000014002b0a0       0x10 D:\CODEX\Dev-Cpp\TDM-GCC3264\x86_64-w64-mingw32\lib/libmingw32.a(lib64_libmingw32_a-mingw_helpers.o)
                0x000000014002b0a0                mingw_app_type
 .bss           0x000000014002b0b0       0x10 D:\CODEX\Dev-Cpp\TDM-GCC3264\x86_64-w64-mingw32\lib/libmingw32.a(lib64_libmingw32_a-pseudo-reloc.o)
 .bss           0x000000014002b0c0       0x10 D:\CODEX\Dev-Cpp\TDM-GCC3264\x86_64-w64-mingw32\lib/libmingw32.a(lib64_libmingw32_a-usermatherr.o)
 .bss           0x000000014002b0d0       0x10 D:\CODEX\Dev-Cpp\TDM-GCC3264\x86_64-w64-mingw32\lib/libmingw32.a(lib64_libmingw32_a-xtxtmode.o)
                0x000000014002b0d0                _fmode
 .bss           0x000000014002b0e0       0x10 D:\CODEX\Dev-Cpp\TDM-GCC3264\x86_64-w64-mingw32\lib/libmingw32.a(lib64_libmingw32_a-crt_handler.o)
                0x000000014002b0e0                __mingw_oldexcpt_handler
 *fill*         0x000000014002b0f0       0x10 
 .bss           0x000000014002b100       0x60 D:\CODEX\Dev-Cpp\TDM-GCC3264\x86_64-w64-mingw32\lib/libmingw32.a(lib64_libmingw32_a-tlsthrd.o)
 .bss           0x000000014002b160      0x120 D:/CODEX/Dev-Cpp/TDM-GCC3264/bin/../lib/gcc/x86_64-w64-mingw32/10.3.0/libgcc.a(eh_shmem3_mingw.o)
                0x000000014002b160                __eh_shmem3_gcc_tdm_local_shmem_region
 .bss           0x000000014002b280       0x70 D:\CODEX\Dev-Cpp\TDM-GCC3264\x86_64-w64-mingw32\lib/libpthread.a(libwinpthread_la-thread.o)
                0x000000014002b280                __shmem_dummy_concurrency_level_shmem
                0x000000014002b288                __shmem_once_obj_shmem
                0x000000014002b290                __shmem_idListNextId_shmem
                0x000000014002b298                __shmem_idListMax_shmem
                0x000000014002b2a0                __shmem_idListCnt_shmem
                0x000000014002b2a8                __shmem_idList_shmem
                0x000000014002b2b0                __shmem_pthr_last_shmem
                0x000000014002b2b8                __shmem_pthr_root_shmem
                0x000000014002b2c0                __shmem__pthread_key_sch_shmem
                0x000000014002b2c4                __shmem__pthread_key_max_shmem
                0x000000014002b2c8                __shmem__pthread_tls_once_shmem
                0x000000014002b2cc                __shmem__pthread_concur_shmem
                0x000000014002b2d0                __shmem__pthread_cancelling_shmem
                0x000000014002b2d8                __shmem__pthread_key_dest_shmem
 *fill*         0x000000014002b2f0       0x10 
 .bss           0x000000014002b300      0x160 D:\CODEX\Dev-Cpp\TDM-GCC3264\x86_64-w64-mingw32\lib/libpthread.a(libwinpthread_la-shmem3_mingw.o)
                0x000000014002b300                __shmem3_winpthreads_tdm_local_shmem_region
 .bss           0x000000014002b460       0x10 D:\CODEX\Dev-Cpp\TDM-GCC3264\x86_64-w64-mingw32\lib/libpthread.a(libwinpthread_la-rwlock.o)
 .bss           0x000000014002b470       0x10 D:\CODEX\Dev-Cpp\TDM-GCC3264\x86_64-w64-mingw32\lib/libpthread.a(libwinpthread_la-cond.o)
 .bss           0x000000014002b480      0x9e0 D:\CODEX\Dev-Cpp\TDM-GCC3264\x86_64-w64-mingw32\lib/libmingwex.a(lib64_libmingwex_a-misc.o)
 .bss           0x000000014002be60       0x10 D:\CODEX\Dev-Cpp\TDM-GCC3264\x86_64-w64-mingw32\lib/libmsvcrt.a(lib64_libmsvcrt_os_a-mbrtowc.o)
 .bss           0x000000014002be70       0x10 D:\CODEX\Dev-Cpp\TDM-GCC3264\x86_64-w64-mingw32\lib/libmsvcrt.a(lib64_libmsvcrt_os_a-invalid_parameter_handler.o)
 *(COMMON)
                0x000000014002be80                __bss_end__ = .

.edata
 *(.edata)

/DISCARD/
 *(.debug$S)
 *(.debug$T)
 *(.debug$F)
 *(.drectve)
 *(.note.GNU-stack)
 *(.gnu.lto_*)

.idata          0x000000014002c000     0x1400
 SORT_BY_NAME(*)(.idata$2)
 .idata$2       0x000000014002c000       0x14 D:/CODEX/Dev-Cpp/TDM-GCC3264/bin/../lib/gcc/x86_64-w64-mingw32/10.3.0/libgcc_s.a(d000000.o)
                0x000000014002c000                _head_libgcc_s_seh_64_1_dll
 .idata$2       0x000000014002c014       0x14 D:\CODEX\Dev-Cpp\TDM-GCC3264\x86_64-w64-mingw32\lib/libkernel32.a(dwdrh.o)
                0x000000014002c014                _head_lib64_libkernel32_a
 .idata$2       0x000000014002c028       0x14 D:\CODEX\Dev-Cpp\TDM-GCC3264\x86_64-w64-mingw32\lib/libmsvcrt.a(dcfxh.o)
                0x000000014002c028                _head_lib64_libmsvcrt_os_a
 .idata$2       0x000000014002c03c       0x14 D:\CODEX\Dev-Cpp\TDM-GCC3264\x86_64-w64-mingw32\lib/libuser32.a(dcjzh.o)
                0x000000014002c03c                _head_lib64_libuser32_a
 SORT_BY_NAME(*)(.idata$3)
                0x000000014002c050        0x4 LONG 0x0
                0x000000014002c054        0x4 LONG 0x0
                0x000000014002c058        0x4 LONG 0x0
                0x000000014002c05c        0x4 LONG 0x0
                0x000000014002c060        0x4 LONG 0x0
 SORT_BY_NAME(*)(.idata$4)
 .idata$4       0x000000014002c064        0x0 D:/CODEX/Dev-Cpp/TDM-GCC3264/bin/../lib/gcc/x86_64-w64-mingw32/10.3.0/libgcc_s.a(d000000.o)
 .idata$4       0x000000014002c064        0x8 D:/CODEX/Dev-Cpp/TDM-GCC3264/bin/../lib/gcc/x86_64-w64-mingw32/10.3.0/libgcc_s.a(d000001.o)
 .idata$4       0x000000014002c06c        0x8 D:/CODEX/Dev-Cpp/TDM-GCC3264/bin/../lib/gcc/x86_64-w64-mingw32/10.3.0/libgcc_s.a(d000003.o)
 .idata$4       0x000000014002c074        0x8 D:/CODEX/Dev-Cpp/TDM-GCC3264/bin/../lib/gcc/x86_64-w64-mingw32/10.3.0/libgcc_s.a(d000007.o)
 .idata$4       0x000000014002c07c        0x8 D:/CODEX/Dev-Cpp/TDM-GCC3264/bin/../lib/gcc/x86_64-w64-mingw32/10.3.0/libgcc_s.a(d000010.o)
 .idata$4       0x000000014002c084        0x8 D:/CODEX/Dev-Cpp/TDM-GCC3264/bin/../lib/gcc/x86_64-w64-mingw32/10.3.0/libgcc_s.a(d000011.o)
 .idata$4       0x000000014002c08c        0x8 D:/CODEX/Dev-Cpp/TDM-GCC3264/bin/../lib/gcc/x86_64-w64-mingw32/10.3.0/libgcc_s.a(d000012.o)
 .idata$4       0x000000014002c094        0x8 D:/CODEX/Dev-Cpp/TDM-GCC3264/bin/../lib/gcc/x86_64-w64-mingw32/10.3.0/libgcc_s.a(d000013.o)
 .idata$4       0x000000014002c09c        0x8 D:/CODEX/Dev-Cpp/TDM-GCC3264/bin/../lib/gcc/x86_64-w64-mingw32/10.3.0/libgcc_s.a(d000014.o)
 .idata$4       0x000000014002c0a4        0x8 D:/CODEX/Dev-Cpp/TDM-GCC3264/bin/../lib/gcc/x86_64-w64-mingw32/10.3.0/libgcc_s.a(d000015.o)
 .idata$4       0x000000014002c0ac        0x8 D:/CODEX/Dev-Cpp/TDM-GCC3264/bin/../lib/gcc/x86_64-w64-mingw32/10.3.0/libgcc_s.a(d000016.o)
 .idata$4       0x000000014002c0b4        0x8 D:/CODEX/Dev-Cpp/TDM-GCC3264/bin/../lib/gcc/x86_64-w64-mingw32/10.3.0/libgcc_s.a(d000017.o)
 .idata$4       0x000000014002c0bc        0x8 D:/CODEX/Dev-Cpp/TDM-GCC3264/bin/../lib/gcc/x86_64-w64-mingw32/10.3.0/libgcc_s.a(d000018.o)
 .idata$4       0x000000014002c0c4        0x8 D:/CODEX/Dev-Cpp/TDM-GCC3264/bin/../lib/gcc/x86_64-w64-mingw32/10.3.0/libgcc_s.a(d000123.o)
 .idata$4       0x000000014002c0cc        0x0 D:\CODEX\Dev-Cpp\TDM-GCC3264\x86_64-w64-mingw32\lib/libkernel32.a(dwdrh.o)
 .idata$4       0x000000014002c0cc        0x8 D:\CODEX\Dev-Cpp\TDM-GCC3264\x86_64-w64-mingw32\lib/libkernel32.a(dwdrs00004.o)
 .idata$4       0x000000014002c0d4        0x8 D:\CODEX\Dev-Cpp\TDM-GCC3264\x86_64-w64-mingw32\lib/libkernel32.a(dwdrs00019.o)
 .idata$4       0x000000014002c0dc        0x8 D:\CODEX\Dev-Cpp\TDM-GCC3264\x86_64-w64-mingw32\lib/libkernel32.a(dwdrs00140.o)
 .idata$4       0x000000014002c0e4        0x8 D:\CODEX\Dev-Cpp\TDM-GCC3264\x86_64-w64-mingw32\lib/libkernel32.a(dwdrs00196.o)
 .idata$4       0x000000014002c0ec        0x8 D:\CODEX\Dev-Cpp\TDM-GCC3264\x86_64-w64-mingw32\lib/libkernel32.a(dwdrs00223.o)
 .idata$4       0x000000014002c0f4        0x8 D:\CODEX\Dev-Cpp\TDM-GCC3264\x86_64-w64-mingw32\lib/libkernel32.a(dwdrs00238.o)
 .idata$4       0x000000014002c0fc        0x8 D:\CODEX\Dev-Cpp\TDM-GCC3264\x86_64-w64-mingw32\lib/libkernel32.a(dwdrs00242.o)
 .idata$4       0x000000014002c104        0x8 D:\CODEX\Dev-Cpp\TDM-GCC3264\x86_64-w64-mingw32\lib/libkernel32.a(dwdrs00280.o)
 .idata$4       0x000000014002c10c        0x8 D:\CODEX\Dev-Cpp\TDM-GCC3264\x86_64-w64-mingw32\lib/libkernel32.a(dwdrs00282.o)
 .idata$4       0x000000014002c114        0x8 D:\CODEX\Dev-Cpp\TDM-GCC3264\x86_64-w64-mingw32\lib/libkernel32.a(dwdrs00312.o)
 .idata$4       0x000000014002c11c        0x8 D:\CODEX\Dev-Cpp\TDM-GCC3264\x86_64-w64-mingw32\lib/libkernel32.a(dwdrs00318.o)
 .idata$4       0x000000014002c124        0x8 D:\CODEX\Dev-Cpp\TDM-GCC3264\x86_64-w64-mingw32\lib/libkernel32.a(dwdrs00386.o)
 .idata$4       0x000000014002c12c        0x8 D:\CODEX\Dev-Cpp\TDM-GCC3264\x86_64-w64-mingw32\lib/libkernel32.a(dwdrs00437.o)
 .idata$4       0x000000014002c134        0x8 D:\CODEX\Dev-Cpp\TDM-GCC3264\x86_64-w64-mingw32\lib/libkernel32.a(dwdrs00459.o)
 .idata$4       0x000000014002c13c        0x8 D:\CODEX\Dev-Cpp\TDM-GCC3264\x86_64-w64-mingw32\lib/libkernel32.a(dwdrs00551.o)
 .idata$4       0x000000014002c144        0x8 D:\CODEX\Dev-Cpp\TDM-GCC3264\x86_64-w64-mingw32\lib/libkernel32.a(dwdrs00552.o)
 .idata$4       0x000000014002c14c        0x8 D:\CODEX\Dev-Cpp\TDM-GCC3264\x86_64-w64-mingw32\lib/libkernel32.a(dwdrs00555.o)
 .idata$4       0x000000014002c154        0x8 D:\CODEX\Dev-Cpp\TDM-GCC3264\x86_64-w64-mingw32\lib/libkernel32.a(dwdrs00556.o)
 .idata$4       0x000000014002c15c        0x8 D:\CODEX\Dev-Cpp\TDM-GCC3264\x86_64-w64-mingw32\lib/libkernel32.a(dwdrs00626.o)
 .idata$4       0x000000014002c164        0x8 D:\CODEX\Dev-Cpp\TDM-GCC3264\x86_64-w64-mingw32\lib/libkernel32.a(dwdrs00629.o)
 .idata$4       0x000000014002c16c        0x8 D:\CODEX\Dev-Cpp\TDM-GCC3264\x86_64-w64-mingw32\lib/libkernel32.a(dwdrs00649.o)
 .idata$4       0x000000014002c174        0x8 D:\CODEX\Dev-Cpp\TDM-GCC3264\x86_64-w64-mingw32\lib/libkernel32.a(dwdrs00710.o)
 .idata$4       0x000000014002c17c        0x8 D:\CODEX\Dev-Cpp\TDM-GCC3264\x86_64-w64-mingw32\lib/libkernel32.a(dwdrs00742.o)
 .idata$4       0x000000014002c184        0x8 D:\CODEX\Dev-Cpp\TDM-GCC3264\x86_64-w64-mingw32\lib/libkernel32.a(dwdrs00768.o)
 .idata$4       0x000000014002c18c        0x8 D:\CODEX\Dev-Cpp\TDM-GCC3264\x86_64-w64-mingw32\lib/libkernel32.a(dwdrs00782.o)
 .idata$4       0x000000014002c194        0x8 D:\CODEX\Dev-Cpp\TDM-GCC3264\x86_64-w64-mingw32\lib/libkernel32.a(dwdrs00792.o)
 .idata$4       0x000000014002c19c        0x8 D:\CODEX\Dev-Cpp\TDM-GCC3264\x86_64-w64-mingw32\lib/libkernel32.a(dwdrs00798.o)
 .idata$4       0x000000014002c1a4        0x8 D:\CODEX\Dev-Cpp\TDM-GCC3264\x86_64-w64-mingw32\lib/libkernel32.a(dwdrs00891.o)
 .idata$4       0x000000014002c1ac        0x8 D:\CODEX\Dev-Cpp\TDM-GCC3264\x86_64-w64-mingw32\lib/libkernel32.a(dwdrs00918.o)
 .idata$4       0x000000014002c1b4        0x8 D:\CODEX\Dev-Cpp\TDM-GCC3264\x86_64-w64-mingw32\lib/libkernel32.a(dwdrs00919.o)
 .idata$4       0x000000014002c1bc        0x8 D:\CODEX\Dev-Cpp\TDM-GCC3264\x86_64-w64-mingw32\lib/libkernel32.a(dwdrs00983.o)
 .idata$4       0x000000014002c1c4        0x8 D:\CODEX\Dev-Cpp\TDM-GCC3264\x86_64-w64-mingw32\lib/libkernel32.a(dwdrs01001.o)
 .idata$4       0x000000014002c1cc        0x8 D:\CODEX\Dev-Cpp\TDM-GCC3264\x86_64-w64-mingw32\lib/libkernel32.a(dwdrs01035.o)
 .idata$4       0x000000014002c1d4        0x8 D:\CODEX\Dev-Cpp\TDM-GCC3264\x86_64-w64-mingw32\lib/libkernel32.a(dwdrs01068.o)
 .idata$4       0x000000014002c1dc        0x8 D:\CODEX\Dev-Cpp\TDM-GCC3264\x86_64-w64-mingw32\lib/libkernel32.a(dwdrs01077.o)
 .idata$4       0x000000014002c1e4        0x8 D:\CODEX\Dev-Cpp\TDM-GCC3264\x86_64-w64-mingw32\lib/libkernel32.a(dwdrs01130.o)
 .idata$4       0x000000014002c1ec        0x8 D:\CODEX\Dev-Cpp\TDM-GCC3264\x86_64-w64-mingw32\lib/libkernel32.a(dwdrs01131.o)
 .idata$4       0x000000014002c1f4        0x8 D:\CODEX\Dev-Cpp\TDM-GCC3264\x86_64-w64-mingw32\lib/libkernel32.a(dwdrs01152.o)
 .idata$4       0x000000014002c1fc        0x8 D:\CODEX\Dev-Cpp\TDM-GCC3264\x86_64-w64-mingw32\lib/libkernel32.a(dwdrs01191.o)
 .idata$4       0x000000014002c204        0x8 D:\CODEX\Dev-Cpp\TDM-GCC3264\x86_64-w64-mingw32\lib/libkernel32.a(dwdrs01195.o)
 .idata$4       0x000000014002c20c        0x8 D:\CODEX\Dev-Cpp\TDM-GCC3264\x86_64-w64-mingw32\lib/libkernel32.a(dwdrs01206.o)
 .idata$4       0x000000014002c214        0x8 D:\CODEX\Dev-Cpp\TDM-GCC3264\x86_64-w64-mingw32\lib/libkernel32.a(dwdrs01213.o)
 .idata$4       0x000000014002c21c        0x8 D:\CODEX\Dev-Cpp\TDM-GCC3264\x86_64-w64-mingw32\lib/libkernel32.a(dwdrs01220.o)
 .idata$4       0x000000014002c224        0x8 D:\CODEX\Dev-Cpp\TDM-GCC3264\x86_64-w64-mingw32\lib/libkernel32.a(dwdrs01305.o)
 .idata$4       0x000000014002c22c        0x8 D:\CODEX\Dev-Cpp\TDM-GCC3264\x86_64-w64-mingw32\lib/libkernel32.a(dwdrs01333.o)
 .idata$4       0x000000014002c234        0x8 D:\CODEX\Dev-Cpp\TDM-GCC3264\x86_64-w64-mingw32\lib/libkernel32.a(dwdrs01344.o)
 .idata$4       0x000000014002c23c        0x8 D:\CODEX\Dev-Cpp\TDM-GCC3264\x86_64-w64-mingw32\lib/libkernel32.a(dwdrs01367.o)
 .idata$4       0x000000014002c244        0x8 D:\CODEX\Dev-Cpp\TDM-GCC3264\x86_64-w64-mingw32\lib/libkernel32.a(dwdrs01377.o)
 .idata$4       0x000000014002c24c        0x8 D:\CODEX\Dev-Cpp\TDM-GCC3264\x86_64-w64-mingw32\lib/libkernel32.a(dwdrs01393.o)
 .idata$4       0x000000014002c254        0x8 D:\CODEX\Dev-Cpp\TDM-GCC3264\x86_64-w64-mingw32\lib/libkernel32.a(dwdrs01409.o)
 .idata$4       0x000000014002c25c        0x8 D:\CODEX\Dev-Cpp\TDM-GCC3264\x86_64-w64-mingw32\lib/libkernel32.a(dwdrs01417.o)
 .idata$4       0x000000014002c264        0x8 D:\CODEX\Dev-Cpp\TDM-GCC3264\x86_64-w64-mingw32\lib/libkernel32.a(dwdrs01442.o)
 .idata$4       0x000000014002c26c        0x8 D:\CODEX\Dev-Cpp\TDM-GCC3264\x86_64-w64-mingw32\lib/libkernel32.a(dwdrs01444.o)
 .idata$4       0x000000014002c274        0x8 D:\CODEX\Dev-Cpp\TDM-GCC3264\x86_64-w64-mingw32\lib/libkernel32.a(dwdrs01445.o)
 .idata$4       0x000000014002c27c        0x8 D:\CODEX\Dev-Cpp\TDM-GCC3264\x86_64-w64-mingw32\lib/libkernel32.a(dwdrs01451.o)
 .idata$4       0x000000014002c284        0x8 D:\CODEX\Dev-Cpp\TDM-GCC3264\x86_64-w64-mingw32\lib/libkernel32.a(dwdrs01491.o)
 .idata$4       0x000000014002c28c        0x8 D:\CODEX\Dev-Cpp\TDM-GCC3264\x86_64-w64-mingw32\lib/libkernel32.a(dwdrs01493.o)
 .idata$4       0x000000014002c294        0x8 D:\CODEX\Dev-Cpp\TDM-GCC3264\x86_64-w64-mingw32\lib/libkernel32.a(dwdrs01500.o)
 .idata$4       0x000000014002c29c        0x8 D:\CODEX\Dev-Cpp\TDM-GCC3264\x86_64-w64-mingw32\lib/libkernel32.a(dwdrs01502.o)
 .idata$4       0x000000014002c2a4        0x8 D:\CODEX\Dev-Cpp\TDM-GCC3264\x86_64-w64-mingw32\lib/libkernel32.a(dwdrs01546.o)
 .idata$4       0x000000014002c2ac        0x8 D:\CODEX\Dev-Cpp\TDM-GCC3264\x86_64-w64-mingw32\lib/libkernel32.a(dwdrs01583.o)
 .idata$4       0x000000014002c2b4        0x8 D:\CODEX\Dev-Cpp\TDM-GCC3264\x86_64-w64-mingw32\lib/libkernel32.a(dwdrt.o)
 .idata$4       0x000000014002c2bc        0x0 D:\CODEX\Dev-Cpp\TDM-GCC3264\x86_64-w64-mingw32\lib/libmsvcrt.a(dcfxh.o)
 .idata$4       0x000000014002c2bc        0x8 D:\CODEX\Dev-Cpp\TDM-GCC3264\x86_64-w64-mingw32\lib/libmsvcrt.a(dcfxs00063.o)
 .idata$4       0x000000014002c2c4        0x8 D:\CODEX\Dev-Cpp\TDM-GCC3264\x86_64-w64-mingw32\lib/libmsvcrt.a(dcfxs00066.o)
 .idata$4       0x000000014002c2cc        0x8 D:\CODEX\Dev-Cpp\TDM-GCC3264\x86_64-w64-mingw32\lib/libmsvcrt.a(dcfxs00081.o)
 .idata$4       0x000000014002c2d4        0x8 D:\CODEX\Dev-Cpp\TDM-GCC3264\x86_64-w64-mingw32\lib/libmsvcrt.a(dcfxs00082.o)
 .idata$4       0x000000014002c2dc        0x8 D:\CODEX\Dev-Cpp\TDM-GCC3264\x86_64-w64-mingw32\lib/libmsvcrt.a(dcfxs00083.o)
 .idata$4       0x000000014002c2e4        0x8 D:\CODEX\Dev-Cpp\TDM-GCC3264\x86_64-w64-mingw32\lib/libmsvcrt.a(dcfxs00091.o)
 .idata$4       0x000000014002c2ec        0x8 D:\CODEX\Dev-Cpp\TDM-GCC3264\x86_64-w64-mingw32\lib/libmsvcrt.a(dcfxs00097.o)
 .idata$4       0x000000014002c2f4        0x8 D:\CODEX\Dev-Cpp\TDM-GCC3264\x86_64-w64-mingw32\lib/libmsvcrt.a(dcfxs00099.o)
 .idata$4       0x000000014002c2fc        0x8 D:\CODEX\Dev-Cpp\TDM-GCC3264\x86_64-w64-mingw32\lib/libmsvcrt.a(dcfxs00116.o)
 .idata$4       0x000000014002c304        0x8 D:\CODEX\Dev-Cpp\TDM-GCC3264\x86_64-w64-mingw32\lib/libmsvcrt.a(dcfxs00123.o)
 .idata$4       0x000000014002c30c        0x8 D:\CODEX\Dev-Cpp\TDM-GCC3264\x86_64-w64-mingw32\lib/libmsvcrt.a(dcfxs00137.o)
 .idata$4       0x000000014002c314        0x8 D:\CODEX\Dev-Cpp\TDM-GCC3264\x86_64-w64-mingw32\lib/libmsvcrt.a(dcfxs00141.o)
 .idata$4       0x000000014002c31c        0x8 D:\CODEX\Dev-Cpp\TDM-GCC3264\x86_64-w64-mingw32\lib/libmsvcrt.a(dcfxs00157.o)
 .idata$4       0x000000014002c324        0x8 D:\CODEX\Dev-Cpp\TDM-GCC3264\x86_64-w64-mingw32\lib/libmsvcrt.a(dcfxs00201.o)
 .idata$4       0x000000014002c32c        0x8 D:\CODEX\Dev-Cpp\TDM-GCC3264\x86_64-w64-mingw32\lib/libmsvcrt.a(dcfxs00204.o)
 .idata$4       0x000000014002c334        0x8 D:\CODEX\Dev-Cpp\TDM-GCC3264\x86_64-w64-mingw32\lib/libmsvcrt.a(dcfxs00254.o)
 .idata$4       0x000000014002c33c        0x8 D:\CODEX\Dev-Cpp\TDM-GCC3264\x86_64-w64-mingw32\lib/libmsvcrt.a(dcfxs00332.o)
 .idata$4       0x000000014002c344        0x8 D:\CODEX\Dev-Cpp\TDM-GCC3264\x86_64-w64-mingw32\lib/libmsvcrt.a(dcfxs00443.o)
 .idata$4       0x000000014002c34c        0x8 D:\CODEX\Dev-Cpp\TDM-GCC3264\x86_64-w64-mingw32\lib/libmsvcrt.a(dcfxs00602.o)
 .idata$4       0x000000014002c354        0x8 D:\CODEX\Dev-Cpp\TDM-GCC3264\x86_64-w64-mingw32\lib/libmsvcrt.a(dcfxs00615.o)
 .idata$4       0x000000014002c35c        0x8 D:\CODEX\Dev-Cpp\TDM-GCC3264\x86_64-w64-mingw32\lib/libmsvcrt.a(dcfxs00672.o)
 .idata$4       0x000000014002c364        0x8 D:\CODEX\Dev-Cpp\TDM-GCC3264\x86_64-w64-mingw32\lib/libmsvcrt.a(dcfxs00734.o)
 .idata$4       0x000000014002c36c        0x8 D:\CODEX\Dev-Cpp\TDM-GCC3264\x86_64-w64-mingw32\lib/libmsvcrt.a(dcfxs00809.o)
 .idata$4       0x000000014002c374        0x8 D:\CODEX\Dev-Cpp\TDM-GCC3264\x86_64-w64-mingw32\lib/libmsvcrt.a(dcfxs00821.o)
 .idata$4       0x000000014002c37c        0x8 D:\CODEX\Dev-Cpp\TDM-GCC3264\x86_64-w64-mingw32\lib/libmsvcrt.a(dcfxs00991.o)
 .idata$4       0x000000014002c384        0x8 D:\CODEX\Dev-Cpp\TDM-GCC3264\x86_64-w64-mingw32\lib/libmsvcrt.a(dcfxs01037.o)
 .idata$4       0x000000014002c38c        0x8 D:\CODEX\Dev-Cpp\TDM-GCC3264\x86_64-w64-mingw32\lib/libmsvcrt.a(dcfxs01054.o)
 .idata$4       0x000000014002c394        0x8 D:\CODEX\Dev-Cpp\TDM-GCC3264\x86_64-w64-mingw32\lib/libmsvcrt.a(dcfxs01068.o)
 .idata$4       0x000000014002c39c        0x8 D:\CODEX\Dev-Cpp\TDM-GCC3264\x86_64-w64-mingw32\lib/libmsvcrt.a(dcfxs01090.o)
 .idata$4       0x000000014002c3a4        0x8 D:\CODEX\Dev-Cpp\TDM-GCC3264\x86_64-w64-mingw32\lib/libmsvcrt.a(dcfxs01092.o)
 .idata$4       0x000000014002c3ac        0x8 D:\CODEX\Dev-Cpp\TDM-GCC3264\x86_64-w64-mingw32\lib/libmsvcrt.a(dcfxs01093.o)
 .idata$4       0x000000014002c3b4        0x8 D:\CODEX\Dev-Cpp\TDM-GCC3264\x86_64-w64-mingw32\lib/libmsvcrt.a(dcfxs01094.o)
 .idata$4       0x000000014002c3bc        0x8 D:\CODEX\Dev-Cpp\TDM-GCC3264\x86_64-w64-mingw32\lib/libmsvcrt.a(dcfxs01097.o)
 .idata$4       0x000000014002c3c4        0x8 D:\CODEX\Dev-Cpp\TDM-GCC3264\x86_64-w64-mingw32\lib/libmsvcrt.a(dcfxs01106.o)
 .idata$4       0x000000014002c3cc        0x8 D:\CODEX\Dev-Cpp\TDM-GCC3264\x86_64-w64-mingw32\lib/libmsvcrt.a(dcfxs01109.o)
 .idata$4       0x000000014002c3d4        0x8 D:\CODEX\Dev-Cpp\TDM-GCC3264\x86_64-w64-mingw32\lib/libmsvcrt.a(dcfxs01149.o)
 .idata$4       0x000000014002c3dc        0x8 D:\CODEX\Dev-Cpp\TDM-GCC3264\x86_64-w64-mingw32\lib/libmsvcrt.a(dcfxs01155.o)
 .idata$4       0x000000014002c3e4        0x8 D:\CODEX\Dev-Cpp\TDM-GCC3264\x86_64-w64-mingw32\lib/libmsvcrt.a(dcfxs01156.o)
 .idata$4       0x000000014002c3ec        0x8 D:\CODEX\Dev-Cpp\TDM-GCC3264\x86_64-w64-mingw32\lib/libmsvcrt.a(dcfxs01163.o)
 .idata$4       0x000000014002c3f4        0x8 D:\CODEX\Dev-Cpp\TDM-GCC3264\x86_64-w64-mingw32\lib/libmsvcrt.a(dcfxs01164.o)
 .idata$4       0x000000014002c3fc        0x8 D:\CODEX\Dev-Cpp\TDM-GCC3264\x86_64-w64-mingw32\lib/libmsvcrt.a(dcfxs01165.o)
 .idata$4       0x000000014002c404        0x8 D:\CODEX\Dev-Cpp\TDM-GCC3264\x86_64-w64-mingw32\lib/libmsvcrt.a(dcfxs01166.o)
 .idata$4       0x000000014002c40c        0x8 D:\CODEX\Dev-Cpp\TDM-GCC3264\x86_64-w64-mingw32\lib/libmsvcrt.a(dcfxs01174.o)
 .idata$4       0x000000014002c414        0x8 D:\CODEX\Dev-Cpp\TDM-GCC3264\x86_64-w64-mingw32\lib/libmsvcrt.a(dcfxs01187.o)
 .idata$4       0x000000014002c41c        0x8 D:\CODEX\Dev-Cpp\TDM-GCC3264\x86_64-w64-mingw32\lib/libmsvcrt.a(dcfxs01196.o)
 .idata$4       0x000000014002c424        0x8 D:\CODEX\Dev-Cpp\TDM-GCC3264\x86_64-w64-mingw32\lib/libmsvcrt.a(dcfxs01212.o)
 .idata$4       0x000000014002c42c        0x8 D:\CODEX\Dev-Cpp\TDM-GCC3264\x86_64-w64-mingw32\lib/libmsvcrt.a(dcfxs01217.o)
 .idata$4       0x000000014002c434        0x8 D:\CODEX\Dev-Cpp\TDM-GCC3264\x86_64-w64-mingw32\lib/libmsvcrt.a(dcfxs01219.o)
 .idata$4       0x000000014002c43c        0x8 D:\CODEX\Dev-Cpp\TDM-GCC3264\x86_64-w64-mingw32\lib/libmsvcrt.a(dcfxs01222.o)
 .idata$4       0x000000014002c444        0x8 D:\CODEX\Dev-Cpp\TDM-GCC3264\x86_64-w64-mingw32\lib/libmsvcrt.a(dcfxs01258.o)
 .idata$4       0x000000014002c44c        0x8 D:\CODEX\Dev-Cpp\TDM-GCC3264\x86_64-w64-mingw32\lib/libmsvcrt.a(dcfxs01283.o)
 .idata$4       0x000000014002c454        0x8 D:\CODEX\Dev-Cpp\TDM-GCC3264\x86_64-w64-mingw32\lib/libmsvcrt.a(dcfxt.o)
 .idata$4       0x000000014002c45c        0x0 D:\CODEX\Dev-Cpp\TDM-GCC3264\x86_64-w64-mingw32\lib/libuser32.a(dcjzh.o)
 .idata$4       0x000000014002c45c        0x8 D:\CODEX\Dev-Cpp\TDM-GCC3264\x86_64-w64-mingw32\lib/libuser32.a(dcjzs00619.o)
 .idata$4       0x000000014002c464        0x8 D:\CODEX\Dev-Cpp\TDM-GCC3264\x86_64-w64-mingw32\lib/libuser32.a(dcjzt.o)
                0x000000014002c46c                __IAT_start__ = .
 SORT_BY_NAME(*)(.idata$5)
 .idata$5       0x000000014002c46c        0x0 D:/CODEX/Dev-Cpp/TDM-GCC3264/bin/../lib/gcc/x86_64-w64-mingw32/10.3.0/libgcc_s.a(d000000.o)
 .idata$5       0x000000014002c46c        0x8 D:/CODEX/Dev-Cpp/TDM-GCC3264/bin/../lib/gcc/x86_64-w64-mingw32/10.3.0/libgcc_s.a(d000001.o)
                0x000000014002c46c                __imp__GCC_specific_handler
 .idata$5       0x000000014002c474        0x8 D:/CODEX/Dev-Cpp/TDM-GCC3264/bin/../lib/gcc/x86_64-w64-mingw32/10.3.0/libgcc_s.a(d000003.o)
                0x000000014002c474                __imp__Unwind_DeleteException
 .idata$5       0x000000014002c47c        0x8 D:/CODEX/Dev-Cpp/TDM-GCC3264/bin/../lib/gcc/x86_64-w64-mingw32/10.3.0/libgcc_s.a(d000007.o)
                0x000000014002c47c                __imp__Unwind_GetDataRelBase
 .idata$5       0x000000014002c484        0x8 D:/CODEX/Dev-Cpp/TDM-GCC3264/bin/../lib/gcc/x86_64-w64-mingw32/10.3.0/libgcc_s.a(d000010.o)
                0x000000014002c484                __imp__Unwind_GetIPInfo
 .idata$5       0x000000014002c48c        0x8 D:/CODEX/Dev-Cpp/TDM-GCC3264/bin/../lib/gcc/x86_64-w64-mingw32/10.3.0/libgcc_s.a(d000011.o)
                0x000000014002c48c                __imp__Unwind_GetLanguageSpecificData
 .idata$5       0x000000014002c494        0x8 D:/CODEX/Dev-Cpp/TDM-GCC3264/bin/../lib/gcc/x86_64-w64-mingw32/10.3.0/libgcc_s.a(d000012.o)
                0x000000014002c494                __imp__Unwind_GetRegionStart
 .idata$5       0x000000014002c49c        0x8 D:/CODEX/Dev-Cpp/TDM-GCC3264/bin/../lib/gcc/x86_64-w64-mingw32/10.3.0/libgcc_s.a(d000013.o)
                0x000000014002c49c                __imp__Unwind_GetTextRelBase
 .idata$5       0x000000014002c4a4        0x8 D:/CODEX/Dev-Cpp/TDM-GCC3264/bin/../lib/gcc/x86_64-w64-mingw32/10.3.0/libgcc_s.a(d000014.o)
                0x000000014002c4a4                __imp__Unwind_RaiseException
 .idata$5       0x000000014002c4ac        0x8 D:/CODEX/Dev-Cpp/TDM-GCC3264/bin/../lib/gcc/x86_64-w64-mingw32/10.3.0/libgcc_s.a(d000015.o)
                0x000000014002c4ac                __imp__Unwind_Resume
 .idata$5       0x000000014002c4b4        0x8 D:/CODEX/Dev-Cpp/TDM-GCC3264/bin/../lib/gcc/x86_64-w64-mingw32/10.3.0/libgcc_s.a(d000016.o)
                0x000000014002c4b4                __imp__Unwind_Resume_or_Rethrow
 .idata$5       0x000000014002c4bc        0x8 D:/CODEX/Dev-Cpp/TDM-GCC3264/bin/../lib/gcc/x86_64-w64-mingw32/10.3.0/libgcc_s.a(d000017.o)
                0x000000014002c4bc                __imp__Unwind_SetGR
 .idata$5       0x000000014002c4c4        0x8 D:/CODEX/Dev-Cpp/TDM-GCC3264/bin/../lib/gcc/x86_64-w64-mingw32/10.3.0/libgcc_s.a(d000018.o)
                0x000000014002c4c4                __imp__Unwind_SetIP
 .idata$5       0x000000014002c4cc        0x8 D:/CODEX/Dev-Cpp/TDM-GCC3264/bin/../lib/gcc/x86_64-w64-mingw32/10.3.0/libgcc_s.a(d000123.o)
 .idata$5       0x000000014002c4d4        0x0 D:\CODEX\Dev-Cpp\TDM-GCC3264\x86_64-w64-mingw32\lib/libkernel32.a(dwdrh.o)
 .idata$5       0x000000014002c4d4        0x8 D:\CODEX\Dev-Cpp\TDM-GCC3264\x86_64-w64-mingw32\lib/libkernel32.a(dwdrs00004.o)
                0x000000014002c4d4                __imp_AddAtomA
 .idata$5       0x000000014002c4dc        0x8 D:\CODEX\Dev-Cpp\TDM-GCC3264\x86_64-w64-mingw32\lib/libkernel32.a(dwdrs00019.o)
                0x000000014002c4dc                __imp_AddVectoredExceptionHandler
 .idata$5       0x000000014002c4e4        0x8 D:\CODEX\Dev-Cpp\TDM-GCC3264\x86_64-w64-mingw32\lib/libkernel32.a(dwdrs00140.o)
                0x000000014002c4e4                __imp_CloseHandle
 .idata$5       0x000000014002c4ec        0x8 D:\CODEX\Dev-Cpp\TDM-GCC3264\x86_64-w64-mingw32\lib/libkernel32.a(dwdrs00196.o)
                0x000000014002c4ec                __imp_CreateEventA
 .idata$5       0x000000014002c4f4        0x8 D:\CODEX\Dev-Cpp\TDM-GCC3264\x86_64-w64-mingw32\lib/libkernel32.a(dwdrs00223.o)
                0x000000014002c4f4                __imp_CreateMutexA
 .idata$5       0x000000014002c4fc        0x8 D:\CODEX\Dev-Cpp\TDM-GCC3264\x86_64-w64-mingw32\lib/libkernel32.a(dwdrs00238.o)
                0x000000014002c4fc                __imp_CreateProcessW
 .idata$5       0x000000014002c504        0x8 D:\CODEX\Dev-Cpp\TDM-GCC3264\x86_64-w64-mingw32\lib/libkernel32.a(dwdrs00242.o)
                0x000000014002c504                __imp_CreateSemaphoreA
 .idata$5       0x000000014002c50c        0x8 D:\CODEX\Dev-Cpp\TDM-GCC3264\x86_64-w64-mingw32\lib/libkernel32.a(dwdrs00280.o)
                0x000000014002c50c                __imp_DeleteAtom
 .idata$5       0x000000014002c514        0x8 D:\CODEX\Dev-Cpp\TDM-GCC3264\x86_64-w64-mingw32\lib/libkernel32.a(dwdrs00282.o)
                0x000000014002c514                __imp_DeleteCriticalSection
 .idata$5       0x000000014002c51c        0x8 D:\CODEX\Dev-Cpp\TDM-GCC3264\x86_64-w64-mingw32\lib/libkernel32.a(dwdrs00312.o)
                0x000000014002c51c                __imp_DuplicateHandle
 .idata$5       0x000000014002c524        0x8 D:\CODEX\Dev-Cpp\TDM-GCC3264\x86_64-w64-mingw32\lib/libkernel32.a(dwdrs00318.o)
                0x000000014002c524                __imp_EnterCriticalSection
 .idata$5       0x000000014002c52c        0x8 D:\CODEX\Dev-Cpp\TDM-GCC3264\x86_64-w64-mingw32\lib/libkernel32.a(dwdrs00386.o)
                0x000000014002c52c                __imp_FindAtomA
 .idata$5       0x000000014002c534        0x8 D:\CODEX\Dev-Cpp\TDM-GCC3264\x86_64-w64-mingw32\lib/libkernel32.a(dwdrs00437.o)
                0x000000014002c534                __imp_FormatMessageA
 .idata$5       0x000000014002c53c        0x8 D:\CODEX\Dev-Cpp\TDM-GCC3264\x86_64-w64-mingw32\lib/libkernel32.a(dwdrs00459.o)
                0x000000014002c53c                __imp_GetAtomNameA
 .idata$5       0x000000014002c544        0x8 D:\CODEX\Dev-Cpp\TDM-GCC3264\x86_64-w64-mingw32\lib/libkernel32.a(dwdrs00551.o)
                0x000000014002c544                __imp_GetCurrentProcess
 .idata$5       0x000000014002c54c        0x8 D:\CODEX\Dev-Cpp\TDM-GCC3264\x86_64-w64-mingw32\lib/libkernel32.a(dwdrs00552.o)
                0x000000014002c54c                __imp_GetCurrentProcessId
 .idata$5       0x000000014002c554        0x8 D:\CODEX\Dev-Cpp\TDM-GCC3264\x86_64-w64-mingw32\lib/libkernel32.a(dwdrs00555.o)
                0x000000014002c554                __imp_GetCurrentThread
 .idata$5       0x000000014002c55c        0x8 D:\CODEX\Dev-Cpp\TDM-GCC3264\x86_64-w64-mingw32\lib/libkernel32.a(dwdrs00556.o)
                0x000000014002c55c                __imp_GetCurrentThreadId
 .idata$5       0x000000014002c564        0x8 D:\CODEX\Dev-Cpp\TDM-GCC3264\x86_64-w64-mingw32\lib/libkernel32.a(dwdrs00626.o)
                0x000000014002c564                __imp_GetHandleInformation
 .idata$5       0x000000014002c56c        0x8 D:\CODEX\Dev-Cpp\TDM-GCC3264\x86_64-w64-mingw32\lib/libkernel32.a(dwdrs00629.o)
                0x000000014002c56c                __imp_GetLastError
 .idata$5       0x000000014002c574        0x8 D:\CODEX\Dev-Cpp\TDM-GCC3264\x86_64-w64-mingw32\lib/libkernel32.a(dwdrs00649.o)
                0x000000014002c574                __imp_GetModuleFileNameW
 .idata$5       0x000000014002c57c        0x8 D:\CODEX\Dev-Cpp\TDM-GCC3264\x86_64-w64-mingw32\lib/libkernel32.a(dwdrs00710.o)
                0x000000014002c57c                __imp_GetProcessAffinityMask
 .idata$5       0x000000014002c584        0x8 D:\CODEX\Dev-Cpp\TDM-GCC3264\x86_64-w64-mingw32\lib/libkernel32.a(dwdrs00742.o)
                0x000000014002c584                __imp_GetStartupInfoA
 .idata$5       0x000000014002c58c        0x8 D:\CODEX\Dev-Cpp\TDM-GCC3264\x86_64-w64-mingw32\lib/libkernel32.a(dwdrs00768.o)
                0x000000014002c58c                __imp_GetSystemTimeAsFileTime
 .idata$5       0x000000014002c594        0x8 D:\CODEX\Dev-Cpp\TDM-GCC3264\x86_64-w64-mingw32\lib/libkernel32.a(dwdrs00782.o)
                0x000000014002c594                __imp_GetThreadContext
 .idata$5       0x000000014002c59c        0x8 D:\CODEX\Dev-Cpp\TDM-GCC3264\x86_64-w64-mingw32\lib/libkernel32.a(dwdrs00792.o)
                0x000000014002c59c                __imp_GetThreadPriority
 .idata$5       0x000000014002c5a4        0x8 D:\CODEX\Dev-Cpp\TDM-GCC3264\x86_64-w64-mingw32\lib/libkernel32.a(dwdrs00798.o)
                0x000000014002c5a4                __imp_GetTickCount
 .idata$5       0x000000014002c5ac        0x8 D:\CODEX\Dev-Cpp\TDM-GCC3264\x86_64-w64-mingw32\lib/libkernel32.a(dwdrs00891.o)
                0x000000014002c5ac                __imp_InitializeCriticalSection
 .idata$5       0x000000014002c5b4        0x8 D:\CODEX\Dev-Cpp\TDM-GCC3264\x86_64-w64-mingw32\lib/libkernel32.a(dwdrs00918.o)
                0x000000014002c5b4                __imp_IsDBCSLeadByteEx
 .idata$5       0x000000014002c5bc        0x8 D:\CODEX\Dev-Cpp\TDM-GCC3264\x86_64-w64-mingw32\lib/libkernel32.a(dwdrs00919.o)
                0x000000014002c5bc                __imp_IsDebuggerPresent
 .idata$5       0x000000014002c5c4        0x8 D:\CODEX\Dev-Cpp\TDM-GCC3264\x86_64-w64-mingw32\lib/libkernel32.a(dwdrs00983.o)
                0x000000014002c5c4                __imp_LeaveCriticalSection
 .idata$5       0x000000014002c5cc        0x8 D:\CODEX\Dev-Cpp\TDM-GCC3264\x86_64-w64-mingw32\lib/libkernel32.a(dwdrs01001.o)
                0x000000014002c5cc                __imp_LocalFree
 .idata$5       0x000000014002c5d4        0x8 D:\CODEX\Dev-Cpp\TDM-GCC3264\x86_64-w64-mingw32\lib/libkernel32.a(dwdrs01035.o)
                0x000000014002c5d4                __imp_MultiByteToWideChar
 .idata$5       0x000000014002c5dc        0x8 D:\CODEX\Dev-Cpp\TDM-GCC3264\x86_64-w64-mingw32\lib/libkernel32.a(dwdrs01068.o)
                0x000000014002c5dc                __imp_OpenProcess
 .idata$5       0x000000014002c5e4        0x8 D:\CODEX\Dev-Cpp\TDM-GCC3264\x86_64-w64-mingw32\lib/libkernel32.a(dwdrs01077.o)
                0x000000014002c5e4                __imp_OutputDebugStringA
 .idata$5       0x000000014002c5ec        0x8 D:\CODEX\Dev-Cpp\TDM-GCC3264\x86_64-w64-mingw32\lib/libkernel32.a(dwdrs01130.o)
                0x000000014002c5ec                __imp_QueryPerformanceCounter
 .idata$5       0x000000014002c5f4        0x8 D:\CODEX\Dev-Cpp\TDM-GCC3264\x86_64-w64-mingw32\lib/libkernel32.a(dwdrs01131.o)
                0x000000014002c5f4                __imp_QueryPerformanceFrequency
 .idata$5       0x000000014002c5fc        0x8 D:\CODEX\Dev-Cpp\TDM-GCC3264\x86_64-w64-mingw32\lib/libkernel32.a(dwdrs01152.o)
                0x000000014002c5fc                __imp_RaiseException
 .idata$5       0x000000014002c604        0x8 D:\CODEX\Dev-Cpp\TDM-GCC3264\x86_64-w64-mingw32\lib/libkernel32.a(dwdrs01191.o)
                0x000000014002c604                __imp_ReleaseMutex
 .idata$5       0x000000014002c60c        0x8 D:\CODEX\Dev-Cpp\TDM-GCC3264\x86_64-w64-mingw32\lib/libkernel32.a(dwdrs01195.o)
                0x000000014002c60c                __imp_ReleaseSemaphore
 .idata$5       0x000000014002c614        0x8 D:\CODEX\Dev-Cpp\TDM-GCC3264\x86_64-w64-mingw32\lib/libkernel32.a(dwdrs01206.o)
                0x000000014002c614                __imp_RemoveVectoredExceptionHandler
 .idata$5       0x000000014002c61c        0x8 D:\CODEX\Dev-Cpp\TDM-GCC3264\x86_64-w64-mingw32\lib/libkernel32.a(dwdrs01213.o)
                0x000000014002c61c                __imp_ResetEvent
 .idata$5       0x000000014002c624        0x8 D:\CODEX\Dev-Cpp\TDM-GCC3264\x86_64-w64-mingw32\lib/libkernel32.a(dwdrs01220.o)
                0x000000014002c624                __imp_ResumeThread
 .idata$5       0x000000014002c62c        0x8 D:\CODEX\Dev-Cpp\TDM-GCC3264\x86_64-w64-mingw32\lib/libkernel32.a(dwdrs01305.o)
                0x000000014002c62c                __imp_SetEvent
 .idata$5       0x000000014002c634        0x8 D:\CODEX\Dev-Cpp\TDM-GCC3264\x86_64-w64-mingw32\lib/libkernel32.a(dwdrs01333.o)
                0x000000014002c634                __imp_SetLastError
 .idata$5       0x000000014002c63c        0x8 D:\CODEX\Dev-Cpp\TDM-GCC3264\x86_64-w64-mingw32\lib/libkernel32.a(dwdrs01344.o)
                0x000000014002c63c                __imp_SetProcessAffinityMask
 .idata$5       0x000000014002c644        0x8 D:\CODEX\Dev-Cpp\TDM-GCC3264\x86_64-w64-mingw32\lib/libkernel32.a(dwdrs01367.o)
                0x000000014002c644                __imp_SetThreadContext
 .idata$5       0x000000014002c64c        0x8 D:\CODEX\Dev-Cpp\TDM-GCC3264\x86_64-w64-mingw32\lib/libkernel32.a(dwdrs01377.o)
                0x000000014002c64c                __imp_SetThreadPriority
 .idata$5       0x000000014002c654        0x8 D:\CODEX\Dev-Cpp\TDM-GCC3264\x86_64-w64-mingw32\lib/libkernel32.a(dwdrs01393.o)
                0x000000014002c654                __imp_SetUnhandledExceptionFilter
 .idata$5       0x000000014002c65c        0x8 D:\CODEX\Dev-Cpp\TDM-GCC3264\x86_64-w64-mingw32\lib/libkernel32.a(dwdrs01409.o)
                0x000000014002c65c                __imp_Sleep
 .idata$5       0x000000014002c664        0x8 D:\CODEX\Dev-Cpp\TDM-GCC3264\x86_64-w64-mingw32\lib/libkernel32.a(dwdrs01417.o)
                0x000000014002c664                __imp_SuspendThread
 .idata$5       0x000000014002c66c        0x8 D:\CODEX\Dev-Cpp\TDM-GCC3264\x86_64-w64-mingw32\lib/libkernel32.a(dwdrs01442.o)
                0x000000014002c66c                __imp_TlsAlloc
 .idata$5       0x000000014002c674        0x8 D:\CODEX\Dev-Cpp\TDM-GCC3264\x86_64-w64-mingw32\lib/libkernel32.a(dwdrs01444.o)
                0x000000014002c674                __imp_TlsGetValue
 .idata$5       0x000000014002c67c        0x8 D:\CODEX\Dev-Cpp\TDM-GCC3264\x86_64-w64-mingw32\lib/libkernel32.a(dwdrs01445.o)
                0x000000014002c67c                __imp_TlsSetValue
 .idata$5       0x000000014002c684        0x8 D:\CODEX\Dev-Cpp\TDM-GCC3264\x86_64-w64-mingw32\lib/libkernel32.a(dwdrs01451.o)
                0x000000014002c684                __imp_TryEnterCriticalSection
 .idata$5       0x000000014002c68c        0x8 D:\CODEX\Dev-Cpp\TDM-GCC3264\x86_64-w64-mingw32\lib/libkernel32.a(dwdrs01491.o)
                0x000000014002c68c                __imp_VirtualProtect
 .idata$5       0x000000014002c694        0x8 D:\CODEX\Dev-Cpp\TDM-GCC3264\x86_64-w64-mingw32\lib/libkernel32.a(dwdrs01493.o)
                0x000000014002c694                __imp_VirtualQuery
 .idata$5       0x000000014002c69c        0x8 D:\CODEX\Dev-Cpp\TDM-GCC3264\x86_64-w64-mingw32\lib/libkernel32.a(dwdrs01500.o)
                0x000000014002c69c                __imp_WaitForMultipleObjects
 .idata$5       0x000000014002c6a4        0x8 D:\CODEX\Dev-Cpp\TDM-GCC3264\x86_64-w64-mingw32\lib/libkernel32.a(dwdrs01502.o)
                0x000000014002c6a4                __imp_WaitForSingleObject
 .idata$5       0x000000014002c6ac        0x8 D:\CODEX\Dev-Cpp\TDM-GCC3264\x86_64-w64-mingw32\lib/libkernel32.a(dwdrs01546.o)
                0x000000014002c6ac                __imp_WideCharToMultiByte
 .idata$5       0x000000014002c6b4        0x8 D:\CODEX\Dev-Cpp\TDM-GCC3264\x86_64-w64-mingw32\lib/libkernel32.a(dwdrs01583.o)
                0x000000014002c6b4                __imp___C_specific_handler
 .idata$5       0x000000014002c6bc        0x8 D:\CODEX\Dev-Cpp\TDM-GCC3264\x86_64-w64-mingw32\lib/libkernel32.a(dwdrt.o)
 .idata$5       0x000000014002c6c4        0x0 D:\CODEX\Dev-Cpp\TDM-GCC3264\x86_64-w64-mingw32\lib/libmsvcrt.a(dcfxh.o)
 .idata$5       0x000000014002c6c4        0x8 D:\CODEX\Dev-Cpp\TDM-GCC3264\x86_64-w64-mingw32\lib/libmsvcrt.a(dcfxs00063.o)
                0x000000014002c6c4                __imp____lc_codepage_func
 .idata$5       0x000000014002c6cc        0x8 D:\CODEX\Dev-Cpp\TDM-GCC3264\x86_64-w64-mingw32\lib/libmsvcrt.a(dcfxs00066.o)
                0x000000014002c6cc                __imp____mb_cur_max_func
 .idata$5       0x000000014002c6d4        0x8 D:\CODEX\Dev-Cpp\TDM-GCC3264\x86_64-w64-mingw32\lib/libmsvcrt.a(dcfxs00081.o)
                0x000000014002c6d4                __imp___getmainargs
 .idata$5       0x000000014002c6dc        0x8 D:\CODEX\Dev-Cpp\TDM-GCC3264\x86_64-w64-mingw32\lib/libmsvcrt.a(dcfxs00082.o)
                0x000000014002c6dc                __imp___initenv
 .idata$5       0x000000014002c6e4        0x8 D:\CODEX\Dev-Cpp\TDM-GCC3264\x86_64-w64-mingw32\lib/libmsvcrt.a(dcfxs00083.o)
                0x000000014002c6e4                __imp___iob_func
 .idata$5       0x000000014002c6ec        0x8 D:\CODEX\Dev-Cpp\TDM-GCC3264\x86_64-w64-mingw32\lib/libmsvcrt.a(dcfxs00091.o)
                0x000000014002c6ec                __imp___lconv_init
 .idata$5       0x000000014002c6f4        0x8 D:\CODEX\Dev-Cpp\TDM-GCC3264\x86_64-w64-mingw32\lib/libmsvcrt.a(dcfxs00097.o)
                0x000000014002c6f4                __imp___set_app_type
 .idata$5       0x000000014002c6fc        0x8 D:\CODEX\Dev-Cpp\TDM-GCC3264\x86_64-w64-mingw32\lib/libmsvcrt.a(dcfxs00099.o)
                0x000000014002c6fc                __imp___setusermatherr
 .idata$5       0x000000014002c704        0x8 D:\CODEX\Dev-Cpp\TDM-GCC3264\x86_64-w64-mingw32\lib/libmsvcrt.a(dcfxs00116.o)
                0x000000014002c704                __imp__acmdln
 .idata$5       0x000000014002c70c        0x8 D:\CODEX\Dev-Cpp\TDM-GCC3264\x86_64-w64-mingw32\lib/libmsvcrt.a(dcfxs00123.o)
                0x000000014002c70c                __imp__amsg_exit
 .idata$5       0x000000014002c714        0x8 D:\CODEX\Dev-Cpp\TDM-GCC3264\x86_64-w64-mingw32\lib/libmsvcrt.a(dcfxs00137.o)
                0x000000014002c714                __imp__beginthreadex
 .idata$5       0x000000014002c71c        0x8 D:\CODEX\Dev-Cpp\TDM-GCC3264\x86_64-w64-mingw32\lib/libmsvcrt.a(dcfxs00141.o)
                0x000000014002c71c                __imp__cexit
 .idata$5       0x000000014002c724        0x8 D:\CODEX\Dev-Cpp\TDM-GCC3264\x86_64-w64-mingw32\lib/libmsvcrt.a(dcfxs00157.o)
                0x000000014002c724                __imp__commode
 .idata$5       0x000000014002c72c        0x8 D:\CODEX\Dev-Cpp\TDM-GCC3264\x86_64-w64-mingw32\lib/libmsvcrt.a(dcfxs00201.o)
                0x000000014002c72c                __imp__endthreadex
 .idata$5       0x000000014002c734        0x8 D:\CODEX\Dev-Cpp\TDM-GCC3264\x86_64-w64-mingw32\lib/libmsvcrt.a(dcfxs00204.o)
                0x000000014002c734                __imp__errno
 .idata$5       0x000000014002c73c        0x8 D:\CODEX\Dev-Cpp\TDM-GCC3264\x86_64-w64-mingw32\lib/libmsvcrt.a(dcfxs00254.o)
                0x000000014002c73c                __imp__fmode
 .idata$5       0x000000014002c744        0x8 D:\CODEX\Dev-Cpp\TDM-GCC3264\x86_64-w64-mingw32\lib/libmsvcrt.a(dcfxs00332.o)
                0x000000014002c744                __imp__initterm
 .idata$5       0x000000014002c74c        0x8 D:\CODEX\Dev-Cpp\TDM-GCC3264\x86_64-w64-mingw32\lib/libmsvcrt.a(dcfxs00443.o)
                0x000000014002c74c                __imp__lock
 .idata$5       0x000000014002c754        0x8 D:\CODEX\Dev-Cpp\TDM-GCC3264\x86_64-w64-mingw32\lib/libmsvcrt.a(dcfxs00602.o)
                0x000000014002c754                __imp_memccpy
 .idata$5       0x000000014002c75c        0x8 D:\CODEX\Dev-Cpp\TDM-GCC3264\x86_64-w64-mingw32\lib/libmsvcrt.a(dcfxs00615.o)
                0x000000014002c75c                __imp__onexit
 .idata$5       0x000000014002c764        0x8 D:\CODEX\Dev-Cpp\TDM-GCC3264\x86_64-w64-mingw32\lib/libmsvcrt.a(dcfxs00672.o)
                0x000000014002c764                __imp__setjmp
 .idata$5       0x000000014002c76c        0x8 D:\CODEX\Dev-Cpp\TDM-GCC3264\x86_64-w64-mingw32\lib/libmsvcrt.a(dcfxs00734.o)
                0x000000014002c76c                __imp_strdup
 .idata$5       0x000000014002c774        0x8 D:\CODEX\Dev-Cpp\TDM-GCC3264\x86_64-w64-mingw32\lib/libmsvcrt.a(dcfxs00809.o)
                0x000000014002c774                __imp__ultoa
 .idata$5       0x000000014002c77c        0x8 D:\CODEX\Dev-Cpp\TDM-GCC3264\x86_64-w64-mingw32\lib/libmsvcrt.a(dcfxs00821.o)
                0x000000014002c77c                __imp__unlock
 .idata$5       0x000000014002c784        0x8 D:\CODEX\Dev-Cpp\TDM-GCC3264\x86_64-w64-mingw32\lib/libmsvcrt.a(dcfxs00991.o)
                0x000000014002c784                __imp_write
 .idata$5       0x000000014002c78c        0x8 D:\CODEX\Dev-Cpp\TDM-GCC3264\x86_64-w64-mingw32\lib/libmsvcrt.a(dcfxs01037.o)
                0x000000014002c78c                __imp_abort
 .idata$5       0x000000014002c794        0x8 D:\CODEX\Dev-Cpp\TDM-GCC3264\x86_64-w64-mingw32\lib/libmsvcrt.a(dcfxs01054.o)
                0x000000014002c794                __imp_calloc
 .idata$5       0x000000014002c79c        0x8 D:\CODEX\Dev-Cpp\TDM-GCC3264\x86_64-w64-mingw32\lib/libmsvcrt.a(dcfxs01068.o)
                0x000000014002c79c                __imp_exit
 .idata$5       0x000000014002c7a4        0x8 D:\CODEX\Dev-Cpp\TDM-GCC3264\x86_64-w64-mingw32\lib/libmsvcrt.a(dcfxs01090.o)
                0x000000014002c7a4                __imp_fprintf
 .idata$5       0x000000014002c7ac        0x8 D:\CODEX\Dev-Cpp\TDM-GCC3264\x86_64-w64-mingw32\lib/libmsvcrt.a(dcfxs01092.o)
                0x000000014002c7ac                __imp_fputc
 .idata$5       0x000000014002c7b4        0x8 D:\CODEX\Dev-Cpp\TDM-GCC3264\x86_64-w64-mingw32\lib/libmsvcrt.a(dcfxs01093.o)
                0x000000014002c7b4                __imp_fputs
 .idata$5       0x000000014002c7bc        0x8 D:\CODEX\Dev-Cpp\TDM-GCC3264\x86_64-w64-mingw32\lib/libmsvcrt.a(dcfxs01094.o)
                0x000000014002c7bc                __imp_fputwc
 .idata$5       0x000000014002c7c4        0x8 D:\CODEX\Dev-Cpp\TDM-GCC3264\x86_64-w64-mingw32\lib/libmsvcrt.a(dcfxs01097.o)
                0x000000014002c7c4                __imp_free
 .idata$5       0x000000014002c7cc        0x8 D:\CODEX\Dev-Cpp\TDM-GCC3264\x86_64-w64-mingw32\lib/libmsvcrt.a(dcfxs01106.o)
                0x000000014002c7cc                __imp___ms_fwprintf
 .idata$5       0x000000014002c7d4        0x8 D:\CODEX\Dev-Cpp\TDM-GCC3264\x86_64-w64-mingw32\lib/libmsvcrt.a(dcfxs01109.o)
                0x000000014002c7d4                __imp_fwrite
 .idata$5       0x000000014002c7dc        0x8 D:\CODEX\Dev-Cpp\TDM-GCC3264\x86_64-w64-mingw32\lib/libmsvcrt.a(dcfxs01149.o)
                0x000000014002c7dc                __imp_localeconv
 .idata$5       0x000000014002c7e4        0x8 D:\CODEX\Dev-Cpp\TDM-GCC3264\x86_64-w64-mingw32\lib/libmsvcrt.a(dcfxs01155.o)
                0x000000014002c7e4                __imp_longjmp
 .idata$5       0x000000014002c7ec        0x8 D:\CODEX\Dev-Cpp\TDM-GCC3264\x86_64-w64-mingw32\lib/libmsvcrt.a(dcfxs01156.o)
                0x000000014002c7ec                __imp_malloc
 .idata$5       0x000000014002c7f4        0x8 D:\CODEX\Dev-Cpp\TDM-GCC3264\x86_64-w64-mingw32\lib/libmsvcrt.a(dcfxs01163.o)
                0x000000014002c7f4                __imp_memcmp
 .idata$5       0x000000014002c7fc        0x8 D:\CODEX\Dev-Cpp\TDM-GCC3264\x86_64-w64-mingw32\lib/libmsvcrt.a(dcfxs01164.o)
                0x000000014002c7fc                __imp_memcpy
 .idata$5       0x000000014002c804        0x8 D:\CODEX\Dev-Cpp\TDM-GCC3264\x86_64-w64-mingw32\lib/libmsvcrt.a(dcfxs01165.o)
                0x000000014002c804                __imp_memmove
 .idata$5       0x000000014002c80c        0x8 D:\CODEX\Dev-Cpp\TDM-GCC3264\x86_64-w64-mingw32\lib/libmsvcrt.a(dcfxs01166.o)
                0x000000014002c80c                __imp_memset
 .idata$5       0x000000014002c814        0x8 D:\CODEX\Dev-Cpp\TDM-GCC3264\x86_64-w64-mingw32\lib/libmsvcrt.a(dcfxs01174.o)
                0x000000014002c814                __imp_printf
 .idata$5       0x000000014002c81c        0x8 D:\CODEX\Dev-Cpp\TDM-GCC3264\x86_64-w64-mingw32\lib/libmsvcrt.a(dcfxs01187.o)
                0x000000014002c81c                __imp_realloc
 .idata$5       0x000000014002c824        0x8 D:\CODEX\Dev-Cpp\TDM-GCC3264\x86_64-w64-mingw32\lib/libmsvcrt.a(dcfxs01196.o)
                0x000000014002c824                __imp_signal
 .idata$5       0x000000014002c82c        0x8 D:\CODEX\Dev-Cpp\TDM-GCC3264\x86_64-w64-mingw32\lib/libmsvcrt.a(dcfxs01212.o)
                0x000000014002c82c                __imp_strcmp
 .idata$5       0x000000014002c834        0x8 D:\CODEX\Dev-Cpp\TDM-GCC3264\x86_64-w64-mingw32\lib/libmsvcrt.a(dcfxs01217.o)
                0x000000014002c834                __imp_strerror
 .idata$5       0x000000014002c83c        0x8 D:\CODEX\Dev-Cpp\TDM-GCC3264\x86_64-w64-mingw32\lib/libmsvcrt.a(dcfxs01219.o)
                0x000000014002c83c                __imp_strlen
 .idata$5       0x000000014002c844        0x8 D:\CODEX\Dev-Cpp\TDM-GCC3264\x86_64-w64-mingw32\lib/libmsvcrt.a(dcfxs01222.o)
                0x000000014002c844                __imp_strncmp
 .idata$5       0x000000014002c84c        0x8 D:\CODEX\Dev-Cpp\TDM-GCC3264\x86_64-w64-mingw32\lib/libmsvcrt.a(dcfxs01258.o)
                0x000000014002c84c                __imp_vfprintf
 .idata$5       0x000000014002c854        0x8 D:\CODEX\Dev-Cpp\TDM-GCC3264\x86_64-w64-mingw32\lib/libmsvcrt.a(dcfxs01283.o)
                0x000000014002c854                __imp_wcslen
 .idata$5       0x000000014002c85c        0x8 D:\CODEX\Dev-Cpp\TDM-GCC3264\x86_64-w64-mingw32\lib/libmsvcrt.a(dcfxt.o)
 .idata$5       0x000000014002c864        0x0 D:\CODEX\Dev-Cpp\TDM-GCC3264\x86_64-w64-mingw32\lib/libuser32.a(dcjzh.o)
 .idata$5       0x000000014002c864        0x8 D:\CODEX\Dev-Cpp\TDM-GCC3264\x86_64-w64-mingw32\lib/libuser32.a(dcjzs00619.o)
                0x000000014002c864                __imp_MessageBoxW
 .idata$5       0x000000014002c86c        0x8 D:\CODEX\Dev-Cpp\TDM-GCC3264\x86_64-w64-mingw32\lib/libuser32.a(dcjzt.o)
                0x000000014002c874                __IAT_end__ = .
 SORT_BY_NAME(*)(.idata$6)
 .idata$6       0x000000014002c874       0x18 D:/CODEX/Dev-Cpp/TDM-GCC3264/bin/../lib/gcc/x86_64-w64-mingw32/10.3.0/libgcc_s.a(d000001.o)
 .idata$6       0x000000014002c88c       0x1c D:/CODEX/Dev-Cpp/TDM-GCC3264/bin/../lib/gcc/x86_64-w64-mingw32/10.3.0/libgcc_s.a(d000003.o)
 .idata$6       0x000000014002c8a8       0x1c D:/CODEX/Dev-Cpp/TDM-GCC3264/bin/../lib/gcc/x86_64-w64-mingw32/10.3.0/libgcc_s.a(d000007.o)
 .idata$6       0x000000014002c8c4       0x14 D:/CODEX/Dev-Cpp/TDM-GCC3264/bin/../lib/gcc/x86_64-w64-mingw32/10.3.0/libgcc_s.a(d000010.o)
 .idata$6       0x000000014002c8d8       0x24 D:/CODEX/Dev-Cpp/TDM-GCC3264/bin/../lib/gcc/x86_64-w64-mingw32/10.3.0/libgcc_s.a(d000011.o)
 .idata$6       0x000000014002c8fc       0x1c D:/CODEX/Dev-Cpp/TDM-GCC3264/bin/../lib/gcc/x86_64-w64-mingw32/10.3.0/libgcc_s.a(d000012.o)
 .idata$6       0x000000014002c918       0x1c D:/CODEX/Dev-Cpp/TDM-GCC3264/bin/../lib/gcc/x86_64-w64-mingw32/10.3.0/libgcc_s.a(d000013.o)
 .idata$6       0x000000014002c934       0x1c D:/CODEX/Dev-Cpp/TDM-GCC3264/bin/../lib/gcc/x86_64-w64-mingw32/10.3.0/libgcc_s.a(d000014.o)
 .idata$6       0x000000014002c950       0x14 D:/CODEX/Dev-Cpp/TDM-GCC3264/bin/../lib/gcc/x86_64-w64-mingw32/10.3.0/libgcc_s.a(d000015.o)
 .idata$6       0x000000014002c964       0x1c D:/CODEX/Dev-Cpp/TDM-GCC3264/bin/../lib/gcc/x86_64-w64-mingw32/10.3.0/libgcc_s.a(d000016.o)
 .idata$6       0x000000014002c980       0x10 D:/CODEX/Dev-Cpp/TDM-GCC3264/bin/../lib/gcc/x86_64-w64-mingw32/10.3.0/libgcc_s.a(d000017.o)
 .idata$6       0x000000014002c990       0x10 D:/CODEX/Dev-Cpp/TDM-GCC3264/bin/../lib/gcc/x86_64-w64-mingw32/10.3.0/libgcc_s.a(d000018.o)
 .idata$6       0x000000014002c9a0        0xc D:\CODEX\Dev-Cpp\TDM-GCC3264\x86_64-w64-mingw32\lib/libkernel32.a(dwdrs00004.o)
 .idata$6       0x000000014002c9ac       0x1e D:\CODEX\Dev-Cpp\TDM-GCC3264\x86_64-w64-mingw32\lib/libkernel32.a(dwdrs00019.o)
 .idata$6       0x000000014002c9ca        0xe D:\CODEX\Dev-Cpp\TDM-GCC3264\x86_64-w64-mingw32\lib/libkernel32.a(dwdrs00140.o)
 .idata$6       0x000000014002c9d8       0x10 D:\CODEX\Dev-Cpp\TDM-GCC3264\x86_64-w64-mingw32\lib/libkernel32.a(dwdrs00196.o)
 .idata$6       0x000000014002c9e8       0x10 D:\CODEX\Dev-Cpp\TDM-GCC3264\x86_64-w64-mingw32\lib/libkernel32.a(dwdrs00223.o)
 .idata$6       0x000000014002c9f8       0x12 D:\CODEX\Dev-Cpp\TDM-GCC3264\x86_64-w64-mingw32\lib/libkernel32.a(dwdrs00238.o)
 .idata$6       0x000000014002ca0a       0x14 D:\CODEX\Dev-Cpp\TDM-GCC3264\x86_64-w64-mingw32\lib/libkernel32.a(dwdrs00242.o)
 .idata$6       0x000000014002ca1e        0xe D:\CODEX\Dev-Cpp\TDM-GCC3264\x86_64-w64-mingw32\lib/libkernel32.a(dwdrs00280.o)
 .idata$6       0x000000014002ca2c       0x18 D:\CODEX\Dev-Cpp\TDM-GCC3264\x86_64-w64-mingw32\lib/libkernel32.a(dwdrs00282.o)
 .idata$6       0x000000014002ca44       0x12 D:\CODEX\Dev-Cpp\TDM-GCC3264\x86_64-w64-mingw32\lib/libkernel32.a(dwdrs00312.o)
 .idata$6       0x000000014002ca56       0x18 D:\CODEX\Dev-Cpp\TDM-GCC3264\x86_64-w64-mingw32\lib/libkernel32.a(dwdrs00318.o)
 .idata$6       0x000000014002ca6e        0xc D:\CODEX\Dev-Cpp\TDM-GCC3264\x86_64-w64-mingw32\lib/libkernel32.a(dwdrs00386.o)
 .idata$6       0x000000014002ca7a       0x12 D:\CODEX\Dev-Cpp\TDM-GCC3264\x86_64-w64-mingw32\lib/libkernel32.a(dwdrs00437.o)
 .idata$6       0x000000014002ca8c       0x10 D:\CODEX\Dev-Cpp\TDM-GCC3264\x86_64-w64-mingw32\lib/libkernel32.a(dwdrs00459.o)
 .idata$6       0x000000014002ca9c       0x14 D:\CODEX\Dev-Cpp\TDM-GCC3264\x86_64-w64-mingw32\lib/libkernel32.a(dwdrs00551.o)
 .idata$6       0x000000014002cab0       0x16 D:\CODEX\Dev-Cpp\TDM-GCC3264\x86_64-w64-mingw32\lib/libkernel32.a(dwdrs00552.o)
 .idata$6       0x000000014002cac6       0x14 D:\CODEX\Dev-Cpp\TDM-GCC3264\x86_64-w64-mingw32\lib/libkernel32.a(dwdrs00555.o)
 .idata$6       0x000000014002cada       0x16 D:\CODEX\Dev-Cpp\TDM-GCC3264\x86_64-w64-mingw32\lib/libkernel32.a(dwdrs00556.o)
 .idata$6       0x000000014002caf0       0x18 D:\CODEX\Dev-Cpp\TDM-GCC3264\x86_64-w64-mingw32\lib/libkernel32.a(dwdrs00626.o)
 .idata$6       0x000000014002cb08       0x10 D:\CODEX\Dev-Cpp\TDM-GCC3264\x86_64-w64-mingw32\lib/libkernel32.a(dwdrs00629.o)
 .idata$6       0x000000014002cb18       0x16 D:\CODEX\Dev-Cpp\TDM-GCC3264\x86_64-w64-mingw32\lib/libkernel32.a(dwdrs00649.o)
 .idata$6       0x000000014002cb2e       0x1a D:\CODEX\Dev-Cpp\TDM-GCC3264\x86_64-w64-mingw32\lib/libkernel32.a(dwdrs00710.o)
 .idata$6       0x000000014002cb48       0x12 D:\CODEX\Dev-Cpp\TDM-GCC3264\x86_64-w64-mingw32\lib/libkernel32.a(dwdrs00742.o)
 .idata$6       0x000000014002cb5a       0x1a D:\CODEX\Dev-Cpp\TDM-GCC3264\x86_64-w64-mingw32\lib/libkernel32.a(dwdrs00768.o)
 .idata$6       0x000000014002cb74       0x14 D:\CODEX\Dev-Cpp\TDM-GCC3264\x86_64-w64-mingw32\lib/libkernel32.a(dwdrs00782.o)
 .idata$6       0x000000014002cb88       0x14 D:\CODEX\Dev-Cpp\TDM-GCC3264\x86_64-w64-mingw32\lib/libkernel32.a(dwdrs00792.o)
 .idata$6       0x000000014002cb9c       0x10 D:\CODEX\Dev-Cpp\TDM-GCC3264\x86_64-w64-mingw32\lib/libkernel32.a(dwdrs00798.o)
 .idata$6       0x000000014002cbac       0x1c D:\CODEX\Dev-Cpp\TDM-GCC3264\x86_64-w64-mingw32\lib/libkernel32.a(dwdrs00891.o)
 .idata$6       0x000000014002cbc8       0x14 D:\CODEX\Dev-Cpp\TDM-GCC3264\x86_64-w64-mingw32\lib/libkernel32.a(dwdrs00918.o)
 .idata$6       0x000000014002cbdc       0x14 D:\CODEX\Dev-Cpp\TDM-GCC3264\x86_64-w64-mingw32\lib/libkernel32.a(dwdrs00919.o)
 .idata$6       0x000000014002cbf0       0x18 D:\CODEX\Dev-Cpp\TDM-GCC3264\x86_64-w64-mingw32\lib/libkernel32.a(dwdrs00983.o)
 .idata$6       0x000000014002cc08        0xc D:\CODEX\Dev-Cpp\TDM-GCC3264\x86_64-w64-mingw32\lib/libkernel32.a(dwdrs01001.o)
 .idata$6       0x000000014002cc14       0x16 D:\CODEX\Dev-Cpp\TDM-GCC3264\x86_64-w64-mingw32\lib/libkernel32.a(dwdrs01035.o)
 .idata$6       0x000000014002cc2a        0xe D:\CODEX\Dev-Cpp\TDM-GCC3264\x86_64-w64-mingw32\lib/libkernel32.a(dwdrs01068.o)
 .idata$6       0x000000014002cc38       0x16 D:\CODEX\Dev-Cpp\TDM-GCC3264\x86_64-w64-mingw32\lib/libkernel32.a(dwdrs01077.o)
 .idata$6       0x000000014002cc4e       0x1a D:\CODEX\Dev-Cpp\TDM-GCC3264\x86_64-w64-mingw32\lib/libkernel32.a(dwdrs01130.o)
 .idata$6       0x000000014002cc68       0x1c D:\CODEX\Dev-Cpp\TDM-GCC3264\x86_64-w64-mingw32\lib/libkernel32.a(dwdrs01131.o)
 .idata$6       0x000000014002cc84       0x12 D:\CODEX\Dev-Cpp\TDM-GCC3264\x86_64-w64-mingw32\lib/libkernel32.a(dwdrs01152.o)
 .idata$6       0x000000014002cc96       0x10 D:\CODEX\Dev-Cpp\TDM-GCC3264\x86_64-w64-mingw32\lib/libkernel32.a(dwdrs01191.o)
 .idata$6       0x000000014002cca6       0x14 D:\CODEX\Dev-Cpp\TDM-GCC3264\x86_64-w64-mingw32\lib/libkernel32.a(dwdrs01195.o)
 .idata$6       0x000000014002ccba       0x22 D:\CODEX\Dev-Cpp\TDM-GCC3264\x86_64-w64-mingw32\lib/libkernel32.a(dwdrs01206.o)
 .idata$6       0x000000014002ccdc        0xe D:\CODEX\Dev-Cpp\TDM-GCC3264\x86_64-w64-mingw32\lib/libkernel32.a(dwdrs01213.o)
 .idata$6       0x000000014002ccea       0x10 D:\CODEX\Dev-Cpp\TDM-GCC3264\x86_64-w64-mingw32\lib/libkernel32.a(dwdrs01220.o)
 .idata$6       0x000000014002ccfa        0xc D:\CODEX\Dev-Cpp\TDM-GCC3264\x86_64-w64-mingw32\lib/libkernel32.a(dwdrs01305.o)
 .idata$6       0x000000014002cd06       0x10 D:\CODEX\Dev-Cpp\TDM-GCC3264\x86_64-w64-mingw32\lib/libkernel32.a(dwdrs01333.o)
 .idata$6       0x000000014002cd16       0x1a D:\CODEX\Dev-Cpp\TDM-GCC3264\x86_64-w64-mingw32\lib/libkernel32.a(dwdrs01344.o)
 .idata$6       0x000000014002cd30       0x14 D:\CODEX\Dev-Cpp\TDM-GCC3264\x86_64-w64-mingw32\lib/libkernel32.a(dwdrs01367.o)
 .idata$6       0x000000014002cd44       0x14 D:\CODEX\Dev-Cpp\TDM-GCC3264\x86_64-w64-mingw32\lib/libkernel32.a(dwdrs01377.o)
 .idata$6       0x000000014002cd58       0x1e D:\CODEX\Dev-Cpp\TDM-GCC3264\x86_64-w64-mingw32\lib/libkernel32.a(dwdrs01393.o)
 .idata$6       0x000000014002cd76        0x8 D:\CODEX\Dev-Cpp\TDM-GCC3264\x86_64-w64-mingw32\lib/libkernel32.a(dwdrs01409.o)
 .idata$6       0x000000014002cd7e       0x10 D:\CODEX\Dev-Cpp\TDM-GCC3264\x86_64-w64-mingw32\lib/libkernel32.a(dwdrs01417.o)
 .idata$6       0x000000014002cd8e        0xc D:\CODEX\Dev-Cpp\TDM-GCC3264\x86_64-w64-mingw32\lib/libkernel32.a(dwdrs01442.o)
 .idata$6       0x000000014002cd9a        0xe D:\CODEX\Dev-Cpp\TDM-GCC3264\x86_64-w64-mingw32\lib/libkernel32.a(dwdrs01444.o)
 .idata$6       0x000000014002cda8        0xe D:\CODEX\Dev-Cpp\TDM-GCC3264\x86_64-w64-mingw32\lib/libkernel32.a(dwdrs01445.o)
 .idata$6       0x000000014002cdb6       0x1a D:\CODEX\Dev-Cpp\TDM-GCC3264\x86_64-w64-mingw32\lib/libkernel32.a(dwdrs01451.o)
 .idata$6       0x000000014002cdd0       0x12 D:\CODEX\Dev-Cpp\TDM-GCC3264\x86_64-w64-mingw32\lib/libkernel32.a(dwdrs01491.o)
 .idata$6       0x000000014002cde2       0x10 D:\CODEX\Dev-Cpp\TDM-GCC3264\x86_64-w64-mingw32\lib/libkernel32.a(dwdrs01493.o)
 .idata$6       0x000000014002cdf2       0x1a D:\CODEX\Dev-Cpp\TDM-GCC3264\x86_64-w64-mingw32\lib/libkernel32.a(dwdrs01500.o)
 .idata$6       0x000000014002ce0c       0x16 D:\CODEX\Dev-Cpp\TDM-GCC3264\x86_64-w64-mingw32\lib/libkernel32.a(dwdrs01502.o)
 .idata$6       0x000000014002ce22       0x16 D:\CODEX\Dev-Cpp\TDM-GCC3264\x86_64-w64-mingw32\lib/libkernel32.a(dwdrs01546.o)
 .idata$6       0x000000014002ce38       0x18 D:\CODEX\Dev-Cpp\TDM-GCC3264\x86_64-w64-mingw32\lib/libkernel32.a(dwdrs01583.o)
 .idata$6       0x000000014002ce50       0x16 D:\CODEX\Dev-Cpp\TDM-GCC3264\x86_64-w64-mingw32\lib/libmsvcrt.a(dcfxs00063.o)
 .idata$6       0x000000014002ce66       0x16 D:\CODEX\Dev-Cpp\TDM-GCC3264\x86_64-w64-mingw32\lib/libmsvcrt.a(dcfxs00066.o)
 .idata$6       0x000000014002ce7c       0x10 D:\CODEX\Dev-Cpp\TDM-GCC3264\x86_64-w64-mingw32\lib/libmsvcrt.a(dcfxs00081.o)
 .idata$6       0x000000014002ce8c        0xc D:\CODEX\Dev-Cpp\TDM-GCC3264\x86_64-w64-mingw32\lib/libmsvcrt.a(dcfxs00082.o)
 .idata$6       0x000000014002ce98        0xe D:\CODEX\Dev-Cpp\TDM-GCC3264\x86_64-w64-mingw32\lib/libmsvcrt.a(dcfxs00083.o)
 .idata$6       0x000000014002cea6       0x10 D:\CODEX\Dev-Cpp\TDM-GCC3264\x86_64-w64-mingw32\lib/libmsvcrt.a(dcfxs00091.o)
 .idata$6       0x000000014002ceb6       0x12 D:\CODEX\Dev-Cpp\TDM-GCC3264\x86_64-w64-mingw32\lib/libmsvcrt.a(dcfxs00097.o)
 .idata$6       0x000000014002cec8       0x14 D:\CODEX\Dev-Cpp\TDM-GCC3264\x86_64-w64-mingw32\lib/libmsvcrt.a(dcfxs00099.o)
 .idata$6       0x000000014002cedc        0xa D:\CODEX\Dev-Cpp\TDM-GCC3264\x86_64-w64-mingw32\lib/libmsvcrt.a(dcfxs00116.o)
 .idata$6       0x000000014002cee6        0xe D:\CODEX\Dev-Cpp\TDM-GCC3264\x86_64-w64-mingw32\lib/libmsvcrt.a(dcfxs00123.o)
 .idata$6       0x000000014002cef4       0x12 D:\CODEX\Dev-Cpp\TDM-GCC3264\x86_64-w64-mingw32\lib/libmsvcrt.a(dcfxs00137.o)
 .idata$6       0x000000014002cf06        0xa D:\CODEX\Dev-Cpp\TDM-GCC3264\x86_64-w64-mingw32\lib/libmsvcrt.a(dcfxs00141.o)
 .idata$6       0x000000014002cf10        0xc D:\CODEX\Dev-Cpp\TDM-GCC3264\x86_64-w64-mingw32\lib/libmsvcrt.a(dcfxs00157.o)
 .idata$6       0x000000014002cf1c       0x10 D:\CODEX\Dev-Cpp\TDM-GCC3264\x86_64-w64-mingw32\lib/libmsvcrt.a(dcfxs00201.o)
 .idata$6       0x000000014002cf2c        0xa D:\CODEX\Dev-Cpp\TDM-GCC3264\x86_64-w64-mingw32\lib/libmsvcrt.a(dcfxs00204.o)
 .idata$6       0x000000014002cf36        0xa D:\CODEX\Dev-Cpp\TDM-GCC3264\x86_64-w64-mingw32\lib/libmsvcrt.a(dcfxs00254.o)
 .idata$6       0x000000014002cf40        0xc D:\CODEX\Dev-Cpp\TDM-GCC3264\x86_64-w64-mingw32\lib/libmsvcrt.a(dcfxs00332.o)
 .idata$6       0x000000014002cf4c        0x8 D:\CODEX\Dev-Cpp\TDM-GCC3264\x86_64-w64-mingw32\lib/libmsvcrt.a(dcfxs00443.o)
 .idata$6       0x000000014002cf54        0xc D:\CODEX\Dev-Cpp\TDM-GCC3264\x86_64-w64-mingw32\lib/libmsvcrt.a(dcfxs00602.o)
 .idata$6       0x000000014002cf60        0xa D:\CODEX\Dev-Cpp\TDM-GCC3264\x86_64-w64-mingw32\lib/libmsvcrt.a(dcfxs00615.o)
 .idata$6       0x000000014002cf6a        0xa D:\CODEX\Dev-Cpp\TDM-GCC3264\x86_64-w64-mingw32\lib/libmsvcrt.a(dcfxs00672.o)
 .idata$6       0x000000014002cf74        0xa D:\CODEX\Dev-Cpp\TDM-GCC3264\x86_64-w64-mingw32\lib/libmsvcrt.a(dcfxs00734.o)
 .idata$6       0x000000014002cf7e        0xa D:\CODEX\Dev-Cpp\TDM-GCC3264\x86_64-w64-mingw32\lib/libmsvcrt.a(dcfxs00809.o)
 .idata$6       0x000000014002cf88        0xa D:\CODEX\Dev-Cpp\TDM-GCC3264\x86_64-w64-mingw32\lib/libmsvcrt.a(dcfxs00821.o)
 .idata$6       0x000000014002cf92        0xa D:\CODEX\Dev-Cpp\TDM-GCC3264\x86_64-w64-mingw32\lib/libmsvcrt.a(dcfxs00991.o)
 .idata$6       0x000000014002cf9c        0x8 D:\CODEX\Dev-Cpp\TDM-GCC3264\x86_64-w64-mingw32\lib/libmsvcrt.a(dcfxs01037.o)
 .idata$6       0x000000014002cfa4        0xa D:\CODEX\Dev-Cpp\TDM-GCC3264\x86_64-w64-mingw32\lib/libmsvcrt.a(dcfxs01054.o)
 .idata$6       0x000000014002cfae        0x8 D:\CODEX\Dev-Cpp\TDM-GCC3264\x86_64-w64-mingw32\lib/libmsvcrt.a(dcfxs01068.o)
 .idata$6       0x000000014002cfb6        0xa D:\CODEX\Dev-Cpp\TDM-GCC3264\x86_64-w64-mingw32\lib/libmsvcrt.a(dcfxs01090.o)
 .idata$6       0x000000014002cfc0        0x8 D:\CODEX\Dev-Cpp\TDM-GCC3264\x86_64-w64-mingw32\lib/libmsvcrt.a(dcfxs01092.o)
 .idata$6       0x000000014002cfc8        0x8 D:\CODEX\Dev-Cpp\TDM-GCC3264\x86_64-w64-mingw32\lib/libmsvcrt.a(dcfxs01093.o)
 .idata$6       0x000000014002cfd0        0xa D:\CODEX\Dev-Cpp\TDM-GCC3264\x86_64-w64-mingw32\lib/libmsvcrt.a(dcfxs01094.o)
 .idata$6       0x000000014002cfda        0x8 D:\CODEX\Dev-Cpp\TDM-GCC3264\x86_64-w64-mingw32\lib/libmsvcrt.a(dcfxs01097.o)
 .idata$6       0x000000014002cfe2        0xc D:\CODEX\Dev-Cpp\TDM-GCC3264\x86_64-w64-mingw32\lib/libmsvcrt.a(dcfxs01106.o)
 .idata$6       0x000000014002cfee        0xa D:\CODEX\Dev-Cpp\TDM-GCC3264\x86_64-w64-mingw32\lib/libmsvcrt.a(dcfxs01109.o)
 .idata$6       0x000000014002cff8        0xe D:\CODEX\Dev-Cpp\TDM-GCC3264\x86_64-w64-mingw32\lib/libmsvcrt.a(dcfxs01149.o)
 .idata$6       0x000000014002d006        0xa D:\CODEX\Dev-Cpp\TDM-GCC3264\x86_64-w64-mingw32\lib/libmsvcrt.a(dcfxs01155.o)
 .idata$6       0x000000014002d010        0xa D:\CODEX\Dev-Cpp\TDM-GCC3264\x86_64-w64-mingw32\lib/libmsvcrt.a(dcfxs01156.o)
 .idata$6       0x000000014002d01a        0xa D:\CODEX\Dev-Cpp\TDM-GCC3264\x86_64-w64-mingw32\lib/libmsvcrt.a(dcfxs01163.o)
 .idata$6       0x000000014002d024        0xa D:\CODEX\Dev-Cpp\TDM-GCC3264\x86_64-w64-mingw32\lib/libmsvcrt.a(dcfxs01164.o)
 .idata$6       0x000000014002d02e        0xa D:\CODEX\Dev-Cpp\TDM-GCC3264\x86_64-w64-mingw32\lib/libmsvcrt.a(dcfxs01165.o)
 .idata$6       0x000000014002d038        0xa D:\CODEX\Dev-Cpp\TDM-GCC3264\x86_64-w64-mingw32\lib/libmsvcrt.a(dcfxs01166.o)
 .idata$6       0x000000014002d042        0xa D:\CODEX\Dev-Cpp\TDM-GCC3264\x86_64-w64-mingw32\lib/libmsvcrt.a(dcfxs01174.o)
 .idata$6       0x000000014002d04c        0xa D:\CODEX\Dev-Cpp\TDM-GCC3264\x86_64-w64-mingw32\lib/libmsvcrt.a(dcfxs01187.o)
 .idata$6       0x000000014002d056        0xa D:\CODEX\Dev-Cpp\TDM-GCC3264\x86_64-w64-mingw32\lib/libmsvcrt.a(dcfxs01196.o)
 .idata$6       0x000000014002d060        0xa D:\CODEX\Dev-Cpp\TDM-GCC3264\x86_64-w64-mingw32\lib/libmsvcrt.a(dcfxs01212.o)
 .idata$6       0x000000014002d06a        0xc D:\CODEX\Dev-Cpp\TDM-GCC3264\x86_64-w64-mingw32\lib/libmsvcrt.a(dcfxs01217.o)
 .idata$6       0x000000014002d076        0xa D:\CODEX\Dev-Cpp\TDM-GCC3264\x86_64-w64-mingw32\lib/libmsvcrt.a(dcfxs01219.o)
 .idata$6       0x000000014002d080        0xa D:\CODEX\Dev-Cpp\TDM-GCC3264\x86_64-w64-mingw32\lib/libmsvcrt.a(dcfxs01222.o)
 .idata$6       0x000000014002d08a        0xc D:\CODEX\Dev-Cpp\TDM-GCC3264\x86_64-w64-mingw32\lib/libmsvcrt.a(dcfxs01258.o)
 .idata$6       0x000000014002d096        0xa D:\CODEX\Dev-Cpp\TDM-GCC3264\x86_64-w64-mingw32\lib/libmsvcrt.a(dcfxs01283.o)
 .idata$6       0x000000014002d0a0        0xe D:\CODEX\Dev-Cpp\TDM-GCC3264\x86_64-w64-mingw32\lib/libuser32.a(dcjzs00619.o)
 SORT_BY_NAME(*)(.idata$7)
 *fill*         0x000000014002d0ae        0x2 
 .idata$7       0x000000014002d0b0        0x4 D:/CODEX/Dev-Cpp/TDM-GCC3264/bin/../lib/gcc/x86_64-w64-mingw32/10.3.0/libgcc_s.a(d000001.o)
 .idata$7       0x000000014002d0b4        0x4 D:/CODEX/Dev-Cpp/TDM-GCC3264/bin/../lib/gcc/x86_64-w64-mingw32/10.3.0/libgcc_s.a(d000003.o)
 .idata$7       0x000000014002d0b8        0x4 D:/CODEX/Dev-Cpp/TDM-GCC3264/bin/../lib/gcc/x86_64-w64-mingw32/10.3.0/libgcc_s.a(d000007.o)
 .idata$7       0x000000014002d0bc        0x4 D:/CODEX/Dev-Cpp/TDM-GCC3264/bin/../lib/gcc/x86_64-w64-mingw32/10.3.0/libgcc_s.a(d000010.o)
 .idata$7       0x000000014002d0c0        0x4 D:/CODEX/Dev-Cpp/TDM-GCC3264/bin/../lib/gcc/x86_64-w64-mingw32/10.3.0/libgcc_s.a(d000011.o)
 .idata$7       0x000000014002d0c4        0x4 D:/CODEX/Dev-Cpp/TDM-GCC3264/bin/../lib/gcc/x86_64-w64-mingw32/10.3.0/libgcc_s.a(d000012.o)
 .idata$7       0x000000014002d0c8        0x4 D:/CODEX/Dev-Cpp/TDM-GCC3264/bin/../lib/gcc/x86_64-w64-mingw32/10.3.0/libgcc_s.a(d000013.o)
 .idata$7       0x000000014002d0cc        0x4 D:/CODEX/Dev-Cpp/TDM-GCC3264/bin/../lib/gcc/x86_64-w64-mingw32/10.3.0/libgcc_s.a(d000014.o)
 .idata$7       0x000000014002d0d0        0x4 D:/CODEX/Dev-Cpp/TDM-GCC3264/bin/../lib/gcc/x86_64-w64-mingw32/10.3.0/libgcc_s.a(d000015.o)
 .idata$7       0x000000014002d0d4        0x4 D:/CODEX/Dev-Cpp/TDM-GCC3264/bin/../lib/gcc/x86_64-w64-mingw32/10.3.0/libgcc_s.a(d000016.o)
 .idata$7       0x000000014002d0d8        0x4 D:/CODEX/Dev-Cpp/TDM-GCC3264/bin/../lib/gcc/x86_64-w64-mingw32/10.3.0/libgcc_s.a(d000017.o)
 .idata$7       0x000000014002d0dc        0x4 D:/CODEX/Dev-Cpp/TDM-GCC3264/bin/../lib/gcc/x86_64-w64-mingw32/10.3.0/libgcc_s.a(d000018.o)
 .idata$7       0x000000014002d0e0       0x18 D:/CODEX/Dev-Cpp/TDM-GCC3264/bin/../lib/gcc/x86_64-w64-mingw32/10.3.0/libgcc_s.a(d000123.o)
                0x000000014002d0e0                libgcc_s_seh_64_1_dll_iname
 .idata$7       0x000000014002d0f8        0x4 D:\CODEX\Dev-Cpp\TDM-GCC3264\x86_64-w64-mingw32\lib/libkernel32.a(dwdrs00004.o)
 .idata$7       0x000000014002d0fc        0x4 D:\CODEX\Dev-Cpp\TDM-GCC3264\x86_64-w64-mingw32\lib/libkernel32.a(dwdrs00019.o)
 .idata$7       0x000000014002d100        0x4 D:\CODEX\Dev-Cpp\TDM-GCC3264\x86_64-w64-mingw32\lib/libkernel32.a(dwdrs00140.o)
 .idata$7       0x000000014002d104        0x4 D:\CODEX\Dev-Cpp\TDM-GCC3264\x86_64-w64-mingw32\lib/libkernel32.a(dwdrs00196.o)
 .idata$7       0x000000014002d108        0x4 D:\CODEX\Dev-Cpp\TDM-GCC3264\x86_64-w64-mingw32\lib/libkernel32.a(dwdrs00223.o)
 .idata$7       0x000000014002d10c        0x4 D:\CODEX\Dev-Cpp\TDM-GCC3264\x86_64-w64-mingw32\lib/libkernel32.a(dwdrs00238.o)
 .idata$7       0x000000014002d110        0x4 D:\CODEX\Dev-Cpp\TDM-GCC3264\x86_64-w64-mingw32\lib/libkernel32.a(dwdrs00242.o)
 .idata$7       0x000000014002d114        0x4 D:\CODEX\Dev-Cpp\TDM-GCC3264\x86_64-w64-mingw32\lib/libkernel32.a(dwdrs00280.o)
 .idata$7       0x000000014002d118        0x4 D:\CODEX\Dev-Cpp\TDM-GCC3264\x86_64-w64-mingw32\lib/libkernel32.a(dwdrs00282.o)
 .idata$7       0x000000014002d11c        0x4 D:\CODEX\Dev-Cpp\TDM-GCC3264\x86_64-w64-mingw32\lib/libkernel32.a(dwdrs00312.o)
 .idata$7       0x000000014002d120        0x4 D:\CODEX\Dev-Cpp\TDM-GCC3264\x86_64-w64-mingw32\lib/libkernel32.a(dwdrs00318.o)
 .idata$7       0x000000014002d124        0x4 D:\CODEX\Dev-Cpp\TDM-GCC3264\x86_64-w64-mingw32\lib/libkernel32.a(dwdrs00386.o)
 .idata$7       0x000000014002d128        0x4 D:\CODEX\Dev-Cpp\TDM-GCC3264\x86_64-w64-mingw32\lib/libkernel32.a(dwdrs00437.o)
 .idata$7       0x000000014002d12c        0x4 D:\CODEX\Dev-Cpp\TDM-GCC3264\x86_64-w64-mingw32\lib/libkernel32.a(dwdrs00459.o)
 .idata$7       0x000000014002d130        0x4 D:\CODEX\Dev-Cpp\TDM-GCC3264\x86_64-w64-mingw32\lib/libkernel32.a(dwdrs00551.o)
 .idata$7       0x000000014002d134        0x4 D:\CODEX\Dev-Cpp\TDM-GCC3264\x86_64-w64-mingw32\lib/libkernel32.a(dwdrs00552.o)
 .idata$7       0x000000014002d138        0x4 D:\CODEX\Dev-Cpp\TDM-GCC3264\x86_64-w64-mingw32\lib/libkernel32.a(dwdrs00555.o)
 .idata$7       0x000000014002d13c        0x4 D:\CODEX\Dev-Cpp\TDM-GCC3264\x86_64-w64-mingw32\lib/libkernel32.a(dwdrs00556.o)
 .idata$7       0x000000014002d140        0x4 D:\CODEX\Dev-Cpp\TDM-GCC3264\x86_64-w64-mingw32\lib/libkernel32.a(dwdrs00626.o)
 .idata$7       0x000000014002d144        0x4 D:\CODEX\Dev-Cpp\TDM-GCC3264\x86_64-w64-mingw32\lib/libkernel32.a(dwdrs00629.o)
 .idata$7       0x000000014002d148        0x4 D:\CODEX\Dev-Cpp\TDM-GCC3264\x86_64-w64-mingw32\lib/libkernel32.a(dwdrs00649.o)
 .idata$7       0x000000014002d14c        0x4 D:\CODEX\Dev-Cpp\TDM-GCC3264\x86_64-w64-mingw32\lib/libkernel32.a(dwdrs00710.o)
 .idata$7       0x000000014002d150        0x4 D:\CODEX\Dev-Cpp\TDM-GCC3264\x86_64-w64-mingw32\lib/libkernel32.a(dwdrs00742.o)
 .idata$7       0x000000014002d154        0x4 D:\CODEX\Dev-Cpp\TDM-GCC3264\x86_64-w64-mingw32\lib/libkernel32.a(dwdrs00768.o)
 .idata$7       0x000000014002d158        0x4 D:\CODEX\Dev-Cpp\TDM-GCC3264\x86_64-w64-mingw32\lib/libkernel32.a(dwdrs00782.o)
 .idata$7       0x000000014002d15c        0x4 D:\CODEX\Dev-Cpp\TDM-GCC3264\x86_64-w64-mingw32\lib/libkernel32.a(dwdrs00792.o)
 .idata$7       0x000000014002d160        0x4 D:\CODEX\Dev-Cpp\TDM-GCC3264\x86_64-w64-mingw32\lib/libkernel32.a(dwdrs00798.o)
 .idata$7       0x000000014002d164        0x4 D:\CODEX\Dev-Cpp\TDM-GCC3264\x86_64-w64-mingw32\lib/libkernel32.a(dwdrs00891.o)
 .idata$7       0x000000014002d168        0x4 D:\CODEX\Dev-Cpp\TDM-GCC3264\x86_64-w64-mingw32\lib/libkernel32.a(dwdrs00918.o)
 .idata$7       0x000000014002d16c        0x4 D:\CODEX\Dev-Cpp\TDM-GCC3264\x86_64-w64-mingw32\lib/libkernel32.a(dwdrs00919.o)
 .idata$7       0x000000014002d170        0x4 D:\CODEX\Dev-Cpp\TDM-GCC3264\x86_64-w64-mingw32\lib/libkernel32.a(dwdrs00983.o)
 .idata$7       0x000000014002d174        0x4 D:\CODEX\Dev-Cpp\TDM-GCC3264\x86_64-w64-mingw32\lib/libkernel32.a(dwdrs01001.o)
 .idata$7       0x000000014002d178        0x4 D:\CODEX\Dev-Cpp\TDM-GCC3264\x86_64-w64-mingw32\lib/libkernel32.a(dwdrs01035.o)
 .idata$7       0x000000014002d17c        0x4 D:\CODEX\Dev-Cpp\TDM-GCC3264\x86_64-w64-mingw32\lib/libkernel32.a(dwdrs01068.o)
 .idata$7       0x000000014002d180        0x4 D:\CODEX\Dev-Cpp\TDM-GCC3264\x86_64-w64-mingw32\lib/libkernel32.a(dwdrs01077.o)
 .idata$7       0x000000014002d184        0x4 D:\CODEX\Dev-Cpp\TDM-GCC3264\x86_64-w64-mingw32\lib/libkernel32.a(dwdrs01130.o)
 .idata$7       0x000000014002d188        0x4 D:\CODEX\Dev-Cpp\TDM-GCC3264\x86_64-w64-mingw32\lib/libkernel32.a(dwdrs01131.o)
 .idata$7       0x000000014002d18c        0x4 D:\CODEX\Dev-Cpp\TDM-GCC3264\x86_64-w64-mingw32\lib/libkernel32.a(dwdrs01152.o)
 .idata$7       0x000000014002d190        0x4 D:\CODEX\Dev-Cpp\TDM-GCC3264\x86_64-w64-mingw32\lib/libkernel32.a(dwdrs01191.o)
 .idata$7       0x000000014002d194        0x4 D:\CODEX\Dev-Cpp\TDM-GCC3264\x86_64-w64-mingw32\lib/libkernel32.a(dwdrs01195.o)
 .idata$7       0x000000014002d198        0x4 D:\CODEX\Dev-Cpp\TDM-GCC3264\x86_64-w64-mingw32\lib/libkernel32.a(dwdrs01206.o)
 .idata$7       0x000000014002d19c        0x4 D:\CODEX\Dev-Cpp\TDM-GCC3264\x86_64-w64-mingw32\lib/libkernel32.a(dwdrs01213.o)
 .idata$7       0x000000014002d1a0        0x4 D:\CODEX\Dev-Cpp\TDM-GCC3264\x86_64-w64-mingw32\lib/libkernel32.a(dwdrs01220.o)
 .idata$7       0x000000014002d1a4        0x4 D:\CODEX\Dev-Cpp\TDM-GCC3264\x86_64-w64-mingw32\lib/libkernel32.a(dwdrs01305.o)
 .idata$7       0x000000014002d1a8        0x4 D:\CODEX\Dev-Cpp\TDM-GCC3264\x86_64-w64-mingw32\lib/libkernel32.a(dwdrs01333.o)
 .idata$7       0x000000014002d1ac        0x4 D:\CODEX\Dev-Cpp\TDM-GCC3264\x86_64-w64-mingw32\lib/libkernel32.a(dwdrs01344.o)
 .idata$7       0x000000014002d1b0        0x4 D:\CODEX\Dev-Cpp\TDM-GCC3264\x86_64-w64-mingw32\lib/libkernel32.a(dwdrs01367.o)
 .idata$7       0x000000014002d1b4        0x4 D:\CODEX\Dev-Cpp\TDM-GCC3264\x86_64-w64-mingw32\lib/libkernel32.a(dwdrs01377.o)
 .idata$7       0x000000014002d1b8        0x4 D:\CODEX\Dev-Cpp\TDM-GCC3264\x86_64-w64-mingw32\lib/libkernel32.a(dwdrs01393.o)
 .idata$7       0x000000014002d1bc        0x4 D:\CODEX\Dev-Cpp\TDM-GCC3264\x86_64-w64-mingw32\lib/libkernel32.a(dwdrs01409.o)
 .idata$7       0x000000014002d1c0        0x4 D:\CODEX\Dev-Cpp\TDM-GCC3264\x86_64-w64-mingw32\lib/libkernel32.a(dwdrs01417.o)
 .idata$7       0x000000014002d1c4        0x4 D:\CODEX\Dev-Cpp\TDM-GCC3264\x86_64-w64-mingw32\lib/libkernel32.a(dwdrs01442.o)
 .idata$7       0x000000014002d1c8        0x4 D:\CODEX\Dev-Cpp\TDM-GCC3264\x86_64-w64-mingw32\lib/libkernel32.a(dwdrs01444.o)
 .idata$7       0x000000014002d1cc        0x4 D:\CODEX\Dev-Cpp\TDM-GCC3264\x86_64-w64-mingw32\lib/libkernel32.a(dwdrs01445.o)
 .idata$7       0x000000014002d1d0        0x4 D:\CODEX\Dev-Cpp\TDM-GCC3264\x86_64-w64-mingw32\lib/libkernel32.a(dwdrs01451.o)
 .idata$7       0x000000014002d1d4        0x4 D:\CODEX\Dev-Cpp\TDM-GCC3264\x86_64-w64-mingw32\lib/libkernel32.a(dwdrs01491.o)
 .idata$7       0x000000014002d1d8        0x4 D:\CODEX\Dev-Cpp\TDM-GCC3264\x86_64-w64-mingw32\lib/libkernel32.a(dwdrs01493.o)
 .idata$7       0x000000014002d1dc        0x4 D:\CODEX\Dev-Cpp\TDM-GCC3264\x86_64-w64-mingw32\lib/libkernel32.a(dwdrs01500.o)
 .idata$7       0x000000014002d1e0        0x4 D:\CODEX\Dev-Cpp\TDM-GCC3264\x86_64-w64-mingw32\lib/libkernel32.a(dwdrs01502.o)
 .idata$7       0x000000014002d1e4        0x4 D:\CODEX\Dev-Cpp\TDM-GCC3264\x86_64-w64-mingw32\lib/libkernel32.a(dwdrs01546.o)
 .idata$7       0x000000014002d1e8        0x4 D:\CODEX\Dev-Cpp\TDM-GCC3264\x86_64-w64-mingw32\lib/libkernel32.a(dwdrs01583.o)
 .idata$7       0x000000014002d1ec       0x10 D:\CODEX\Dev-Cpp\TDM-GCC3264\x86_64-w64-mingw32\lib/libkernel32.a(dwdrt.o)
                0x000000014002d1ec                __lib64_libkernel32_a_iname
 .idata$7       0x000000014002d1fc        0x4 D:\CODEX\Dev-Cpp\TDM-GCC3264\x86_64-w64-mingw32\lib/libmsvcrt.a(dcfxs00063.o)
 .idata$7       0x000000014002d200        0x4 D:\CODEX\Dev-Cpp\TDM-GCC3264\x86_64-w64-mingw32\lib/libmsvcrt.a(dcfxs00066.o)
 .idata$7       0x000000014002d204        0x4 D:\CODEX\Dev-Cpp\TDM-GCC3264\x86_64-w64-mingw32\lib/libmsvcrt.a(dcfxs00081.o)
 .idata$7       0x000000014002d208        0x4 D:\CODEX\Dev-Cpp\TDM-GCC3264\x86_64-w64-mingw32\lib/libmsvcrt.a(dcfxs00082.o)
 .idata$7       0x000000014002d20c        0x4 D:\CODEX\Dev-Cpp\TDM-GCC3264\x86_64-w64-mingw32\lib/libmsvcrt.a(dcfxs00083.o)
 .idata$7       0x000000014002d210        0x4 D:\CODEX\Dev-Cpp\TDM-GCC3264\x86_64-w64-mingw32\lib/libmsvcrt.a(dcfxs00091.o)
 .idata$7       0x000000014002d214        0x4 D:\CODEX\Dev-Cpp\TDM-GCC3264\x86_64-w64-mingw32\lib/libmsvcrt.a(dcfxs00097.o)
 .idata$7       0x000000014002d218        0x4 D:\CODEX\Dev-Cpp\TDM-GCC3264\x86_64-w64-mingw32\lib/libmsvcrt.a(dcfxs00099.o)
 .idata$7       0x000000014002d21c        0x4 D:\CODEX\Dev-Cpp\TDM-GCC3264\x86_64-w64-mingw32\lib/libmsvcrt.a(dcfxs00116.o)
 .idata$7       0x000000014002d220        0x4 D:\CODEX\Dev-Cpp\TDM-GCC3264\x86_64-w64-mingw32\lib/libmsvcrt.a(dcfxs00123.o)
 .idata$7       0x000000014002d224        0x4 D:\CODEX\Dev-Cpp\TDM-GCC3264\x86_64-w64-mingw32\lib/libmsvcrt.a(dcfxs00137.o)
 .idata$7       0x000000014002d228        0x4 D:\CODEX\Dev-Cpp\TDM-GCC3264\x86_64-w64-mingw32\lib/libmsvcrt.a(dcfxs00141.o)
 .idata$7       0x000000014002d22c        0x4 D:\CODEX\Dev-Cpp\TDM-GCC3264\x86_64-w64-mingw32\lib/libmsvcrt.a(dcfxs00157.o)
 .idata$7       0x000000014002d230        0x4 D:\CODEX\Dev-Cpp\TDM-GCC3264\x86_64-w64-mingw32\lib/libmsvcrt.a(dcfxs00201.o)
 .idata$7       0x000000014002d234        0x4 D:\CODEX\Dev-Cpp\TDM-GCC3264\x86_64-w64-mingw32\lib/libmsvcrt.a(dcfxs00204.o)
 .idata$7       0x000000014002d238        0x4 D:\CODEX\Dev-Cpp\TDM-GCC3264\x86_64-w64-mingw32\lib/libmsvcrt.a(dcfxs00254.o)
 .idata$7       0x000000014002d23c        0x4 D:\CODEX\Dev-Cpp\TDM-GCC3264\x86_64-w64-mingw32\lib/libmsvcrt.a(dcfxs00332.o)
 .idata$7       0x000000014002d240        0x4 D:\CODEX\Dev-Cpp\TDM-GCC3264\x86_64-w64-mingw32\lib/libmsvcrt.a(dcfxs00443.o)
 .idata$7       0x000000014002d244        0x4 D:\CODEX\Dev-Cpp\TDM-GCC3264\x86_64-w64-mingw32\lib/libmsvcrt.a(dcfxs00602.o)
 .idata$7       0x000000014002d248        0x4 D:\CODEX\Dev-Cpp\TDM-GCC3264\x86_64-w64-mingw32\lib/libmsvcrt.a(dcfxs00615.o)
 .idata$7       0x000000014002d24c        0x4 D:\CODEX\Dev-Cpp\TDM-GCC3264\x86_64-w64-mingw32\lib/libmsvcrt.a(dcfxs00672.o)
 .idata$7       0x000000014002d250        0x4 D:\CODEX\Dev-Cpp\TDM-GCC3264\x86_64-w64-mingw32\lib/libmsvcrt.a(dcfxs00734.o)
 .idata$7       0x000000014002d254        0x4 D:\CODEX\Dev-Cpp\TDM-GCC3264\x86_64-w64-mingw32\lib/libmsvcrt.a(dcfxs00809.o)
 .idata$7       0x000000014002d258        0x4 D:\CODEX\Dev-Cpp\TDM-GCC3264\x86_64-w64-mingw32\lib/libmsvcrt.a(dcfxs00821.o)
 .idata$7       0x000000014002d25c        0x4 D:\CODEX\Dev-Cpp\TDM-GCC3264\x86_64-w64-mingw32\lib/libmsvcrt.a(dcfxs00991.o)
 .idata$7       0x000000014002d260        0x4 D:\CODEX\Dev-Cpp\TDM-GCC3264\x86_64-w64-mingw32\lib/libmsvcrt.a(dcfxs01037.o)
 .idata$7       0x000000014002d264        0x4 D:\CODEX\Dev-Cpp\TDM-GCC3264\x86_64-w64-mingw32\lib/libmsvcrt.a(dcfxs01054.o)
 .idata$7       0x000000014002d268        0x4 D:\CODEX\Dev-Cpp\TDM-GCC3264\x86_64-w64-mingw32\lib/libmsvcrt.a(dcfxs01068.o)
 .idata$7       0x000000014002d26c        0x4 D:\CODEX\Dev-Cpp\TDM-GCC3264\x86_64-w64-mingw32\lib/libmsvcrt.a(dcfxs01090.o)
 .idata$7       0x000000014002d270        0x4 D:\CODEX\Dev-Cpp\TDM-GCC3264\x86_64-w64-mingw32\lib/libmsvcrt.a(dcfxs01092.o)
 .idata$7       0x000000014002d274        0x4 D:\CODEX\Dev-Cpp\TDM-GCC3264\x86_64-w64-mingw32\lib/libmsvcrt.a(dcfxs01093.o)
 .idata$7       0x000000014002d278        0x4 D:\CODEX\Dev-Cpp\TDM-GCC3264\x86_64-w64-mingw32\lib/libmsvcrt.a(dcfxs01094.o)
 .idata$7       0x000000014002d27c        0x4 D:\CODEX\Dev-Cpp\TDM-GCC3264\x86_64-w64-mingw32\lib/libmsvcrt.a(dcfxs01097.o)
 .idata$7       0x000000014002d280        0x4 D:\CODEX\Dev-Cpp\TDM-GCC3264\x86_64-w64-mingw32\lib/libmsvcrt.a(dcfxs01106.o)
 .idata$7       0x000000014002d284        0x4 D:\CODEX\Dev-Cpp\TDM-GCC3264\x86_64-w64-mingw32\lib/libmsvcrt.a(dcfxs01109.o)
 .idata$7       0x000000014002d288        0x4 D:\CODEX\Dev-Cpp\TDM-GCC3264\x86_64-w64-mingw32\lib/libmsvcrt.a(dcfxs01149.o)
 .idata$7       0x000000014002d28c        0x4 D:\CODEX\Dev-Cpp\TDM-GCC3264\x86_64-w64-mingw32\lib/libmsvcrt.a(dcfxs01155.o)
 .idata$7       0x000000014002d290        0x4 D:\CODEX\Dev-Cpp\TDM-GCC3264\x86_64-w64-mingw32\lib/libmsvcrt.a(dcfxs01156.o)
 .idata$7       0x000000014002d294        0x4 D:\CODEX\Dev-Cpp\TDM-GCC3264\x86_64-w64-mingw32\lib/libmsvcrt.a(dcfxs01163.o)
 .idata$7       0x000000014002d298        0x4 D:\CODEX\Dev-Cpp\TDM-GCC3264\x86_64-w64-mingw32\lib/libmsvcrt.a(dcfxs01164.o)
 .idata$7       0x000000014002d29c        0x4 D:\CODEX\Dev-Cpp\TDM-GCC3264\x86_64-w64-mingw32\lib/libmsvcrt.a(dcfxs01165.o)
 .idata$7       0x000000014002d2a0        0x4 D:\CODEX\Dev-Cpp\TDM-GCC3264\x86_64-w64-mingw32\lib/libmsvcrt.a(dcfxs01166.o)
 .idata$7       0x000000014002d2a4        0x4 D:\CODEX\Dev-Cpp\TDM-GCC3264\x86_64-w64-mingw32\lib/libmsvcrt.a(dcfxs01174.o)
 .idata$7       0x000000014002d2a8        0x4 D:\CODEX\Dev-Cpp\TDM-GCC3264\x86_64-w64-mingw32\lib/libmsvcrt.a(dcfxs01187.o)
 .idata$7       0x000000014002d2ac        0x4 D:\CODEX\Dev-Cpp\TDM-GCC3264\x86_64-w64-mingw32\lib/libmsvcrt.a(dcfxs01196.o)
 .idata$7       0x000000014002d2b0        0x4 D:\CODEX\Dev-Cpp\TDM-GCC3264\x86_64-w64-mingw32\lib/libmsvcrt.a(dcfxs01212.o)
 .idata$7       0x000000014002d2b4        0x4 D:\CODEX\Dev-Cpp\TDM-GCC3264\x86_64-w64-mingw32\lib/libmsvcrt.a(dcfxs01217.o)
 .idata$7       0x000000014002d2b8        0x4 D:\CODEX\Dev-Cpp\TDM-GCC3264\x86_64-w64-mingw32\lib/libmsvcrt.a(dcfxs01219.o)
 .idata$7       0x000000014002d2bc        0x4 D:\CODEX\Dev-Cpp\TDM-GCC3264\x86_64-w64-mingw32\lib/libmsvcrt.a(dcfxs01222.o)
 .idata$7       0x000000014002d2c0        0x4 D:\CODEX\Dev-Cpp\TDM-GCC3264\x86_64-w64-mingw32\lib/libmsvcrt.a(dcfxs01258.o)
 .idata$7       0x000000014002d2c4        0x4 D:\CODEX\Dev-Cpp\TDM-GCC3264\x86_64-w64-mingw32\lib/libmsvcrt.a(dcfxs01283.o)
 .idata$7       0x000000014002d2c8        0xc D:\CODEX\Dev-Cpp\TDM-GCC3264\x86_64-w64-mingw32\lib/libmsvcrt.a(dcfxt.o)
                0x000000014002d2c8                __lib64_libmsvcrt_os_a_iname
 .idata$7       0x000000014002d2d4        0x4 D:\CODEX\Dev-Cpp\TDM-GCC3264\x86_64-w64-mingw32\lib/libuser32.a(dcjzs00619.o)
 .idata$7       0x000000014002d2d8        0xc D:\CODEX\Dev-Cpp\TDM-GCC3264\x86_64-w64-mingw32\lib/libuser32.a(dcjzt.o)
                0x000000014002d2d8                __lib64_libuser32_a_iname

.CRT            0x000000014002e000      0x200
                0x000000014002e000                ___crt_xc_start__ = .
 *(SORT_BY_NAME(.CRT$XC*))
 .CRT$XCA       0x000000014002e000        0x8 D:\CODEX\Dev-Cpp\TDM-GCC3264\x86_64-w64-mingw32\lib/libmingw32.a(lib64_libmingw32_a-cinitexe.o)
                0x000000014002e000                __xc_a
 .CRT$XCAA      0x000000014002e008        0x8 D:/CODEX/Dev-Cpp/TDM-GCC3264/bin/../lib/gcc/x86_64-w64-mingw32/10.3.0/../../../../x86_64-w64-mingw32/lib/../lib/crt2.o
                0x000000014002e008                mingw_pcppinit
 .CRT$XCZ       0x000000014002e010        0x8 D:\CODEX\Dev-Cpp\TDM-GCC3264\x86_64-w64-mingw32\lib/libmingw32.a(lib64_libmingw32_a-cinitexe.o)
                0x000000014002e010                __xc_z
                0x000000014002e018                ___crt_xc_end__ = .
                0x000000014002e018                ___crt_xi_start__ = .
 *(SORT_BY_NAME(.CRT$XI*))
 .CRT$XIA       0x000000014002e018        0x8 D:\CODEX\Dev-Cpp\TDM-GCC3264\x86_64-w64-mingw32\lib/libmingw32.a(lib64_libmingw32_a-cinitexe.o)
                0x000000014002e018                __xi_a
 .CRT$XIAA      0x000000014002e020        0x8 D:/CODEX/Dev-Cpp/TDM-GCC3264/bin/../lib/gcc/x86_64-w64-mingw32/10.3.0/../../../../x86_64-w64-mingw32/lib/../lib/crt2.o
                0x000000014002e020                mingw_pcinit
 .CRT$XIC       0x000000014002e028        0x8 D:\CODEX\Dev-Cpp\TDM-GCC3264\x86_64-w64-mingw32\lib/libmingw32.a(lib64_libmingw32_a-charmax.o)
                0x000000014002e028                __mingw_pinit
 .CRT$XIZ       0x000000014002e030        0x8 D:\CODEX\Dev-Cpp\TDM-GCC3264\x86_64-w64-mingw32\lib/libmingw32.a(lib64_libmingw32_a-cinitexe.o)
                0x000000014002e030                __xi_z
                0x000000014002e038                ___crt_xi_end__ = .
                0x000000014002e038                ___crt_xl_start__ = .
 *(SORT_BY_NAME(.CRT$XL*))
 .CRT$XLA       0x000000014002e038        0x8 D:\CODEX\Dev-Cpp\TDM-GCC3264\x86_64-w64-mingw32\lib/libmingw32.a(lib64_libmingw32_a-tlssup.o)
                0x000000014002e038                __xl_a
 .CRT$XLC       0x000000014002e040        0x8 D:\CODEX\Dev-Cpp\TDM-GCC3264\x86_64-w64-mingw32\lib/libmingw32.a(lib64_libmingw32_a-tlssup.o)
                0x000000014002e040                __xl_c
 .CRT$XLD       0x000000014002e048        0x8 D:\CODEX\Dev-Cpp\TDM-GCC3264\x86_64-w64-mingw32\lib/libmingw32.a(lib64_libmingw32_a-tlssup.o)
                0x000000014002e048                __xl_d
 .CRT$XLF       0x000000014002e050        0x8 D:\CODEX\Dev-Cpp\TDM-GCC3264\x86_64-w64-mingw32\lib/libpthread.a(libwinpthread_la-thread.o)
                0x000000014002e050                __xl_f
 .CRT$XLZ       0x000000014002e058        0x8 D:\CODEX\Dev-Cpp\TDM-GCC3264\x86_64-w64-mingw32\lib/libmingw32.a(lib64_libmingw32_a-tlssup.o)
                0x000000014002e058                __xl_z
                0x000000014002e060                ___crt_xp_start__ = .
 *(SORT_BY_NAME(.CRT$XP*))
                0x000000014002e060                ___crt_xp_end__ = .
                0x000000014002e060                ___crt_xt_start__ = .
 *(SORT_BY_NAME(.CRT$XT*))
                0x000000014002e060                ___crt_xt_end__ = .
 .CRT$XDA       0x000000014002e060        0x8 D:\CODEX\Dev-Cpp\TDM-GCC3264\x86_64-w64-mingw32\lib/libmingw32.a(lib64_libmingw32_a-tlssup.o)
 .CRT$XDZ       0x000000014002e068        0x8 D:\CODEX\Dev-Cpp\TDM-GCC3264\x86_64-w64-mingw32\lib/libmingw32.a(lib64_libmingw32_a-tlssup.o)

.tls            0x000000014002f000      0x200
                0x000000014002f000                ___tls_start__ = .
 *(.tls$AAA)
 *(.tls)
 .tls           0x000000014002f000        0x8 D:\CODEX\Dev-Cpp\TDM-GCC3264\x86_64-w64-mingw32\lib/libmingw32.a(lib64_libmingw32_a-tlssup.o)
                0x000000014002f000                _tls_start
 *(.tls$)
 *(SORT_BY_NAME(.tls$*))
 .tls$ZZZ       0x000000014002f008        0x8 D:\CODEX\Dev-Cpp\TDM-GCC3264\x86_64-w64-mingw32\lib/libmingw32.a(lib64_libmingw32_a-tlssup.o)
                0x000000014002f008                _tls_end
 *(.tls$ZZZ)
                0x000000014002f010                ___tls_end__ = .

.endjunk        0x0000000140030000        0x0
                [!provide]                        PROVIDE (end = .)
                [!provide]                        PROVIDE (_end = .)
                0x0000000140030000                __end__ = .

.rsrc           0x0000000140030000      0x600
 *(.rsrc)
 .rsrc          0x0000000140030000      0x4e8 D:/CODEX/Dev-Cpp/TDM-GCC3264/bin/../lib/gcc/x86_64-w64-mingw32/10.3.0/../../../../x86_64-w64-mingw32/lib/../lib/default-manifest.o
 *(.rsrc$*)

.reloc          0x0000000140031000      0x400
 *(.reloc)
 .reloc         0x0000000140031000      0x2c8 dll stuff

.stab
 *(.stab)

.stabstr
 *(.stabstr)

.debug_aranges
 *(.debug_aranges)

.zdebug_aranges
 *(.zdebug_aranges)

.debug_pubnames
 *(.debug_pubnames)

.zdebug_pubnames
 *(.zdebug_pubnames)

.debug_pubtypes
 *(.debug_pubtypes)

.zdebug_pubtypes
 *(.zdebug_pubtypes)

.debug_info
 *(.debug_info .gnu.linkonce.wi.*)

.zdebug_info
 *(.zdebug_info .zdebug.gnu.linkonce.wi.*)

.debug_abbrev
 *(.debug_abbrev)

.zdebug_abbrev
 *(.zdebug_abbrev)

.debug_line
 *(.debug_line)

.zdebug_line
 *(.zdebug_line)

.debug_frame
 *(.debug_frame)

.zdebug_frame
 *(.zdebug_frame)

.debug_str
 *(.debug_str)

.zdebug_str
 *(.zdebug_str)

.debug_loc
 *(.debug_loc)

.zdebug_loc
 *(.zdebug_loc)

.debug_macinfo
 *(.debug_macinfo)

.zdebug_macinfo
 *(.zdebug_macinfo)

.debug_weaknames
 *(.debug_weaknames)

.zdebug_weaknames
 *(.zdebug_weaknames)

.debug_funcnames
 *(.debug_funcnames)

.zdebug_funcnames
 *(.zdebug_funcnames)

.debug_typenames
 *(.debug_typenames)

.zdebug_typenames
 *(.zdebug_typenames)

.debug_varnames
 *(.debug_varnames)

.zdebug_varnames
 *(.zdebug_varnames)

.debug_macro
 *(.debug_macro)

.zdebug_macro
 *(.zdebug_macro)

.debug_ranges
 *(.debug_ranges)

.zdebug_ranges
 *(.zdebug_ranges)

.debug_types
 *(.debug_types .gnu.linkonce.wt.*)

.zdebug_types
 *(.zdebug_types .zdebug.gnu.linkonce.wt.*)

.debug_gdb_scripts
 *(.debug_gdb_scripts)

.zdebug_gdb_scripts
 *(.zdebug_gdb_scripts)
OUTPUT(X:\Projects\math\core v3\main.exe pei-x86-64)
LOAD dll stuff

Cross Reference Table

Symbol                                            File
.refptr._CRT_MT                                   D:\CODEX\Dev-Cpp\TDM-GCC3264\x86_64-w64-mingw32\lib/libmingw32.a(lib64_libmingw32_a-tlssup.o)
.refptr._MINGW_INSTALL_DEBUG_MATHERR              D:/CODEX/Dev-Cpp/TDM-GCC3264/bin/../lib/gcc/x86_64-w64-mingw32/10.3.0/../../../../x86_64-w64-mingw32/lib/../lib/crt2.o
.refptr._ZN9__gnu_cxx27__verbose_terminate_handlerEv D:/CODEX/Dev-Cpp/TDM-GCC3264/bin/../lib/gcc/x86_64-w64-mingw32/10.3.0\libstdc++.a(eh_terminate.o)
.refptr._ZNSt13bad_exceptionD1Ev                  D:/CODEX/Dev-Cpp/TDM-GCC3264/bin/../lib/gcc/x86_64-w64-mingw32/10.3.0\libstdc++.a(eh_personality.o)
.refptr._ZNSt9bad_allocD1Ev                       D:/CODEX/Dev-Cpp/TDM-GCC3264/bin/../lib/gcc/x86_64-w64-mingw32/10.3.0\libstdc++.a(new_op.o)
.refptr._ZTVSt13bad_exception                     D:/CODEX/Dev-Cpp/TDM-GCC3264/bin/../lib/gcc/x86_64-w64-mingw32/10.3.0\libstdc++.a(eh_personality.o)
.refptr._ZTVSt9bad_alloc                          D:/CODEX/Dev-Cpp/TDM-GCC3264/bin/../lib/gcc/x86_64-w64-mingw32/10.3.0\libstdc++.a(new_op.o)
.refptr.__CTOR_LIST__                             D:\CODEX\Dev-Cpp\TDM-GCC3264\x86_64-w64-mingw32\lib/libmingw32.a(lib64_libmingw32_a-gccmain.o)
.refptr.__RUNTIME_PSEUDO_RELOC_LIST_END__         D:\CODEX\Dev-Cpp\TDM-GCC3264\x86_64-w64-mingw32\lib/libmingw32.a(lib64_libmingw32_a-pseudo-reloc.o)
.refptr.__RUNTIME_PSEUDO_RELOC_LIST__             D:\CODEX\Dev-Cpp\TDM-GCC3264\x86_64-w64-mingw32\lib/libmingw32.a(lib64_libmingw32_a-pseudo-reloc.o)
.refptr.__dyn_tls_init_callback                   D:/CODEX/Dev-Cpp/TDM-GCC3264/bin/../lib/gcc/x86_64-w64-mingw32/10.3.0/../../../../x86_64-w64-mingw32/lib/../lib/crt2.o
.refptr.__eh_shmem3_gcc_tdm_local_shmem_region    D:/CODEX/Dev-Cpp/TDM-GCC3264/bin/../lib/gcc/x86_64-w64-mingw32/10.3.0\libstdc++.a(eh_terminate.o)
                                                  D:/CODEX/Dev-Cpp/TDM-GCC3264/bin/../lib/gcc/x86_64-w64-mingw32/10.3.0\libstdc++.a(eh_term_handler.o)
                                                  D:/CODEX/Dev-Cpp/TDM-GCC3264/bin/../lib/gcc/x86_64-w64-mingw32/10.3.0\libstdc++.a(eh_globals.o)
                                                  D:/CODEX/Dev-Cpp/TDM-GCC3264/bin/../lib/gcc/x86_64-w64-mingw32/10.3.0\libstdc++.a(eh_unex_handler.o)
.refptr.__image_base__                            D:/CODEX/Dev-Cpp/TDM-GCC3264/bin/../lib/gcc/x86_64-w64-mingw32/10.3.0/../../../../x86_64-w64-mingw32/lib/../lib/crt2.o
                                                  D:\CODEX\Dev-Cpp\TDM-GCC3264\x86_64-w64-mingw32\lib/libmingw32.a(lib64_libmingw32_a-pesect.o)
                                                  D:\CODEX\Dev-Cpp\TDM-GCC3264\x86_64-w64-mingw32\lib/libmingw32.a(lib64_libmingw32_a-pseudo-reloc.o)
.refptr.__imp___initenv                           D:/CODEX/Dev-Cpp/TDM-GCC3264/bin/../lib/gcc/x86_64-w64-mingw32/10.3.0/../../../../x86_64-w64-mingw32/lib/../lib/crt2.o
.refptr.__imp__acmdln                             D:\CODEX\Dev-Cpp\TDM-GCC3264\x86_64-w64-mingw32\lib/libmsvcrt.a(lib64_libmsvcrt_os_a-__p__acmdln.o)
.refptr.__imp__commode                            D:\CODEX\Dev-Cpp\TDM-GCC3264\x86_64-w64-mingw32\lib/libmsvcrt.a(lib64_libmsvcrt_os_a-__p__commode.o)
.refptr.__imp__fmode                              D:\CODEX\Dev-Cpp\TDM-GCC3264\x86_64-w64-mingw32\lib/libmsvcrt.a(lib64_libmsvcrt_os_a-__p__fmode.o)
.refptr.__mingw_oldexcpt_handler                  D:/CODEX/Dev-Cpp/TDM-GCC3264/bin/../lib/gcc/x86_64-w64-mingw32/10.3.0/../../../../x86_64-w64-mingw32/lib/../lib/crt2.o
.refptr.__native_startup_lock                     D:/CODEX/Dev-Cpp/TDM-GCC3264/bin/../lib/gcc/x86_64-w64-mingw32/10.3.0/../../../../x86_64-w64-mingw32/lib/../lib/crt2.o
.refptr.__native_startup_state                    D:/CODEX/Dev-Cpp/TDM-GCC3264/bin/../lib/gcc/x86_64-w64-mingw32/10.3.0/../../../../x86_64-w64-mingw32/lib/../lib/crt2.o
.refptr.__shmem3_winpthreads_tdm_local_shmem_region D:\CODEX\Dev-Cpp\TDM-GCC3264\x86_64-w64-mingw32\lib/libpthread.a(libwinpthread_la-thread.o)
                                                  D:\CODEX\Dev-Cpp\TDM-GCC3264\x86_64-w64-mingw32\lib/libpthread.a(libwinpthread_la-cond.o)
                                                  D:\CODEX\Dev-Cpp\TDM-GCC3264\x86_64-w64-mingw32\lib/libpthread.a(libwinpthread_la-rwlock.o)
.refptr.__tens_D2A                                D:\CODEX\Dev-Cpp\TDM-GCC3264\x86_64-w64-mingw32\lib/libmingwex.a(lib64_libmingwex_a-gdtoa.o)
.refptr.__xc_a                                    D:/CODEX/Dev-Cpp/TDM-GCC3264/bin/../lib/gcc/x86_64-w64-mingw32/10.3.0/../../../../x86_64-w64-mingw32/lib/../lib/crt2.o
.refptr.__xc_z                                    D:/CODEX/Dev-Cpp/TDM-GCC3264/bin/../lib/gcc/x86_64-w64-mingw32/10.3.0/../../../../x86_64-w64-mingw32/lib/../lib/crt2.o
.refptr.__xi_a                                    D:/CODEX/Dev-Cpp/TDM-GCC3264/bin/../lib/gcc/x86_64-w64-mingw32/10.3.0/../../../../x86_64-w64-mingw32/lib/../lib/crt2.o
.refptr.__xi_z                                    D:/CODEX/Dev-Cpp/TDM-GCC3264/bin/../lib/gcc/x86_64-w64-mingw32/10.3.0/../../../../x86_64-w64-mingw32/lib/../lib/crt2.o
.refptr._commode                                  D:/CODEX/Dev-Cpp/TDM-GCC3264/bin/../lib/gcc/x86_64-w64-mingw32/10.3.0/../../../../x86_64-w64-mingw32/lib/../lib/crt2.o
.refptr._dowildcard                               D:/CODEX/Dev-Cpp/TDM-GCC3264/bin/../lib/gcc/x86_64-w64-mingw32/10.3.0/../../../../x86_64-w64-mingw32/lib/../lib/crt2.o
.refptr._fmode                                    D:/CODEX/Dev-Cpp/TDM-GCC3264/bin/../lib/gcc/x86_64-w64-mingw32/10.3.0/../../../../x86_64-w64-mingw32/lib/../lib/crt2.o
.refptr._gnu_exception_handler                    D:/CODEX/Dev-Cpp/TDM-GCC3264/bin/../lib/gcc/x86_64-w64-mingw32/10.3.0/../../../../x86_64-w64-mingw32/lib/../lib/crt2.o
.refptr._matherr                                  D:/CODEX/Dev-Cpp/TDM-GCC3264/bin/../lib/gcc/x86_64-w64-mingw32/10.3.0/../../../../x86_64-w64-mingw32/lib/../lib/crt2.o
.refptr._newmode                                  D:/CODEX/Dev-Cpp/TDM-GCC3264/bin/../lib/gcc/x86_64-w64-mingw32/10.3.0/../../../../x86_64-w64-mingw32/lib/../lib/crt2.o
.refptr.mingw_app_type                            D:/CODEX/Dev-Cpp/TDM-GCC3264/bin/../lib/gcc/x86_64-w64-mingw32/10.3.0/../../../../x86_64-w64-mingw32/lib/../lib/crt2.o
.refptr.mingw_initcharmax                         D:/CODEX/Dev-Cpp/TDM-GCC3264/bin/../lib/gcc/x86_64-w64-mingw32/10.3.0/../../../../x86_64-w64-mingw32/lib/../lib/crt2.o
.refptr.mingw_initltsdrot_force                   D:/CODEX/Dev-Cpp/TDM-GCC3264/bin/../lib/gcc/x86_64-w64-mingw32/10.3.0/../../../../x86_64-w64-mingw32/lib/../lib/crt2.o
.refptr.mingw_initltsdyn_force                    D:/CODEX/Dev-Cpp/TDM-GCC3264/bin/../lib/gcc/x86_64-w64-mingw32/10.3.0/../../../../x86_64-w64-mingw32/lib/../lib/crt2.o
.refptr.mingw_initltssuo_force                    D:/CODEX/Dev-Cpp/TDM-GCC3264/bin/../lib/gcc/x86_64-w64-mingw32/10.3.0/../../../../x86_64-w64-mingw32/lib/../lib/crt2.o
AddAtomA                                          D:\CODEX\Dev-Cpp\TDM-GCC3264\x86_64-w64-mingw32\lib/libkernel32.a(dwdrs00004.o)
AddVectoredExceptionHandler                       D:\CODEX\Dev-Cpp\TDM-GCC3264\x86_64-w64-mingw32\lib/libkernel32.a(dwdrs00019.o)
CloseHandle                                       D:\CODEX\Dev-Cpp\TDM-GCC3264\x86_64-w64-mingw32\lib/libkernel32.a(dwdrs00140.o)
CreateEventA                                      D:\CODEX\Dev-Cpp\TDM-GCC3264\x86_64-w64-mingw32\lib/libkernel32.a(dwdrs00196.o)
CreateMutexA                                      D:\CODEX\Dev-Cpp\TDM-GCC3264\x86_64-w64-mingw32\lib/libkernel32.a(dwdrs00223.o)
CreateProcessW                                    D:\CODEX\Dev-Cpp\TDM-GCC3264\x86_64-w64-mingw32\lib/libkernel32.a(dwdrs00238.o)
                                                  C:\Users\ARABBI~1\AppData\Local\Temp\ccJboNLv.o (symbol from plugin)
CreateSemaphoreA                                  D:\CODEX\Dev-Cpp\TDM-GCC3264\x86_64-w64-mingw32\lib/libkernel32.a(dwdrs00242.o)
DeleteAtom                                        D:\CODEX\Dev-Cpp\TDM-GCC3264\x86_64-w64-mingw32\lib/libkernel32.a(dwdrs00280.o)
DeleteCriticalSection                             D:\CODEX\Dev-Cpp\TDM-GCC3264\x86_64-w64-mingw32\lib/libkernel32.a(dwdrs00282.o)
DuplicateHandle                                   D:\CODEX\Dev-Cpp\TDM-GCC3264\x86_64-w64-mingw32\lib/libkernel32.a(dwdrs00312.o)
EnterCriticalSection                              D:\CODEX\Dev-Cpp\TDM-GCC3264\x86_64-w64-mingw32\lib/libkernel32.a(dwdrs00318.o)
FindAtomA                                         D:\CODEX\Dev-Cpp\TDM-GCC3264\x86_64-w64-mingw32\lib/libkernel32.a(dwdrs00386.o)
FormatMessageA                                    D:\CODEX\Dev-Cpp\TDM-GCC3264\x86_64-w64-mingw32\lib/libkernel32.a(dwdrs00437.o)
GetAtomNameA                                      D:\CODEX\Dev-Cpp\TDM-GCC3264\x86_64-w64-mingw32\lib/libkernel32.a(dwdrs00459.o)
GetCurrentProcess                                 D:\CODEX\Dev-Cpp\TDM-GCC3264\x86_64-w64-mingw32\lib/libkernel32.a(dwdrs00551.o)
GetCurrentProcessId                               D:\CODEX\Dev-Cpp\TDM-GCC3264\x86_64-w64-mingw32\lib/libkernel32.a(dwdrs00552.o)
GetCurrentThread                                  D:\CODEX\Dev-Cpp\TDM-GCC3264\x86_64-w64-mingw32\lib/libkernel32.a(dwdrs00555.o)
GetCurrentThreadId                                D:\CODEX\Dev-Cpp\TDM-GCC3264\x86_64-w64-mingw32\lib/libkernel32.a(dwdrs00556.o)
GetHandleInformation                              D:\CODEX\Dev-Cpp\TDM-GCC3264\x86_64-w64-mingw32\lib/libkernel32.a(dwdrs00626.o)
GetLastError                                      D:\CODEX\Dev-Cpp\TDM-GCC3264\x86_64-w64-mingw32\lib/libkernel32.a(dwdrs00629.o)
GetModuleFileNameW                                D:\CODEX\Dev-Cpp\TDM-GCC3264\x86_64-w64-mingw32\lib/libkernel32.a(dwdrs00649.o)
                                                  C:\Users\ARABBI~1\AppData\Local\Temp\ccJboNLv.o (symbol from plugin)
GetProcessAffinityMask                            D:\CODEX\Dev-Cpp\TDM-GCC3264\x86_64-w64-mingw32\lib/libkernel32.a(dwdrs00710.o)
GetStartupInfoA                                   D:\CODEX\Dev-Cpp\TDM-GCC3264\x86_64-w64-mingw32\lib/libkernel32.a(dwdrs00742.o)
GetSystemTimeAsFileTime                           D:\CODEX\Dev-Cpp\TDM-GCC3264\x86_64-w64-mingw32\lib/libkernel32.a(dwdrs00768.o)
GetThreadContext                                  D:\CODEX\Dev-Cpp\TDM-GCC3264\x86_64-w64-mingw32\lib/libkernel32.a(dwdrs00782.o)
GetThreadPriority                                 D:\CODEX\Dev-Cpp\TDM-GCC3264\x86_64-w64-mingw32\lib/libkernel32.a(dwdrs00792.o)
GetTickCount                                      D:\CODEX\Dev-Cpp\TDM-GCC3264\x86_64-w64-mingw32\lib/libkernel32.a(dwdrs00798.o)
InitializeCriticalSection                         D:\CODEX\Dev-Cpp\TDM-GCC3264\x86_64-w64-mingw32\lib/libkernel32.a(dwdrs00891.o)
IsDBCSLeadByteEx                                  D:\CODEX\Dev-Cpp\TDM-GCC3264\x86_64-w64-mingw32\lib/libkernel32.a(dwdrs00918.o)
IsDebuggerPresent                                 D:\CODEX\Dev-Cpp\TDM-GCC3264\x86_64-w64-mingw32\lib/libkernel32.a(dwdrs00919.o)
LeaveCriticalSection                              D:\CODEX\Dev-Cpp\TDM-GCC3264\x86_64-w64-mingw32\lib/libkernel32.a(dwdrs00983.o)
LocalFree                                         D:\CODEX\Dev-Cpp\TDM-GCC3264\x86_64-w64-mingw32\lib/libkernel32.a(dwdrs01001.o)
MATHcontainer::append(void*, unsigned long long)  C:\Users\ARABBI~1\AppData\Local\Temp\ccJboNLv.o (symbol from plugin)
MATHcontainer::expandto(unsigned long long)       C:\Users\ARABBI~1\AppData\Local\Temp\ccJboNLv.o (symbol from plugin)
MATHcontainer::minimize()                         C:\Users\ARABBI~1\AppData\Local\Temp\ccJboNLv.o (symbol from plugin)
MATHcontainer::resize(unsigned long long)         C:\Users\ARABBI~1\AppData\Local\Temp\ccJboNLv.o (symbol from plugin)
MATHcontainer::~MATHcontainer()                   C:\Users\ARABBI~1\AppData\Local\Temp\ccJboNLv.o (symbol from plugin)
MATHenv::addvar(wchar_t const*, MATHraw)          C:\Users\ARABBI~1\AppData\Local\Temp\ccJboNLv.o (symbol from plugin)
MATHenv::getval(wchar_t const*)                   C:\Users\ARABBI~1\AppData\Local\Temp\ccJboNLv.o (symbol from plugin)
MATHenv::setval(wchar_t const*, MATHraw)          C:\Users\ARABBI~1\AppData\Local\Temp\ccJboNLv.o (symbol from plugin)
MATHenv::~MATHenv()                               C:\Users\ARABBI~1\AppData\Local\Temp\ccJboNLv.o (symbol from plugin)
MATHnode::call(MATHcontainer*, MATHenv*, MATHcontainer*) C:\Users\ARABBI~1\AppData\Local\Temp\ccJboNLv.o (symbol from plugin)
MessageBoxW                                       D:\CODEX\Dev-Cpp\TDM-GCC3264\x86_64-w64-mingw32\lib/libuser32.a(dcjzs00619.o)
                                                  C:\Users\ARABBI~1\AppData\Local\Temp\ccJboNLv.o (symbol from plugin)
MultiByteToWideChar                               D:\CODEX\Dev-Cpp\TDM-GCC3264\x86_64-w64-mingw32\lib/libkernel32.a(dwdrs01035.o)
OpenProcess                                       D:\CODEX\Dev-Cpp\TDM-GCC3264\x86_64-w64-mingw32\lib/libkernel32.a(dwdrs01068.o)
OutputDebugStringA                                D:\CODEX\Dev-Cpp\TDM-GCC3264\x86_64-w64-mingw32\lib/libkernel32.a(dwdrs01077.o)
QueryPerformanceCounter                           D:\CODEX\Dev-Cpp\TDM-GCC3264\x86_64-w64-mingw32\lib/libkernel32.a(dwdrs01130.o)
QueryPerformanceFrequency                         D:\CODEX\Dev-Cpp\TDM-GCC3264\x86_64-w64-mingw32\lib/libkernel32.a(dwdrs01131.o)
RaiseException                                    D:\CODEX\Dev-Cpp\TDM-GCC3264\x86_64-w64-mingw32\lib/libkernel32.a(dwdrs01152.o)
ReleaseMutex                                      D:\CODEX\Dev-Cpp\TDM-GCC3264\x86_64-w64-mingw32\lib/libkernel32.a(dwdrs01191.o)
ReleaseSemaphore                                  D:\CODEX\Dev-Cpp\TDM-GCC3264\x86_64-w64-mingw32\lib/libkernel32.a(dwdrs01195.o)
RemoveVectoredExceptionHandler                    D:\CODEX\Dev-Cpp\TDM-GCC3264\x86_64-w64-mingw32\lib/libkernel32.a(dwdrs01206.o)
ResetEvent                                        D:\CODEX\Dev-Cpp\TDM-GCC3264\x86_64-w64-mingw32\lib/libkernel32.a(dwdrs01213.o)
ResumeThread                                      D:\CODEX\Dev-Cpp\TDM-GCC3264\x86_64-w64-mingw32\lib/libkernel32.a(dwdrs01220.o)
SetEvent                                          D:\CODEX\Dev-Cpp\TDM-GCC3264\x86_64-w64-mingw32\lib/libkernel32.a(dwdrs01305.o)
SetLastError                                      D:\CODEX\Dev-Cpp\TDM-GCC3264\x86_64-w64-mingw32\lib/libkernel32.a(dwdrs01333.o)
SetProcessAffinityMask                            D:\CODEX\Dev-Cpp\TDM-GCC3264\x86_64-w64-mingw32\lib/libkernel32.a(dwdrs01344.o)
SetThreadContext                                  D:\CODEX\Dev-Cpp\TDM-GCC3264\x86_64-w64-mingw32\lib/libkernel32.a(dwdrs01367.o)
SetThreadPriority                                 D:\CODEX\Dev-Cpp\TDM-GCC3264\x86_64-w64-mingw32\lib/libkernel32.a(dwdrs01377.o)
SetUnhandledExceptionFilter                       D:\CODEX\Dev-Cpp\TDM-GCC3264\x86_64-w64-mingw32\lib/libkernel32.a(dwdrs01393.o)
Sleep                                             D:\CODEX\Dev-Cpp\TDM-GCC3264\x86_64-w64-mingw32\lib/libkernel32.a(dwdrs01409.o)
                                                  C:\Users\ARABBI~1\AppData\Local\Temp\ccJboNLv.o (symbol from plugin)
SuspendThread                                     D:\CODEX\Dev-Cpp\TDM-GCC3264\x86_64-w64-mingw32\lib/libkernel32.a(dwdrs01417.o)
TlsAlloc                                          D:\CODEX\Dev-Cpp\TDM-GCC3264\x86_64-w64-mingw32\lib/libkernel32.a(dwdrs01442.o)
TlsGetValue                                       D:\CODEX\Dev-Cpp\TDM-GCC3264\x86_64-w64-mingw32\lib/libkernel32.a(dwdrs01444.o)
TlsSetValue                                       D:\CODEX\Dev-Cpp\TDM-GCC3264\x86_64-w64-mingw32\lib/libkernel32.a(dwdrs01445.o)
TryEnterCriticalSection                           D:\CODEX\Dev-Cpp\TDM-GCC3264\x86_64-w64-mingw32\lib/libkernel32.a(dwdrs01451.o)
VirtualProtect                                    D:\CODEX\Dev-Cpp\TDM-GCC3264\x86_64-w64-mingw32\lib/libkernel32.a(dwdrs01491.o)
VirtualQuery                                      D:\CODEX\Dev-Cpp\TDM-GCC3264\x86_64-w64-mingw32\lib/libkernel32.a(dwdrs01493.o)
WaitForMultipleObjects                            D:\CODEX\Dev-Cpp\TDM-GCC3264\x86_64-w64-mingw32\lib/libkernel32.a(dwdrs01500.o)
WaitForSingleObject                               D:\CODEX\Dev-Cpp\TDM-GCC3264\x86_64-w64-mingw32\lib/libkernel32.a(dwdrs01502.o)
WideCharToMultiByte                               D:\CODEX\Dev-Cpp\TDM-GCC3264\x86_64-w64-mingw32\lib/libkernel32.a(dwdrs01546.o)
WinMainCRTStartup                                 D:/CODEX/Dev-Cpp/TDM-GCC3264/bin/../lib/gcc/x86_64-w64-mingw32/10.3.0/../../../../x86_64-w64-mingw32/lib/../lib/crt2.o
_CRT_MT                                           D:\CODEX\Dev-Cpp\TDM-GCC3264\x86_64-w64-mingw32\lib/libmingw32.a(lib64_libmingw32_a-tlsmcrt.o)
                                                  D:\CODEX\Dev-Cpp\TDM-GCC3264\x86_64-w64-mingw32\lib/libmingw32.a(lib64_libmingw32_a-tlssup.o)
_FindPESection                                    D:\CODEX\Dev-Cpp\TDM-GCC3264\x86_64-w64-mingw32\lib/libmingw32.a(lib64_libmingw32_a-pesect.o)
_FindPESectionByName                              D:\CODEX\Dev-Cpp\TDM-GCC3264\x86_64-w64-mingw32\lib/libmingw32.a(lib64_libmingw32_a-pesect.o)
_FindPESectionExec                                D:\CODEX\Dev-Cpp\TDM-GCC3264\x86_64-w64-mingw32\lib/libmingw32.a(lib64_libmingw32_a-pesect.o)
_GCC_specific_handler                             D:/CODEX/Dev-Cpp/TDM-GCC3264/bin/../lib/gcc/x86_64-w64-mingw32/10.3.0/libgcc_s.a(d000001.o)
                                                  D:/CODEX/Dev-Cpp/TDM-GCC3264/bin/../lib/gcc/x86_64-w64-mingw32/10.3.0\libstdc++.a(eh_personality.o)
_GetPEImageBase                                   D:\CODEX\Dev-Cpp\TDM-GCC3264\x86_64-w64-mingw32\lib/libmingw32.a(lib64_libmingw32_a-pesect.o)
                                                  D:\CODEX\Dev-Cpp\TDM-GCC3264\x86_64-w64-mingw32\lib/libmingw32.a(lib64_libmingw32_a-pseudo-reloc.o)
_IsNonwritableInCurrentImage                      D:\CODEX\Dev-Cpp\TDM-GCC3264\x86_64-w64-mingw32\lib/libmingw32.a(lib64_libmingw32_a-pesect.o)
_MINGW_INSTALL_DEBUG_MATHERR                      D:\CODEX\Dev-Cpp\TDM-GCC3264\x86_64-w64-mingw32\lib/libmingwex.a(lib64_libmingwex_a-mingw_matherr.o)
                                                  D:/CODEX/Dev-Cpp/TDM-GCC3264/bin/../lib/gcc/x86_64-w64-mingw32/10.3.0/../../../../x86_64-w64-mingw32/lib/../lib/crt2.o
_Unwind_DeleteException                           D:/CODEX/Dev-Cpp/TDM-GCC3264/bin/../lib/gcc/x86_64-w64-mingw32/10.3.0/libgcc_s.a(d000003.o)
                                                  D:/CODEX/Dev-Cpp/TDM-GCC3264/bin/../lib/gcc/x86_64-w64-mingw32/10.3.0\libstdc++.a(eh_globals.o)
                                                  D:/CODEX/Dev-Cpp/TDM-GCC3264/bin/../lib/gcc/x86_64-w64-mingw32/10.3.0\libstdc++.a(eh_catch.o)
_Unwind_GetDataRelBase                            D:/CODEX/Dev-Cpp/TDM-GCC3264/bin/../lib/gcc/x86_64-w64-mingw32/10.3.0/libgcc_s.a(d000007.o)
                                                  D:/CODEX/Dev-Cpp/TDM-GCC3264/bin/../lib/gcc/x86_64-w64-mingw32/10.3.0\libstdc++.a(eh_personality.o)
_Unwind_GetIPInfo                                 D:/CODEX/Dev-Cpp/TDM-GCC3264/bin/../lib/gcc/x86_64-w64-mingw32/10.3.0/libgcc_s.a(d000010.o)
                                                  D:/CODEX/Dev-Cpp/TDM-GCC3264/bin/../lib/gcc/x86_64-w64-mingw32/10.3.0\libstdc++.a(eh_personality.o)
_Unwind_GetLanguageSpecificData                   D:/CODEX/Dev-Cpp/TDM-GCC3264/bin/../lib/gcc/x86_64-w64-mingw32/10.3.0/libgcc_s.a(d000011.o)
                                                  D:/CODEX/Dev-Cpp/TDM-GCC3264/bin/../lib/gcc/x86_64-w64-mingw32/10.3.0\libstdc++.a(eh_personality.o)
_Unwind_GetRegionStart                            D:/CODEX/Dev-Cpp/TDM-GCC3264/bin/../lib/gcc/x86_64-w64-mingw32/10.3.0/libgcc_s.a(d000012.o)
                                                  D:/CODEX/Dev-Cpp/TDM-GCC3264/bin/../lib/gcc/x86_64-w64-mingw32/10.3.0\libstdc++.a(eh_personality.o)
_Unwind_GetTextRelBase                            D:/CODEX/Dev-Cpp/TDM-GCC3264/bin/../lib/gcc/x86_64-w64-mingw32/10.3.0/libgcc_s.a(d000013.o)
                                                  D:/CODEX/Dev-Cpp/TDM-GCC3264/bin/../lib/gcc/x86_64-w64-mingw32/10.3.0\libstdc++.a(eh_personality.o)
_Unwind_RaiseException                            D:/CODEX/Dev-Cpp/TDM-GCC3264/bin/../lib/gcc/x86_64-w64-mingw32/10.3.0/libgcc_s.a(d000014.o)
                                                  D:/CODEX/Dev-Cpp/TDM-GCC3264/bin/../lib/gcc/x86_64-w64-mingw32/10.3.0\libstdc++.a(eh_throw.o)
_Unwind_Resume                                    D:/CODEX/Dev-Cpp/TDM-GCC3264/bin/../lib/gcc/x86_64-w64-mingw32/10.3.0/libgcc_s.a(d000015.o)
                                                  D:/CODEX/Dev-Cpp/TDM-GCC3264/bin/../lib/gcc/x86_64-w64-mingw32/10.3.0\libstdc++.a(vterminate.o)
                                                  D:/CODEX/Dev-Cpp/TDM-GCC3264/bin/../lib/gcc/x86_64-w64-mingw32/10.3.0\libstdc++.a(eh_terminate.o)
                                                  D:/CODEX/Dev-Cpp/TDM-GCC3264/bin/../lib/gcc/x86_64-w64-mingw32/10.3.0\libstdc++.a(eh_personality.o)
                                                  D:/CODEX/Dev-Cpp/TDM-GCC3264/bin/../lib/gcc/x86_64-w64-mingw32/10.3.0\libstdc++.a(eh_alloc.o)
_Unwind_Resume_or_Rethrow                         D:/CODEX/Dev-Cpp/TDM-GCC3264/bin/../lib/gcc/x86_64-w64-mingw32/10.3.0/libgcc_s.a(d000016.o)
                                                  D:/CODEX/Dev-Cpp/TDM-GCC3264/bin/../lib/gcc/x86_64-w64-mingw32/10.3.0\libstdc++.a(eh_throw.o)
_Unwind_SetGR                                     D:/CODEX/Dev-Cpp/TDM-GCC3264/bin/../lib/gcc/x86_64-w64-mingw32/10.3.0/libgcc_s.a(d000017.o)
                                                  D:/CODEX/Dev-Cpp/TDM-GCC3264/bin/../lib/gcc/x86_64-w64-mingw32/10.3.0\libstdc++.a(eh_personality.o)
_Unwind_SetIP                                     D:/CODEX/Dev-Cpp/TDM-GCC3264/bin/../lib/gcc/x86_64-w64-mingw32/10.3.0/libgcc_s.a(d000018.o)
                                                  D:/CODEX/Dev-Cpp/TDM-GCC3264/bin/../lib/gcc/x86_64-w64-mingw32/10.3.0\libstdc++.a(eh_personality.o)
_ValidateImageBase                                D:\CODEX\Dev-Cpp\TDM-GCC3264\x86_64-w64-mingw32\lib/libmingw32.a(lib64_libmingw32_a-pesect.o)
__Balloc_D2A                                      D:\CODEX\Dev-Cpp\TDM-GCC3264\x86_64-w64-mingw32\lib/libmingwex.a(lib64_libmingwex_a-misc.o)
                                                  D:\CODEX\Dev-Cpp\TDM-GCC3264\x86_64-w64-mingw32\lib/libmingwex.a(lib64_libmingwex_a-gdtoa.o)
                                                  D:\CODEX\Dev-Cpp\TDM-GCC3264\x86_64-w64-mingw32\lib/libmingwex.a(lib64_libmingwex_a-dmisc.o)
__Bfree_D2A                                       D:\CODEX\Dev-Cpp\TDM-GCC3264\x86_64-w64-mingw32\lib/libmingwex.a(lib64_libmingwex_a-misc.o)
                                                  D:\CODEX\Dev-Cpp\TDM-GCC3264\x86_64-w64-mingw32\lib/libmingwex.a(lib64_libmingwex_a-gdtoa.o)
                                                  D:\CODEX\Dev-Cpp\TDM-GCC3264\x86_64-w64-mingw32\lib/libmingwex.a(lib64_libmingwex_a-dmisc.o)
__CTOR_LIST__                                     D:/CODEX/Dev-Cpp/TDM-GCC3264/bin/../lib/gcc/x86_64-w64-mingw32/10.3.0/libgcc.a(_ctors.o)
                                                  D:\CODEX\Dev-Cpp\TDM-GCC3264\x86_64-w64-mingw32\lib/libmingw32.a(lib64_libmingw32_a-gccmain.o)
__C_specific_handler                              D:\CODEX\Dev-Cpp\TDM-GCC3264\x86_64-w64-mingw32\lib/libkernel32.a(dwdrs01583.o)
                                                  D:\CODEX\Dev-Cpp\TDM-GCC3264\x86_64-w64-mingw32\lib/libpthread.a(libwinpthread_la-thread.o)
                                                  D:/CODEX/Dev-Cpp/TDM-GCC3264/bin/../lib/gcc/x86_64-w64-mingw32/10.3.0/../../../../x86_64-w64-mingw32/lib/../lib/crt2.o
__DTOR_LIST__                                     D:/CODEX/Dev-Cpp/TDM-GCC3264/bin/../lib/gcc/x86_64-w64-mingw32/10.3.0/libgcc.a(_ctors.o)
                                                  D:\CODEX\Dev-Cpp\TDM-GCC3264\x86_64-w64-mingw32\lib/libmingw32.a(lib64_libmingw32_a-gccmain.o)
__RUNTIME_PSEUDO_RELOC_LIST_END__                 D:\CODEX\Dev-Cpp\TDM-GCC3264\x86_64-w64-mingw32\lib/libmingw32.a(lib64_libmingw32_a-pseudo-reloc-list.o)
                                                  D:\CODEX\Dev-Cpp\TDM-GCC3264\x86_64-w64-mingw32\lib/libmingw32.a(lib64_libmingw32_a-pseudo-reloc.o)
__RUNTIME_PSEUDO_RELOC_LIST__                     D:\CODEX\Dev-Cpp\TDM-GCC3264\x86_64-w64-mingw32\lib/libmingw32.a(lib64_libmingw32_a-pseudo-reloc-list.o)
                                                  D:\CODEX\Dev-Cpp\TDM-GCC3264\x86_64-w64-mingw32\lib/libmingw32.a(lib64_libmingw32_a-pseudo-reloc.o)
___chkstk_ms                                      D:/CODEX/Dev-Cpp/TDM-GCC3264/bin/../lib/gcc/x86_64-w64-mingw32/10.3.0/libgcc.a(_chkstk_ms.o)
                                                  C:\Users\ARABBI~1\AppData\Local\Temp\main.exe.6iMB3F.ltrans0.ltrans.o
                                                  D:\CODEX\Dev-Cpp\TDM-GCC3264\x86_64-w64-mingw32\lib/libmingwex.a(lib64_libmingwex_a-mingw_pformatw.o)
                                                  D:\CODEX\Dev-Cpp\TDM-GCC3264\x86_64-w64-mingw32\lib/libmingwex.a(lib64_libmingwex_a-mingw_pformat.o)
                                                  D:\CODEX\Dev-Cpp\TDM-GCC3264\x86_64-w64-mingw32\lib/libmingw32.a(lib64_libmingw32_a-pseudo-reloc.o)
                                                  D:/CODEX/Dev-Cpp/TDM-GCC3264/bin/../lib/gcc/x86_64-w64-mingw32/10.3.0\libstdc++.a(cp-demangle.o)
___lc_codepage_func                               D:\CODEX\Dev-Cpp\TDM-GCC3264\x86_64-w64-mingw32\lib/libmsvcrt.a(dcfxs00063.o)
                                                  D:\CODEX\Dev-Cpp\TDM-GCC3264\x86_64-w64-mingw32\lib/libmsvcrt.a(lib64_libmsvcrt_os_a-wcrtomb.o)
                                                  D:\CODEX\Dev-Cpp\TDM-GCC3264\x86_64-w64-mingw32\lib/libmsvcrt.a(lib64_libmsvcrt_os_a-mbrtowc.o)
___mb_cur_max_func                                D:\CODEX\Dev-Cpp\TDM-GCC3264\x86_64-w64-mingw32\lib/libmsvcrt.a(dcfxs00066.o)
                                                  D:\CODEX\Dev-Cpp\TDM-GCC3264\x86_64-w64-mingw32\lib/libmsvcrt.a(lib64_libmsvcrt_os_a-wcrtomb.o)
                                                  D:\CODEX\Dev-Cpp\TDM-GCC3264\x86_64-w64-mingw32\lib/libmsvcrt.a(lib64_libmsvcrt_os_a-mbrtowc.o)
___w64_mingwthr_add_key_dtor                      D:\CODEX\Dev-Cpp\TDM-GCC3264\x86_64-w64-mingw32\lib/libmingw32.a(lib64_libmingw32_a-tlsthrd.o)
___w64_mingwthr_remove_key_dtor                   D:\CODEX\Dev-Cpp\TDM-GCC3264\x86_64-w64-mingw32\lib/libmingw32.a(lib64_libmingw32_a-tlsthrd.o)
__acrt_iob_func                                   D:\CODEX\Dev-Cpp\TDM-GCC3264\x86_64-w64-mingw32\lib/libmsvcrt.a(lib64_libmsvcrt_os_a-acrt_iob_func.o)
                                                  D:\CODEX\Dev-Cpp\TDM-GCC3264\x86_64-w64-mingw32\lib/libmsvcrt.a(lib64_libmsvcrt_os_a-mingw_lock.o)
                                                  D:\CODEX\Dev-Cpp\TDM-GCC3264\x86_64-w64-mingw32\lib/libmingw32.a(lib64_libmingw32_a-pseudo-reloc.o)
                                                  D:\CODEX\Dev-Cpp\TDM-GCC3264\x86_64-w64-mingw32\lib/libmingw32.a(lib64_libmingw32_a-merr.o)
                                                  C:\Users\ARABBI~1\AppData\Local\Temp\ccJboNLv.o (symbol from plugin)
__b2d_D2A                                         D:\CODEX\Dev-Cpp\TDM-GCC3264\x86_64-w64-mingw32\lib/libmingwex.a(lib64_libmingwex_a-misc.o)
                                                  D:\CODEX\Dev-Cpp\TDM-GCC3264\x86_64-w64-mingw32\lib/libmingwex.a(lib64_libmingwex_a-gdtoa.o)
__bigtens_D2A                                     D:\CODEX\Dev-Cpp\TDM-GCC3264\x86_64-w64-mingw32\lib/libmingwex.a(lib64_libmingwex_a-misc.o)
__cmp_D2A                                         D:\CODEX\Dev-Cpp\TDM-GCC3264\x86_64-w64-mingw32\lib/libmingwex.a(lib64_libmingwex_a-misc.o)
                                                  D:\CODEX\Dev-Cpp\TDM-GCC3264\x86_64-w64-mingw32\lib/libmingwex.a(lib64_libmingwex_a-gdtoa.o)
                                                  D:\CODEX\Dev-Cpp\TDM-GCC3264\x86_64-w64-mingw32\lib/libmingwex.a(lib64_libmingwex_a-dmisc.o)
__cxa_allocate_dependent_exception                D:/CODEX/Dev-Cpp/TDM-GCC3264/bin/../lib/gcc/x86_64-w64-mingw32/10.3.0\libstdc++.a(eh_alloc.o)
__cxa_allocate_exception                          D:/CODEX/Dev-Cpp/TDM-GCC3264/bin/../lib/gcc/x86_64-w64-mingw32/10.3.0\libstdc++.a(eh_alloc.o)
                                                  D:/CODEX/Dev-Cpp/TDM-GCC3264/bin/../lib/gcc/x86_64-w64-mingw32/10.3.0\libstdc++.a(eh_personality.o)
                                                  D:/CODEX/Dev-Cpp/TDM-GCC3264/bin/../lib/gcc/x86_64-w64-mingw32/10.3.0\libstdc++.a(new_op.o)
__cxa_begin_catch                                 D:/CODEX/Dev-Cpp/TDM-GCC3264/bin/../lib/gcc/x86_64-w64-mingw32/10.3.0\libstdc++.a(eh_catch.o)
                                                  D:/CODEX/Dev-Cpp/TDM-GCC3264/bin/../lib/gcc/x86_64-w64-mingw32/10.3.0\libstdc++.a(eh_call.o)
                                                  D:/CODEX/Dev-Cpp/TDM-GCC3264/bin/../lib/gcc/x86_64-w64-mingw32/10.3.0\libstdc++.a(vterminate.o)
                                                  D:/CODEX/Dev-Cpp/TDM-GCC3264/bin/../lib/gcc/x86_64-w64-mingw32/10.3.0\libstdc++.a(eh_throw.o)
                                                  D:/CODEX/Dev-Cpp/TDM-GCC3264/bin/../lib/gcc/x86_64-w64-mingw32/10.3.0\libstdc++.a(eh_terminate.o)
                                                  D:/CODEX/Dev-Cpp/TDM-GCC3264/bin/../lib/gcc/x86_64-w64-mingw32/10.3.0\libstdc++.a(eh_personality.o)
__cxa_call_terminate                              D:/CODEX/Dev-Cpp/TDM-GCC3264/bin/../lib/gcc/x86_64-w64-mingw32/10.3.0\libstdc++.a(eh_call.o)
                                                  D:/CODEX/Dev-Cpp/TDM-GCC3264/bin/../lib/gcc/x86_64-w64-mingw32/10.3.0\libstdc++.a(eh_personality.o)
__cxa_call_unexpected                             D:/CODEX/Dev-Cpp/TDM-GCC3264/bin/../lib/gcc/x86_64-w64-mingw32/10.3.0\libstdc++.a(eh_personality.o)
                                                  D:/CODEX/Dev-Cpp/TDM-GCC3264/bin/../lib/gcc/x86_64-w64-mingw32/10.3.0\libstdc++.a(eh_terminate.o)
                                                  D:/CODEX/Dev-Cpp/TDM-GCC3264/bin/../lib/gcc/x86_64-w64-mingw32/10.3.0\libstdc++.a(eh_alloc.o)
__cxa_current_exception_type                      D:/CODEX/Dev-Cpp/TDM-GCC3264/bin/../lib/gcc/x86_64-w64-mingw32/10.3.0\libstdc++.a(eh_type.o)
                                                  D:/CODEX/Dev-Cpp/TDM-GCC3264/bin/../lib/gcc/x86_64-w64-mingw32/10.3.0\libstdc++.a(vterminate.o)
__cxa_deleted_virtual                             D:/CODEX/Dev-Cpp/TDM-GCC3264/bin/../lib/gcc/x86_64-w64-mingw32/10.3.0\libstdc++.a(pure.o)
__cxa_demangle                                    D:/CODEX/Dev-Cpp/TDM-GCC3264/bin/../lib/gcc/x86_64-w64-mingw32/10.3.0\libstdc++.a(cp-demangle.o)
                                                  D:/CODEX/Dev-Cpp/TDM-GCC3264/bin/../lib/gcc/x86_64-w64-mingw32/10.3.0\libstdc++.a(vterminate.o)
__cxa_end_catch                                   D:/CODEX/Dev-Cpp/TDM-GCC3264/bin/../lib/gcc/x86_64-w64-mingw32/10.3.0\libstdc++.a(eh_catch.o)
                                                  D:/CODEX/Dev-Cpp/TDM-GCC3264/bin/../lib/gcc/x86_64-w64-mingw32/10.3.0\libstdc++.a(vterminate.o)
                                                  D:/CODEX/Dev-Cpp/TDM-GCC3264/bin/../lib/gcc/x86_64-w64-mingw32/10.3.0\libstdc++.a(eh_terminate.o)
                                                  D:/CODEX/Dev-Cpp/TDM-GCC3264/bin/../lib/gcc/x86_64-w64-mingw32/10.3.0\libstdc++.a(eh_personality.o)
__cxa_free_dependent_exception                    D:/CODEX/Dev-Cpp/TDM-GCC3264/bin/../lib/gcc/x86_64-w64-mingw32/10.3.0\libstdc++.a(eh_alloc.o)
__cxa_free_exception                              D:/CODEX/Dev-Cpp/TDM-GCC3264/bin/../lib/gcc/x86_64-w64-mingw32/10.3.0\libstdc++.a(eh_alloc.o)
                                                  D:/CODEX/Dev-Cpp/TDM-GCC3264/bin/../lib/gcc/x86_64-w64-mingw32/10.3.0\libstdc++.a(eh_throw.o)
__cxa_get_exception_ptr                           D:/CODEX/Dev-Cpp/TDM-GCC3264/bin/../lib/gcc/x86_64-w64-mingw32/10.3.0\libstdc++.a(eh_catch.o)
__cxa_get_globals                                 D:/CODEX/Dev-Cpp/TDM-GCC3264/bin/../lib/gcc/x86_64-w64-mingw32/10.3.0\libstdc++.a(eh_globals.o)
                                                  D:/CODEX/Dev-Cpp/TDM-GCC3264/bin/../lib/gcc/x86_64-w64-mingw32/10.3.0\libstdc++.a(eh_type.o)
                                                  D:/CODEX/Dev-Cpp/TDM-GCC3264/bin/../lib/gcc/x86_64-w64-mingw32/10.3.0\libstdc++.a(eh_catch.o)
                                                  D:/CODEX/Dev-Cpp/TDM-GCC3264/bin/../lib/gcc/x86_64-w64-mingw32/10.3.0\libstdc++.a(eh_throw.o)
__cxa_get_globals_fast                            D:/CODEX/Dev-Cpp/TDM-GCC3264/bin/../lib/gcc/x86_64-w64-mingw32/10.3.0\libstdc++.a(eh_globals.o)
                                                  D:/CODEX/Dev-Cpp/TDM-GCC3264/bin/../lib/gcc/x86_64-w64-mingw32/10.3.0\libstdc++.a(eh_catch.o)
                                                  D:/CODEX/Dev-Cpp/TDM-GCC3264/bin/../lib/gcc/x86_64-w64-mingw32/10.3.0\libstdc++.a(eh_personality.o)
__cxa_init_primary_exception                      D:/CODEX/Dev-Cpp/TDM-GCC3264/bin/../lib/gcc/x86_64-w64-mingw32/10.3.0\libstdc++.a(eh_throw.o)
__cxa_pure_virtual                                D:/CODEX/Dev-Cpp/TDM-GCC3264/bin/../lib/gcc/x86_64-w64-mingw32/10.3.0\libstdc++.a(pure.o)
                                                  D:/CODEX/Dev-Cpp/TDM-GCC3264/bin/../lib/gcc/x86_64-w64-mingw32/10.3.0\libstdc++.a(eh_exception.o)
__cxa_rethrow                                     D:/CODEX/Dev-Cpp/TDM-GCC3264/bin/../lib/gcc/x86_64-w64-mingw32/10.3.0\libstdc++.a(eh_throw.o)
                                                  D:/CODEX/Dev-Cpp/TDM-GCC3264/bin/../lib/gcc/x86_64-w64-mingw32/10.3.0\libstdc++.a(vterminate.o)
                                                  D:/CODEX/Dev-Cpp/TDM-GCC3264/bin/../lib/gcc/x86_64-w64-mingw32/10.3.0\libstdc++.a(eh_personality.o)
__cxa_throw                                       D:/CODEX/Dev-Cpp/TDM-GCC3264/bin/../lib/gcc/x86_64-w64-mingw32/10.3.0\libstdc++.a(eh_throw.o)
                                                  D:/CODEX/Dev-Cpp/TDM-GCC3264/bin/../lib/gcc/x86_64-w64-mingw32/10.3.0\libstdc++.a(eh_personality.o)
                                                  D:/CODEX/Dev-Cpp/TDM-GCC3264/bin/../lib/gcc/x86_64-w64-mingw32/10.3.0\libstdc++.a(eh_alloc.o)
                                                  D:/CODEX/Dev-Cpp/TDM-GCC3264/bin/../lib/gcc/x86_64-w64-mingw32/10.3.0\libstdc++.a(new_op.o)
__cxxabiv1::__class_type_info::__do_catch(std::type_info const*, void**, unsigned int) const D:/CODEX/Dev-Cpp/TDM-GCC3264/bin/../lib/gcc/x86_64-w64-mingw32/10.3.0\libstdc++.a(class_type_info.o)
                                                  D:/CODEX/Dev-Cpp/TDM-GCC3264/bin/../lib/gcc/x86_64-w64-mingw32/10.3.0\libstdc++.a(si_class_type_info.o)
__cxxabiv1::__class_type_info::__do_dyncast(long long, __cxxabiv1::__class_type_info::__sub_kind, __cxxabiv1::__class_type_info const*, void const*, __cxxabiv1::__class_type_info const*, void const*, __cxxabiv1::__class_type_info::__dyncast_result&) const D:/CODEX/Dev-Cpp/TDM-GCC3264/bin/../lib/gcc/x86_64-w64-mingw32/10.3.0\libstdc++.a(class_type_info.o)
__cxxabiv1::__class_type_info::__do_find_public_src(long long, void const*, __cxxabiv1::__class_type_info const*, void const*) const D:/CODEX/Dev-Cpp/TDM-GCC3264/bin/../lib/gcc/x86_64-w64-mingw32/10.3.0\libstdc++.a(class_type_info.o)
__cxxabiv1::__class_type_info::__do_upcast(__cxxabiv1::__class_type_info const*, void const*, __cxxabiv1::__class_type_info::__upcast_result&) const D:/CODEX/Dev-Cpp/TDM-GCC3264/bin/../lib/gcc/x86_64-w64-mingw32/10.3.0\libstdc++.a(class_type_info.o)
                                                  D:/CODEX/Dev-Cpp/TDM-GCC3264/bin/../lib/gcc/x86_64-w64-mingw32/10.3.0\libstdc++.a(si_class_type_info.o)
__cxxabiv1::__class_type_info::__do_upcast(__cxxabiv1::__class_type_info const*, void**) const D:/CODEX/Dev-Cpp/TDM-GCC3264/bin/../lib/gcc/x86_64-w64-mingw32/10.3.0\libstdc++.a(class_type_info.o)
                                                  D:/CODEX/Dev-Cpp/TDM-GCC3264/bin/../lib/gcc/x86_64-w64-mingw32/10.3.0\libstdc++.a(si_class_type_info.o)
__cxxabiv1::__class_type_info::~__class_type_info() D:/CODEX/Dev-Cpp/TDM-GCC3264/bin/../lib/gcc/x86_64-w64-mingw32/10.3.0\libstdc++.a(class_type_info.o)
__cxxabiv1::__class_type_info::~__class_type_info() D:/CODEX/Dev-Cpp/TDM-GCC3264/bin/../lib/gcc/x86_64-w64-mingw32/10.3.0\libstdc++.a(class_type_info.o)
__cxxabiv1::__class_type_info::~__class_type_info() D:/CODEX/Dev-Cpp/TDM-GCC3264/bin/../lib/gcc/x86_64-w64-mingw32/10.3.0\libstdc++.a(class_type_info.o)
                                                  D:/CODEX/Dev-Cpp/TDM-GCC3264/bin/../lib/gcc/x86_64-w64-mingw32/10.3.0\libstdc++.a(si_class_type_info.o)
__cxxabiv1::__forced_unwind::~__forced_unwind()   D:/CODEX/Dev-Cpp/TDM-GCC3264/bin/../lib/gcc/x86_64-w64-mingw32/10.3.0\libstdc++.a(eh_exception.o)
__cxxabiv1::__forced_unwind::~__forced_unwind()   D:/CODEX/Dev-Cpp/TDM-GCC3264/bin/../lib/gcc/x86_64-w64-mingw32/10.3.0\libstdc++.a(eh_exception.o)
__cxxabiv1::__forced_unwind::~__forced_unwind()   D:/CODEX/Dev-Cpp/TDM-GCC3264/bin/../lib/gcc/x86_64-w64-mingw32/10.3.0\libstdc++.a(eh_exception.o)
__cxxabiv1::__foreign_exception::~__foreign_exception() D:/CODEX/Dev-Cpp/TDM-GCC3264/bin/../lib/gcc/x86_64-w64-mingw32/10.3.0\libstdc++.a(eh_exception.o)
__cxxabiv1::__foreign_exception::~__foreign_exception() D:/CODEX/Dev-Cpp/TDM-GCC3264/bin/../lib/gcc/x86_64-w64-mingw32/10.3.0\libstdc++.a(eh_exception.o)
__cxxabiv1::__foreign_exception::~__foreign_exception() D:/CODEX/Dev-Cpp/TDM-GCC3264/bin/../lib/gcc/x86_64-w64-mingw32/10.3.0\libstdc++.a(eh_exception.o)
__cxxabiv1::__shmem_eh_term_handler__terminate_handler D:/CODEX/Dev-Cpp/TDM-GCC3264/bin/../lib/gcc/x86_64-w64-mingw32/10.3.0\libstdc++.a(eh_term_handler.o)
__cxxabiv1::__shmem_eh_unex_handler__unexpected_handler D:/CODEX/Dev-Cpp/TDM-GCC3264/bin/../lib/gcc/x86_64-w64-mingw32/10.3.0\libstdc++.a(eh_unex_handler.o)
__cxxabiv1::__si_class_type_info::__do_dyncast(long long, __cxxabiv1::__class_type_info::__sub_kind, __cxxabiv1::__class_type_info const*, void const*, __cxxabiv1::__class_type_info const*, void const*, __cxxabiv1::__class_type_info::__dyncast_result&) const D:/CODEX/Dev-Cpp/TDM-GCC3264/bin/../lib/gcc/x86_64-w64-mingw32/10.3.0\libstdc++.a(si_class_type_info.o)
__cxxabiv1::__si_class_type_info::__do_find_public_src(long long, void const*, __cxxabiv1::__class_type_info const*, void const*) const D:/CODEX/Dev-Cpp/TDM-GCC3264/bin/../lib/gcc/x86_64-w64-mingw32/10.3.0\libstdc++.a(si_class_type_info.o)
__cxxabiv1::__si_class_type_info::__do_upcast(__cxxabiv1::__class_type_info const*, void const*, __cxxabiv1::__class_type_info::__upcast_result&) const D:/CODEX/Dev-Cpp/TDM-GCC3264/bin/../lib/gcc/x86_64-w64-mingw32/10.3.0\libstdc++.a(si_class_type_info.o)
__cxxabiv1::__si_class_type_info::~__si_class_type_info() D:/CODEX/Dev-Cpp/TDM-GCC3264/bin/../lib/gcc/x86_64-w64-mingw32/10.3.0\libstdc++.a(si_class_type_info.o)
__cxxabiv1::__si_class_type_info::~__si_class_type_info() D:/CODEX/Dev-Cpp/TDM-GCC3264/bin/../lib/gcc/x86_64-w64-mingw32/10.3.0\libstdc++.a(si_class_type_info.o)
__cxxabiv1::__si_class_type_info::~__si_class_type_info() D:/CODEX/Dev-Cpp/TDM-GCC3264/bin/../lib/gcc/x86_64-w64-mingw32/10.3.0\libstdc++.a(si_class_type_info.o)
__cxxabiv1::__terminate(void (*)())               D:/CODEX/Dev-Cpp/TDM-GCC3264/bin/../lib/gcc/x86_64-w64-mingw32/10.3.0\libstdc++.a(eh_terminate.o)
                                                  D:/CODEX/Dev-Cpp/TDM-GCC3264/bin/../lib/gcc/x86_64-w64-mingw32/10.3.0\libstdc++.a(eh_call.o)
                                                  D:/CODEX/Dev-Cpp/TDM-GCC3264/bin/../lib/gcc/x86_64-w64-mingw32/10.3.0\libstdc++.a(eh_throw.o)
                                                  D:/CODEX/Dev-Cpp/TDM-GCC3264/bin/../lib/gcc/x86_64-w64-mingw32/10.3.0\libstdc++.a(eh_personality.o)
__cxxabiv1::__unexpected(void (*)())              D:/CODEX/Dev-Cpp/TDM-GCC3264/bin/../lib/gcc/x86_64-w64-mingw32/10.3.0\libstdc++.a(eh_terminate.o)
                                                  D:/CODEX/Dev-Cpp/TDM-GCC3264/bin/../lib/gcc/x86_64-w64-mingw32/10.3.0\libstdc++.a(eh_personality.o)
__d2b_D2A                                         D:\CODEX\Dev-Cpp\TDM-GCC3264\x86_64-w64-mingw32\lib/libmingwex.a(lib64_libmingwex_a-misc.o)
__diff_D2A                                        D:\CODEX\Dev-Cpp\TDM-GCC3264\x86_64-w64-mingw32\lib/libmingwex.a(lib64_libmingwex_a-misc.o)
                                                  D:\CODEX\Dev-Cpp\TDM-GCC3264\x86_64-w64-mingw32\lib/libmingwex.a(lib64_libmingwex_a-gdtoa.o)
__do_global_ctors                                 D:\CODEX\Dev-Cpp\TDM-GCC3264\x86_64-w64-mingw32\lib/libmingw32.a(lib64_libmingw32_a-gccmain.o)
__do_global_dtors                                 D:\CODEX\Dev-Cpp\TDM-GCC3264\x86_64-w64-mingw32\lib/libmingw32.a(lib64_libmingw32_a-gccmain.o)
__dyn_tls_init                                    D:\CODEX\Dev-Cpp\TDM-GCC3264\x86_64-w64-mingw32\lib/libmingw32.a(lib64_libmingw32_a-tlssup.o)
__dyn_tls_init_callback                           D:\CODEX\Dev-Cpp\TDM-GCC3264\x86_64-w64-mingw32\lib/libmingw32.a(lib64_libmingw32_a-tlssup.o)
                                                  D:/CODEX/Dev-Cpp/TDM-GCC3264/bin/../lib/gcc/x86_64-w64-mingw32/10.3.0/../../../../x86_64-w64-mingw32/lib/../lib/crt2.o
__eh_shmem3_gcc_tdm_cleanup_local_region          D:/CODEX/Dev-Cpp/TDM-GCC3264/bin/../lib/gcc/x86_64-w64-mingw32/10.3.0/libgcc.a(eh_shmem3_mingw.o)
__eh_shmem3_gcc_tdm_init_local_region             D:/CODEX/Dev-Cpp/TDM-GCC3264/bin/../lib/gcc/x86_64-w64-mingw32/10.3.0/libgcc.a(eh_shmem3_mingw.o)
                                                  D:/CODEX/Dev-Cpp/TDM-GCC3264/bin/../lib/gcc/x86_64-w64-mingw32/10.3.0\libstdc++.a(eh_globals.o)
                                                  D:/CODEX/Dev-Cpp/TDM-GCC3264/bin/../lib/gcc/x86_64-w64-mingw32/10.3.0\libstdc++.a(eh_terminate.o)
__eh_shmem3_gcc_tdm_local_shmem_region            D:/CODEX/Dev-Cpp/TDM-GCC3264/bin/../lib/gcc/x86_64-w64-mingw32/10.3.0/libgcc.a(eh_shmem3_mingw.o)
                                                  D:/CODEX/Dev-Cpp/TDM-GCC3264/bin/../lib/gcc/x86_64-w64-mingw32/10.3.0\libstdc++.a(eh_term_handler.o)
                                                  D:/CODEX/Dev-Cpp/TDM-GCC3264/bin/../lib/gcc/x86_64-w64-mingw32/10.3.0\libstdc++.a(eh_globals.o)
                                                  D:/CODEX/Dev-Cpp/TDM-GCC3264/bin/../lib/gcc/x86_64-w64-mingw32/10.3.0\libstdc++.a(eh_unex_handler.o)
                                                  D:/CODEX/Dev-Cpp/TDM-GCC3264/bin/../lib/gcc/x86_64-w64-mingw32/10.3.0\libstdc++.a(eh_terminate.o)
__freedtoa                                        D:\CODEX\Dev-Cpp\TDM-GCC3264\x86_64-w64-mingw32\lib/libmingwex.a(lib64_libmingwex_a-dmisc.o)
                                                  D:\CODEX\Dev-Cpp\TDM-GCC3264\x86_64-w64-mingw32\lib/libmingwex.a(lib64_libmingwex_a-mingw_pformatw.o)
                                                  D:\CODEX\Dev-Cpp\TDM-GCC3264\x86_64-w64-mingw32\lib/libmingwex.a(lib64_libmingwex_a-mingw_pformat.o)
__gcc_deregister_frame                            D:/CODEX/Dev-Cpp/TDM-GCC3264/bin/../lib/gcc/x86_64-w64-mingw32/10.3.0/crtbegin.o
__gcc_register_frame                              D:/CODEX/Dev-Cpp/TDM-GCC3264/bin/../lib/gcc/x86_64-w64-mingw32/10.3.0/crtbegin.o
                                                  D:/CODEX/Dev-Cpp/TDM-GCC3264/bin/../lib/gcc/x86_64-w64-mingw32/10.3.0/crtend.o
__gcclibcxx_demangle_callback                     D:/CODEX/Dev-Cpp/TDM-GCC3264/bin/../lib/gcc/x86_64-w64-mingw32/10.3.0\libstdc++.a(cp-demangle.o)
__gdtoa                                           D:\CODEX\Dev-Cpp\TDM-GCC3264\x86_64-w64-mingw32\lib/libmingwex.a(lib64_libmingwex_a-gdtoa.o)
                                                  D:\CODEX\Dev-Cpp\TDM-GCC3264\x86_64-w64-mingw32\lib/libmingwex.a(lib64_libmingwex_a-mingw_pformatw.o)
                                                  D:\CODEX\Dev-Cpp\TDM-GCC3264\x86_64-w64-mingw32\lib/libmingwex.a(lib64_libmingwex_a-mingw_pformat.o)
__getmainargs                                     D:\CODEX\Dev-Cpp\TDM-GCC3264\x86_64-w64-mingw32\lib/libmsvcrt.a(dcfxs00081.o)
                                                  D:/CODEX/Dev-Cpp/TDM-GCC3264/bin/../lib/gcc/x86_64-w64-mingw32/10.3.0/../../../../x86_64-w64-mingw32/lib/../lib/crt2.o
__gnu_cxx::__concurrence_lock_error::what() const D:/CODEX/Dev-Cpp/TDM-GCC3264/bin/../lib/gcc/x86_64-w64-mingw32/10.3.0\libstdc++.a(eh_alloc.o)
__gnu_cxx::__concurrence_lock_error::~__concurrence_lock_error() D:/CODEX/Dev-Cpp/TDM-GCC3264/bin/../lib/gcc/x86_64-w64-mingw32/10.3.0\libstdc++.a(eh_alloc.o)
__gnu_cxx::__concurrence_lock_error::~__concurrence_lock_error() D:/CODEX/Dev-Cpp/TDM-GCC3264/bin/../lib/gcc/x86_64-w64-mingw32/10.3.0\libstdc++.a(eh_alloc.o)
__gnu_cxx::__concurrence_unlock_error::what() const D:/CODEX/Dev-Cpp/TDM-GCC3264/bin/../lib/gcc/x86_64-w64-mingw32/10.3.0\libstdc++.a(eh_alloc.o)
__gnu_cxx::__concurrence_unlock_error::~__concurrence_unlock_error() D:/CODEX/Dev-Cpp/TDM-GCC3264/bin/../lib/gcc/x86_64-w64-mingw32/10.3.0\libstdc++.a(eh_alloc.o)
__gnu_cxx::__concurrence_unlock_error::~__concurrence_unlock_error() D:/CODEX/Dev-Cpp/TDM-GCC3264/bin/../lib/gcc/x86_64-w64-mingw32/10.3.0\libstdc++.a(eh_alloc.o)
__gnu_cxx::__freeres()                            D:/CODEX/Dev-Cpp/TDM-GCC3264/bin/../lib/gcc/x86_64-w64-mingw32/10.3.0\libstdc++.a(eh_alloc.o)
__gnu_cxx::__throw_concurrence_lock_error()       D:/CODEX/Dev-Cpp/TDM-GCC3264/bin/../lib/gcc/x86_64-w64-mingw32/10.3.0\libstdc++.a(eh_alloc.o)
__gnu_cxx::__verbose_terminate_handler()          D:/CODEX/Dev-Cpp/TDM-GCC3264/bin/../lib/gcc/x86_64-w64-mingw32/10.3.0\libstdc++.a(vterminate.o)
                                                  D:/CODEX/Dev-Cpp/TDM-GCC3264/bin/../lib/gcc/x86_64-w64-mingw32/10.3.0\libstdc++.a(eh_term_handler.o)
                                                  D:/CODEX/Dev-Cpp/TDM-GCC3264/bin/../lib/gcc/x86_64-w64-mingw32/10.3.0\libstdc++.a(eh_terminate.o)
__gxx_personality_seh0                            D:/CODEX/Dev-Cpp/TDM-GCC3264/bin/../lib/gcc/x86_64-w64-mingw32/10.3.0\libstdc++.a(eh_personality.o)
                                                  D:/CODEX/Dev-Cpp/TDM-GCC3264/bin/../lib/gcc/x86_64-w64-mingw32/10.3.0\libstdc++.a(eh_globals.o)
                                                  D:/CODEX/Dev-Cpp/TDM-GCC3264/bin/../lib/gcc/x86_64-w64-mingw32/10.3.0\libstdc++.a(vterminate.o)
                                                  D:/CODEX/Dev-Cpp/TDM-GCC3264/bin/../lib/gcc/x86_64-w64-mingw32/10.3.0\libstdc++.a(eh_terminate.o)
                                                  D:/CODEX/Dev-Cpp/TDM-GCC3264/bin/../lib/gcc/x86_64-w64-mingw32/10.3.0\libstdc++.a(eh_alloc.o)
__i2b_D2A                                         D:\CODEX\Dev-Cpp\TDM-GCC3264\x86_64-w64-mingw32\lib/libmingwex.a(lib64_libmingwex_a-misc.o)
                                                  D:\CODEX\Dev-Cpp\TDM-GCC3264\x86_64-w64-mingw32\lib/libmingwex.a(lib64_libmingwex_a-gdtoa.o)
__image_base__                                    D:\CODEX\Dev-Cpp\TDM-GCC3264\x86_64-w64-mingw32\lib/libmingw32.a(lib64_libmingw32_a-pesect.o)
                                                  D:\CODEX\Dev-Cpp\TDM-GCC3264\x86_64-w64-mingw32\lib/libmingw32.a(lib64_libmingw32_a-pseudo-reloc.o)
                                                  D:/CODEX/Dev-Cpp/TDM-GCC3264/bin/../lib/gcc/x86_64-w64-mingw32/10.3.0/../../../../x86_64-w64-mingw32/lib/../lib/crt2.o
__imp_AddAtomA                                    D:\CODEX\Dev-Cpp\TDM-GCC3264\x86_64-w64-mingw32\lib/libkernel32.a(dwdrs00004.o)
                                                  D:\CODEX\Dev-Cpp\TDM-GCC3264\x86_64-w64-mingw32\lib/libpthread.a(libwinpthread_la-shmem3_mingw.o)
                                                  D:/CODEX/Dev-Cpp/TDM-GCC3264/bin/../lib/gcc/x86_64-w64-mingw32/10.3.0/libgcc.a(eh_shmem3_mingw.o)
__imp_AddVectoredExceptionHandler                 D:\CODEX\Dev-Cpp\TDM-GCC3264\x86_64-w64-mingw32\lib/libkernel32.a(dwdrs00019.o)
                                                  D:\CODEX\Dev-Cpp\TDM-GCC3264\x86_64-w64-mingw32\lib/libpthread.a(libwinpthread_la-thread.o)
__imp_CloseHandle                                 D:\CODEX\Dev-Cpp\TDM-GCC3264\x86_64-w64-mingw32\lib/libkernel32.a(dwdrs00140.o)
                                                  D:\CODEX\Dev-Cpp\TDM-GCC3264\x86_64-w64-mingw32\lib/libpthread.a(libwinpthread_la-sched.o)
                                                  D:\CODEX\Dev-Cpp\TDM-GCC3264\x86_64-w64-mingw32\lib/libpthread.a(libwinpthread_la-cond.o)
                                                  D:\CODEX\Dev-Cpp\TDM-GCC3264\x86_64-w64-mingw32\lib/libpthread.a(libwinpthread_la-shmem3_mingw.o)
                                                  D:\CODEX\Dev-Cpp\TDM-GCC3264\x86_64-w64-mingw32\lib/libpthread.a(libwinpthread_la-thread.o)
                                                  D:\CODEX\Dev-Cpp\TDM-GCC3264\x86_64-w64-mingw32\lib/libpthread.a(libwinpthread_la-mutex.o)
                                                  D:/CODEX/Dev-Cpp/TDM-GCC3264/bin/../lib/gcc/x86_64-w64-mingw32/10.3.0/libgcc.a(eh_shmem3_mingw.o)
__imp_CreateEventA                                D:\CODEX\Dev-Cpp\TDM-GCC3264\x86_64-w64-mingw32\lib/libkernel32.a(dwdrs00196.o)
                                                  D:\CODEX\Dev-Cpp\TDM-GCC3264\x86_64-w64-mingw32\lib/libpthread.a(libwinpthread_la-thread.o)
                                                  D:\CODEX\Dev-Cpp\TDM-GCC3264\x86_64-w64-mingw32\lib/libpthread.a(libwinpthread_la-mutex.o)
__imp_CreateMutexA                                D:\CODEX\Dev-Cpp\TDM-GCC3264\x86_64-w64-mingw32\lib/libkernel32.a(dwdrs00223.o)
                                                  D:\CODEX\Dev-Cpp\TDM-GCC3264\x86_64-w64-mingw32\lib/libpthread.a(libwinpthread_la-shmem3_mingw.o)
                                                  D:/CODEX/Dev-Cpp/TDM-GCC3264/bin/../lib/gcc/x86_64-w64-mingw32/10.3.0/libgcc.a(eh_shmem3_mingw.o)
__imp_CreateProcessW                              D:\CODEX\Dev-Cpp\TDM-GCC3264\x86_64-w64-mingw32\lib/libkernel32.a(dwdrs00238.o)
                                                  C:\Users\ARABBI~1\AppData\Local\Temp\main.exe.6iMB3F.ltrans0.ltrans.o
__imp_CreateSemaphoreA                            D:\CODEX\Dev-Cpp\TDM-GCC3264\x86_64-w64-mingw32\lib/libkernel32.a(dwdrs00242.o)
                                                  D:\CODEX\Dev-Cpp\TDM-GCC3264\x86_64-w64-mingw32\lib/libpthread.a(libwinpthread_la-cond.o)
__imp_DeleteAtom                                  D:\CODEX\Dev-Cpp\TDM-GCC3264\x86_64-w64-mingw32\lib/libkernel32.a(dwdrs00280.o)
                                                  D:\CODEX\Dev-Cpp\TDM-GCC3264\x86_64-w64-mingw32\lib/libpthread.a(libwinpthread_la-shmem3_mingw.o)
                                                  D:/CODEX/Dev-Cpp/TDM-GCC3264/bin/../lib/gcc/x86_64-w64-mingw32/10.3.0/libgcc.a(eh_shmem3_mingw.o)
__imp_DeleteCriticalSection                       D:\CODEX\Dev-Cpp\TDM-GCC3264\x86_64-w64-mingw32\lib/libkernel32.a(dwdrs00282.o)
                                                  D:\CODEX\Dev-Cpp\TDM-GCC3264\x86_64-w64-mingw32\lib/libmingwex.a(lib64_libmingwex_a-misc.o)
                                                  D:\CODEX\Dev-Cpp\TDM-GCC3264\x86_64-w64-mingw32\lib/libpthread.a(libwinpthread_la-cond.o)
                                                  D:\CODEX\Dev-Cpp\TDM-GCC3264\x86_64-w64-mingw32\lib/libmingw32.a(lib64_libmingw32_a-tlsthrd.o)
__imp_DuplicateHandle                             D:\CODEX\Dev-Cpp\TDM-GCC3264\x86_64-w64-mingw32\lib/libkernel32.a(dwdrs00312.o)
                                                  D:\CODEX\Dev-Cpp\TDM-GCC3264\x86_64-w64-mingw32\lib/libpthread.a(libwinpthread_la-thread.o)
__imp_EnterCriticalSection                        D:\CODEX\Dev-Cpp\TDM-GCC3264\x86_64-w64-mingw32\lib/libkernel32.a(dwdrs00318.o)
                                                  D:\CODEX\Dev-Cpp\TDM-GCC3264\x86_64-w64-mingw32\lib/libmsvcrt.a(lib64_libmsvcrt_os_a-mingw_lock.o)
                                                  D:\CODEX\Dev-Cpp\TDM-GCC3264\x86_64-w64-mingw32\lib/libmingwex.a(lib64_libmingwex_a-misc.o)
                                                  D:\CODEX\Dev-Cpp\TDM-GCC3264\x86_64-w64-mingw32\lib/libpthread.a(libwinpthread_la-cond.o)
                                                  D:\CODEX\Dev-Cpp\TDM-GCC3264\x86_64-w64-mingw32\lib/libmingw32.a(lib64_libmingw32_a-tlsthrd.o)
__imp_FindAtomA                                   D:\CODEX\Dev-Cpp\TDM-GCC3264\x86_64-w64-mingw32\lib/libkernel32.a(dwdrs00386.o)
                                                  D:\CODEX\Dev-Cpp\TDM-GCC3264\x86_64-w64-mingw32\lib/libpthread.a(libwinpthread_la-shmem3_mingw.o)
                                                  D:/CODEX/Dev-Cpp/TDM-GCC3264/bin/../lib/gcc/x86_64-w64-mingw32/10.3.0/libgcc.a(eh_shmem3_mingw.o)
__imp_FormatMessageA                              D:\CODEX\Dev-Cpp\TDM-GCC3264\x86_64-w64-mingw32\lib/libkernel32.a(dwdrs00437.o)
                                                  D:\CODEX\Dev-Cpp\TDM-GCC3264\x86_64-w64-mingw32\lib/libpthread.a(libwinpthread_la-shmem3_mingw.o)
                                                  D:/CODEX/Dev-Cpp/TDM-GCC3264/bin/../lib/gcc/x86_64-w64-mingw32/10.3.0/libgcc.a(eh_shmem3_mingw.o)
__imp_GetAtomNameA                                D:\CODEX\Dev-Cpp\TDM-GCC3264\x86_64-w64-mingw32\lib/libkernel32.a(dwdrs00459.o)
                                                  D:\CODEX\Dev-Cpp\TDM-GCC3264\x86_64-w64-mingw32\lib/libpthread.a(libwinpthread_la-shmem3_mingw.o)
                                                  D:/CODEX/Dev-Cpp/TDM-GCC3264/bin/../lib/gcc/x86_64-w64-mingw32/10.3.0/libgcc.a(eh_shmem3_mingw.o)
__imp_GetCurrentProcess                           D:\CODEX\Dev-Cpp\TDM-GCC3264\x86_64-w64-mingw32\lib/libkernel32.a(dwdrs00551.o)
                                                  D:\CODEX\Dev-Cpp\TDM-GCC3264\x86_64-w64-mingw32\lib/libpthread.a(libwinpthread_la-thread.o)
__imp_GetCurrentProcessId                         D:\CODEX\Dev-Cpp\TDM-GCC3264\x86_64-w64-mingw32\lib/libkernel32.a(dwdrs00552.o)
                                                  D:\CODEX\Dev-Cpp\TDM-GCC3264\x86_64-w64-mingw32\lib/libpthread.a(libwinpthread_la-sched.o)
                                                  D:\CODEX\Dev-Cpp\TDM-GCC3264\x86_64-w64-mingw32\lib/libpthread.a(libwinpthread_la-shmem3_mingw.o)
                                                  D:/CODEX/Dev-Cpp/TDM-GCC3264/bin/../lib/gcc/x86_64-w64-mingw32/10.3.0/libgcc.a(eh_shmem3_mingw.o)
__imp_GetCurrentThread                            D:\CODEX\Dev-Cpp\TDM-GCC3264\x86_64-w64-mingw32\lib/libkernel32.a(dwdrs00555.o)
                                                  D:\CODEX\Dev-Cpp\TDM-GCC3264\x86_64-w64-mingw32\lib/libpthread.a(libwinpthread_la-thread.o)
__imp_GetCurrentThreadId                          D:\CODEX\Dev-Cpp\TDM-GCC3264\x86_64-w64-mingw32\lib/libkernel32.a(dwdrs00556.o)
                                                  D:\CODEX\Dev-Cpp\TDM-GCC3264\x86_64-w64-mingw32\lib/libpthread.a(libwinpthread_la-cond.o)
                                                  D:\CODEX\Dev-Cpp\TDM-GCC3264\x86_64-w64-mingw32\lib/libpthread.a(libwinpthread_la-rwlock.o)
                                                  D:\CODEX\Dev-Cpp\TDM-GCC3264\x86_64-w64-mingw32\lib/libpthread.a(libwinpthread_la-thread.o)
                                                  D:\CODEX\Dev-Cpp\TDM-GCC3264\x86_64-w64-mingw32\lib/libpthread.a(libwinpthread_la-mutex.o)
__imp_GetHandleInformation                        D:\CODEX\Dev-Cpp\TDM-GCC3264\x86_64-w64-mingw32\lib/libkernel32.a(dwdrs00626.o)
                                                  D:\CODEX\Dev-Cpp\TDM-GCC3264\x86_64-w64-mingw32\lib/libpthread.a(libwinpthread_la-sched.o)
                                                  D:\CODEX\Dev-Cpp\TDM-GCC3264\x86_64-w64-mingw32\lib/libpthread.a(libwinpthread_la-thread.o)
__imp_GetLastError                                D:\CODEX\Dev-Cpp\TDM-GCC3264\x86_64-w64-mingw32\lib/libkernel32.a(dwdrs00629.o)
                                                  D:\CODEX\Dev-Cpp\TDM-GCC3264\x86_64-w64-mingw32\lib/libpthread.a(libwinpthread_la-sched.o)
                                                  D:\CODEX\Dev-Cpp\TDM-GCC3264\x86_64-w64-mingw32\lib/libpthread.a(libwinpthread_la-shmem3_mingw.o)
                                                  D:\CODEX\Dev-Cpp\TDM-GCC3264\x86_64-w64-mingw32\lib/libpthread.a(libwinpthread_la-thread.o)
                                                  D:\CODEX\Dev-Cpp\TDM-GCC3264\x86_64-w64-mingw32\lib/libpthread.a(libwinpthread_la-mutex.o)
                                                  D:/CODEX/Dev-Cpp/TDM-GCC3264/bin/../lib/gcc/x86_64-w64-mingw32/10.3.0/libgcc.a(eh_shmem3_mingw.o)
                                                  D:\CODEX\Dev-Cpp\TDM-GCC3264\x86_64-w64-mingw32\lib/libmingw32.a(lib64_libmingw32_a-tlsthrd.o)
                                                  D:\CODEX\Dev-Cpp\TDM-GCC3264\x86_64-w64-mingw32\lib/libmingw32.a(lib64_libmingw32_a-pseudo-reloc.o)
__imp_GetModuleFileNameW                          D:\CODEX\Dev-Cpp\TDM-GCC3264\x86_64-w64-mingw32\lib/libkernel32.a(dwdrs00649.o)
                                                  C:\Users\ARABBI~1\AppData\Local\Temp\main.exe.6iMB3F.ltrans0.ltrans.o
__imp_GetProcessAffinityMask                      D:\CODEX\Dev-Cpp\TDM-GCC3264\x86_64-w64-mingw32\lib/libkernel32.a(dwdrs00710.o)
                                                  D:\CODEX\Dev-Cpp\TDM-GCC3264\x86_64-w64-mingw32\lib/libpthread.a(libwinpthread_la-thread.o)
__imp_GetStartupInfoA                             D:\CODEX\Dev-Cpp\TDM-GCC3264\x86_64-w64-mingw32\lib/libkernel32.a(dwdrs00742.o)
                                                  D:/CODEX/Dev-Cpp/TDM-GCC3264/bin/../lib/gcc/x86_64-w64-mingw32/10.3.0/../../../../x86_64-w64-mingw32/lib/../lib/crt2.o
__imp_GetSystemTimeAsFileTime                     D:\CODEX\Dev-Cpp\TDM-GCC3264\x86_64-w64-mingw32\lib/libkernel32.a(dwdrs00768.o)
                                                  D:\CODEX\Dev-Cpp\TDM-GCC3264\x86_64-w64-mingw32\lib/libpthread.a(libwinpthread_la-misc.o)
__imp_GetThreadContext                            D:\CODEX\Dev-Cpp\TDM-GCC3264\x86_64-w64-mingw32\lib/libkernel32.a(dwdrs00782.o)
                                                  D:\CODEX\Dev-Cpp\TDM-GCC3264\x86_64-w64-mingw32\lib/libpthread.a(libwinpthread_la-thread.o)
__imp_GetThreadPriority                           D:\CODEX\Dev-Cpp\TDM-GCC3264\x86_64-w64-mingw32\lib/libkernel32.a(dwdrs00792.o)
                                                  D:\CODEX\Dev-Cpp\TDM-GCC3264\x86_64-w64-mingw32\lib/libpthread.a(libwinpthread_la-thread.o)
__imp_GetTickCount                                D:\CODEX\Dev-Cpp\TDM-GCC3264\x86_64-w64-mingw32\lib/libkernel32.a(dwdrs00798.o)
                                                  D:\CODEX\Dev-Cpp\TDM-GCC3264\x86_64-w64-mingw32\lib/libpthread.a(libwinpthread_la-misc.o)
__imp_InitializeCriticalSection                   D:\CODEX\Dev-Cpp\TDM-GCC3264\x86_64-w64-mingw32\lib/libkernel32.a(dwdrs00891.o)
                                                  D:\CODEX\Dev-Cpp\TDM-GCC3264\x86_64-w64-mingw32\lib/libmingwex.a(lib64_libmingwex_a-misc.o)
                                                  D:\CODEX\Dev-Cpp\TDM-GCC3264\x86_64-w64-mingw32\lib/libpthread.a(libwinpthread_la-cond.o)
                                                  D:\CODEX\Dev-Cpp\TDM-GCC3264\x86_64-w64-mingw32\lib/libmingw32.a(lib64_libmingw32_a-tlsthrd.o)
__imp_IsDBCSLeadByteEx                            D:\CODEX\Dev-Cpp\TDM-GCC3264\x86_64-w64-mingw32\lib/libkernel32.a(dwdrs00918.o)
                                                  D:\CODEX\Dev-Cpp\TDM-GCC3264\x86_64-w64-mingw32\lib/libmsvcrt.a(lib64_libmsvcrt_os_a-mbrtowc.o)
__imp_IsDebuggerPresent                           D:\CODEX\Dev-Cpp\TDM-GCC3264\x86_64-w64-mingw32\lib/libkernel32.a(dwdrs00919.o)
                                                  D:\CODEX\Dev-Cpp\TDM-GCC3264\x86_64-w64-mingw32\lib/libpthread.a(libwinpthread_la-shmem3_mingw.o)
                                                  D:\CODEX\Dev-Cpp\TDM-GCC3264\x86_64-w64-mingw32\lib/libpthread.a(libwinpthread_la-thread.o)
                                                  D:/CODEX/Dev-Cpp/TDM-GCC3264/bin/../lib/gcc/x86_64-w64-mingw32/10.3.0/libgcc.a(eh_shmem3_mingw.o)
__imp_LeaveCriticalSection                        D:\CODEX\Dev-Cpp\TDM-GCC3264\x86_64-w64-mingw32\lib/libkernel32.a(dwdrs00983.o)
                                                  D:\CODEX\Dev-Cpp\TDM-GCC3264\x86_64-w64-mingw32\lib/libmsvcrt.a(lib64_libmsvcrt_os_a-mingw_lock.o)
                                                  D:\CODEX\Dev-Cpp\TDM-GCC3264\x86_64-w64-mingw32\lib/libmingwex.a(lib64_libmingwex_a-misc.o)
                                                  D:\CODEX\Dev-Cpp\TDM-GCC3264\x86_64-w64-mingw32\lib/libpthread.a(libwinpthread_la-cond.o)
                                                  D:\CODEX\Dev-Cpp\TDM-GCC3264\x86_64-w64-mingw32\lib/libmingw32.a(lib64_libmingw32_a-tlsthrd.o)
__imp_LocalFree                                   D:\CODEX\Dev-Cpp\TDM-GCC3264\x86_64-w64-mingw32\lib/libkernel32.a(dwdrs01001.o)
                                                  D:\CODEX\Dev-Cpp\TDM-GCC3264\x86_64-w64-mingw32\lib/libpthread.a(libwinpthread_la-shmem3_mingw.o)
                                                  D:/CODEX/Dev-Cpp/TDM-GCC3264/bin/../lib/gcc/x86_64-w64-mingw32/10.3.0/libgcc.a(eh_shmem3_mingw.o)
__imp_MessageBoxW                                 D:\CODEX\Dev-Cpp\TDM-GCC3264\x86_64-w64-mingw32\lib/libuser32.a(dcjzs00619.o)
                                                  C:\Users\ARABBI~1\AppData\Local\Temp\main.exe.6iMB3F.ltrans0.ltrans.o
__imp_MultiByteToWideChar                         D:\CODEX\Dev-Cpp\TDM-GCC3264\x86_64-w64-mingw32\lib/libkernel32.a(dwdrs01035.o)
                                                  D:\CODEX\Dev-Cpp\TDM-GCC3264\x86_64-w64-mingw32\lib/libmsvcrt.a(lib64_libmsvcrt_os_a-mbrtowc.o)
__imp_OpenProcess                                 D:\CODEX\Dev-Cpp\TDM-GCC3264\x86_64-w64-mingw32\lib/libkernel32.a(dwdrs01068.o)
                                                  D:\CODEX\Dev-Cpp\TDM-GCC3264\x86_64-w64-mingw32\lib/libpthread.a(libwinpthread_la-sched.o)
__imp_OutputDebugStringA                          D:\CODEX\Dev-Cpp\TDM-GCC3264\x86_64-w64-mingw32\lib/libkernel32.a(dwdrs01077.o)
                                                  D:\CODEX\Dev-Cpp\TDM-GCC3264\x86_64-w64-mingw32\lib/libpthread.a(libwinpthread_la-shmem3_mingw.o)
                                                  D:\CODEX\Dev-Cpp\TDM-GCC3264\x86_64-w64-mingw32\lib/libpthread.a(libwinpthread_la-thread.o)
                                                  D:/CODEX/Dev-Cpp/TDM-GCC3264/bin/../lib/gcc/x86_64-w64-mingw32/10.3.0/libgcc.a(eh_shmem3_mingw.o)
__imp_QueryPerformanceCounter                     D:\CODEX\Dev-Cpp\TDM-GCC3264\x86_64-w64-mingw32\lib/libkernel32.a(dwdrs01130.o)
                                                  D:\CODEX\Dev-Cpp\TDM-GCC3264\x86_64-w64-mingw32\lib/libpthread.a(libwinpthread_la-misc.o)
__imp_QueryPerformanceFrequency                   D:\CODEX\Dev-Cpp\TDM-GCC3264\x86_64-w64-mingw32\lib/libkernel32.a(dwdrs01131.o)
                                                  D:\CODEX\Dev-Cpp\TDM-GCC3264\x86_64-w64-mingw32\lib/libpthread.a(libwinpthread_la-misc.o)
__imp_RaiseException                              D:\CODEX\Dev-Cpp\TDM-GCC3264\x86_64-w64-mingw32\lib/libkernel32.a(dwdrs01152.o)
                                                  D:\CODEX\Dev-Cpp\TDM-GCC3264\x86_64-w64-mingw32\lib/libpthread.a(libwinpthread_la-thread.o)
__imp_ReleaseMutex                                D:\CODEX\Dev-Cpp\TDM-GCC3264\x86_64-w64-mingw32\lib/libkernel32.a(dwdrs01191.o)
                                                  D:\CODEX\Dev-Cpp\TDM-GCC3264\x86_64-w64-mingw32\lib/libpthread.a(libwinpthread_la-shmem3_mingw.o)
                                                  D:/CODEX/Dev-Cpp/TDM-GCC3264/bin/../lib/gcc/x86_64-w64-mingw32/10.3.0/libgcc.a(eh_shmem3_mingw.o)
__imp_ReleaseSemaphore                            D:\CODEX\Dev-Cpp\TDM-GCC3264\x86_64-w64-mingw32\lib/libkernel32.a(dwdrs01195.o)
                                                  D:\CODEX\Dev-Cpp\TDM-GCC3264\x86_64-w64-mingw32\lib/libpthread.a(libwinpthread_la-cond.o)
__imp_RemoveVectoredExceptionHandler              D:\CODEX\Dev-Cpp\TDM-GCC3264\x86_64-w64-mingw32\lib/libkernel32.a(dwdrs01206.o)
                                                  D:\CODEX\Dev-Cpp\TDM-GCC3264\x86_64-w64-mingw32\lib/libpthread.a(libwinpthread_la-thread.o)
__imp_ResetEvent                                  D:\CODEX\Dev-Cpp\TDM-GCC3264\x86_64-w64-mingw32\lib/libkernel32.a(dwdrs01213.o)
                                                  D:\CODEX\Dev-Cpp\TDM-GCC3264\x86_64-w64-mingw32\lib/libpthread.a(libwinpthread_la-cond.o)
                                                  D:\CODEX\Dev-Cpp\TDM-GCC3264\x86_64-w64-mingw32\lib/libpthread.a(libwinpthread_la-thread.o)
__imp_ResumeThread                                D:\CODEX\Dev-Cpp\TDM-GCC3264\x86_64-w64-mingw32\lib/libkernel32.a(dwdrs01220.o)
                                                  D:\CODEX\Dev-Cpp\TDM-GCC3264\x86_64-w64-mingw32\lib/libpthread.a(libwinpthread_la-thread.o)
__imp_SetEvent                                    D:\CODEX\Dev-Cpp\TDM-GCC3264\x86_64-w64-mingw32\lib/libkernel32.a(dwdrs01305.o)
                                                  D:\CODEX\Dev-Cpp\TDM-GCC3264\x86_64-w64-mingw32\lib/libpthread.a(libwinpthread_la-thread.o)
                                                  D:\CODEX\Dev-Cpp\TDM-GCC3264\x86_64-w64-mingw32\lib/libpthread.a(libwinpthread_la-mutex.o)
__imp_SetLastError                                D:\CODEX\Dev-Cpp\TDM-GCC3264\x86_64-w64-mingw32\lib/libkernel32.a(dwdrs01333.o)
                                                  D:\CODEX\Dev-Cpp\TDM-GCC3264\x86_64-w64-mingw32\lib/libpthread.a(libwinpthread_la-thread.o)
__imp_SetProcessAffinityMask                      D:\CODEX\Dev-Cpp\TDM-GCC3264\x86_64-w64-mingw32\lib/libkernel32.a(dwdrs01344.o)
                                                  D:\CODEX\Dev-Cpp\TDM-GCC3264\x86_64-w64-mingw32\lib/libpthread.a(libwinpthread_la-thread.o)
__imp_SetThreadContext                            D:\CODEX\Dev-Cpp\TDM-GCC3264\x86_64-w64-mingw32\lib/libkernel32.a(dwdrs01367.o)
                                                  D:\CODEX\Dev-Cpp\TDM-GCC3264\x86_64-w64-mingw32\lib/libpthread.a(libwinpthread_la-thread.o)
__imp_SetThreadPriority                           D:\CODEX\Dev-Cpp\TDM-GCC3264\x86_64-w64-mingw32\lib/libkernel32.a(dwdrs01377.o)
                                                  D:\CODEX\Dev-Cpp\TDM-GCC3264\x86_64-w64-mingw32\lib/libpthread.a(libwinpthread_la-sched.o)
                                                  D:\CODEX\Dev-Cpp\TDM-GCC3264\x86_64-w64-mingw32\lib/libpthread.a(libwinpthread_la-thread.o)
__imp_SetUnhandledExceptionFilter                 D:\CODEX\Dev-Cpp\TDM-GCC3264\x86_64-w64-mingw32\lib/libkernel32.a(dwdrs01393.o)
                                                  D:/CODEX/Dev-Cpp/TDM-GCC3264/bin/../lib/gcc/x86_64-w64-mingw32/10.3.0/../../../../x86_64-w64-mingw32/lib/../lib/crt2.o
__imp_Sleep                                       D:\CODEX\Dev-Cpp\TDM-GCC3264\x86_64-w64-mingw32\lib/libkernel32.a(dwdrs01409.o)
                                                  C:\Users\ARABBI~1\AppData\Local\Temp\main.exe.6iMB3F.ltrans0.ltrans.o
                                                  D:\CODEX\Dev-Cpp\TDM-GCC3264\x86_64-w64-mingw32\lib/libmingwex.a(lib64_libmingwex_a-misc.o)
                                                  D:\CODEX\Dev-Cpp\TDM-GCC3264\x86_64-w64-mingw32\lib/libpthread.a(libwinpthread_la-sched.o)
                                                  D:\CODEX\Dev-Cpp\TDM-GCC3264\x86_64-w64-mingw32\lib/libpthread.a(libwinpthread_la-thread.o)
                                                  D:/CODEX/Dev-Cpp/TDM-GCC3264/bin/../lib/gcc/x86_64-w64-mingw32/10.3.0/../../../../x86_64-w64-mingw32/lib/../lib/crt2.o
__imp_SuspendThread                               D:\CODEX\Dev-Cpp\TDM-GCC3264\x86_64-w64-mingw32\lib/libkernel32.a(dwdrs01417.o)
                                                  D:\CODEX\Dev-Cpp\TDM-GCC3264\x86_64-w64-mingw32\lib/libpthread.a(libwinpthread_la-thread.o)
__imp_TlsAlloc                                    D:\CODEX\Dev-Cpp\TDM-GCC3264\x86_64-w64-mingw32\lib/libkernel32.a(dwdrs01442.o)
                                                  D:\CODEX\Dev-Cpp\TDM-GCC3264\x86_64-w64-mingw32\lib/libpthread.a(libwinpthread_la-thread.o)
__imp_TlsGetValue                                 D:\CODEX\Dev-Cpp\TDM-GCC3264\x86_64-w64-mingw32\lib/libkernel32.a(dwdrs01444.o)
                                                  D:\CODEX\Dev-Cpp\TDM-GCC3264\x86_64-w64-mingw32\lib/libpthread.a(libwinpthread_la-thread.o)
                                                  D:\CODEX\Dev-Cpp\TDM-GCC3264\x86_64-w64-mingw32\lib/libmingw32.a(lib64_libmingw32_a-tlsthrd.o)
__imp_TlsSetValue                                 D:\CODEX\Dev-Cpp\TDM-GCC3264\x86_64-w64-mingw32\lib/libkernel32.a(dwdrs01445.o)
                                                  D:\CODEX\Dev-Cpp\TDM-GCC3264\x86_64-w64-mingw32\lib/libpthread.a(libwinpthread_la-thread.o)
__imp_TryEnterCriticalSection                     D:\CODEX\Dev-Cpp\TDM-GCC3264\x86_64-w64-mingw32\lib/libkernel32.a(dwdrs01451.o)
                                                  D:\CODEX\Dev-Cpp\TDM-GCC3264\x86_64-w64-mingw32\lib/libpthread.a(libwinpthread_la-cond.o)
__imp_VirtualProtect                              D:\CODEX\Dev-Cpp\TDM-GCC3264\x86_64-w64-mingw32\lib/libkernel32.a(dwdrs01491.o)
                                                  D:\CODEX\Dev-Cpp\TDM-GCC3264\x86_64-w64-mingw32\lib/libmingw32.a(lib64_libmingw32_a-pseudo-reloc.o)
__imp_VirtualQuery                                D:\CODEX\Dev-Cpp\TDM-GCC3264\x86_64-w64-mingw32\lib/libkernel32.a(dwdrs01493.o)
                                                  D:\CODEX\Dev-Cpp\TDM-GCC3264\x86_64-w64-mingw32\lib/libmingw32.a(lib64_libmingw32_a-pseudo-reloc.o)
__imp_WaitForMultipleObjects                      D:\CODEX\Dev-Cpp\TDM-GCC3264\x86_64-w64-mingw32\lib/libkernel32.a(dwdrs01500.o)
                                                  D:\CODEX\Dev-Cpp\TDM-GCC3264\x86_64-w64-mingw32\lib/libpthread.a(libwinpthread_la-misc.o)
__imp_WaitForSingleObject                         D:\CODEX\Dev-Cpp\TDM-GCC3264\x86_64-w64-mingw32\lib/libkernel32.a(dwdrs01502.o)
                                                  D:\CODEX\Dev-Cpp\TDM-GCC3264\x86_64-w64-mingw32\lib/libpthread.a(libwinpthread_la-cond.o)
                                                  D:\CODEX\Dev-Cpp\TDM-GCC3264\x86_64-w64-mingw32\lib/libpthread.a(libwinpthread_la-misc.o)
                                                  D:\CODEX\Dev-Cpp\TDM-GCC3264\x86_64-w64-mingw32\lib/libpthread.a(libwinpthread_la-shmem3_mingw.o)
                                                  D:\CODEX\Dev-Cpp\TDM-GCC3264\x86_64-w64-mingw32\lib/libpthread.a(libwinpthread_la-thread.o)
                                                  D:/CODEX/Dev-Cpp/TDM-GCC3264/bin/../lib/gcc/x86_64-w64-mingw32/10.3.0/libgcc.a(eh_shmem3_mingw.o)
__imp_WideCharToMultiByte                         D:\CODEX\Dev-Cpp\TDM-GCC3264\x86_64-w64-mingw32\lib/libkernel32.a(dwdrs01546.o)
                                                  D:\CODEX\Dev-Cpp\TDM-GCC3264\x86_64-w64-mingw32\lib/libmsvcrt.a(lib64_libmsvcrt_os_a-wcrtomb.o)
__imp__GCC_specific_handler                       D:/CODEX/Dev-Cpp/TDM-GCC3264/bin/../lib/gcc/x86_64-w64-mingw32/10.3.0/libgcc_s.a(d000001.o)
__imp__Unwind_DeleteException                     D:/CODEX/Dev-Cpp/TDM-GCC3264/bin/../lib/gcc/x86_64-w64-mingw32/10.3.0/libgcc_s.a(d000003.o)
__imp__Unwind_GetDataRelBase                      D:/CODEX/Dev-Cpp/TDM-GCC3264/bin/../lib/gcc/x86_64-w64-mingw32/10.3.0/libgcc_s.a(d000007.o)
__imp__Unwind_GetIPInfo                           D:/CODEX/Dev-Cpp/TDM-GCC3264/bin/../lib/gcc/x86_64-w64-mingw32/10.3.0/libgcc_s.a(d000010.o)
__imp__Unwind_GetLanguageSpecificData             D:/CODEX/Dev-Cpp/TDM-GCC3264/bin/../lib/gcc/x86_64-w64-mingw32/10.3.0/libgcc_s.a(d000011.o)
__imp__Unwind_GetRegionStart                      D:/CODEX/Dev-Cpp/TDM-GCC3264/bin/../lib/gcc/x86_64-w64-mingw32/10.3.0/libgcc_s.a(d000012.o)
__imp__Unwind_GetTextRelBase                      D:/CODEX/Dev-Cpp/TDM-GCC3264/bin/../lib/gcc/x86_64-w64-mingw32/10.3.0/libgcc_s.a(d000013.o)
__imp__Unwind_RaiseException                      D:/CODEX/Dev-Cpp/TDM-GCC3264/bin/../lib/gcc/x86_64-w64-mingw32/10.3.0/libgcc_s.a(d000014.o)
__imp__Unwind_Resume                              D:/CODEX/Dev-Cpp/TDM-GCC3264/bin/../lib/gcc/x86_64-w64-mingw32/10.3.0/libgcc_s.a(d000015.o)
__imp__Unwind_Resume_or_Rethrow                   D:/CODEX/Dev-Cpp/TDM-GCC3264/bin/../lib/gcc/x86_64-w64-mingw32/10.3.0/libgcc_s.a(d000016.o)
__imp__Unwind_SetGR                               D:/CODEX/Dev-Cpp/TDM-GCC3264/bin/../lib/gcc/x86_64-w64-mingw32/10.3.0/libgcc_s.a(d000017.o)
__imp__Unwind_SetIP                               D:/CODEX/Dev-Cpp/TDM-GCC3264/bin/../lib/gcc/x86_64-w64-mingw32/10.3.0/libgcc_s.a(d000018.o)
__imp___C_specific_handler                        D:\CODEX\Dev-Cpp\TDM-GCC3264\x86_64-w64-mingw32\lib/libkernel32.a(dwdrs01583.o)
__imp____lc_codepage_func                         D:\CODEX\Dev-Cpp\TDM-GCC3264\x86_64-w64-mingw32\lib/libmsvcrt.a(dcfxs00063.o)
__imp____mb_cur_max_func                          D:\CODEX\Dev-Cpp\TDM-GCC3264\x86_64-w64-mingw32\lib/libmsvcrt.a(dcfxs00066.o)
__imp___acrt_iob_func                             D:\CODEX\Dev-Cpp\TDM-GCC3264\x86_64-w64-mingw32\lib/libmsvcrt.a(lib64_libmsvcrt_os_a-acrt_iob_func.o)
                                                  C:\Users\ARABBI~1\AppData\Local\Temp\main.exe.6iMB3F.ltrans0.ltrans.o
                                                  D:\CODEX\Dev-Cpp\TDM-GCC3264\x86_64-w64-mingw32\lib/libpthread.a(libwinpthread_la-cond.o)
                                                  D:\CODEX\Dev-Cpp\TDM-GCC3264\x86_64-w64-mingw32\lib/libpthread.a(libwinpthread_la-rwlock.o)
                                                  D:\CODEX\Dev-Cpp\TDM-GCC3264\x86_64-w64-mingw32\lib/libpthread.a(libwinpthread_la-thread.o)
                                                  D:/CODEX/Dev-Cpp/TDM-GCC3264/bin/../lib/gcc/x86_64-w64-mingw32/10.3.0\libstdc++.a(vterminate.o)
__imp___getmainargs                               D:\CODEX\Dev-Cpp\TDM-GCC3264\x86_64-w64-mingw32\lib/libmsvcrt.a(dcfxs00081.o)
__imp___initenv                                   D:\CODEX\Dev-Cpp\TDM-GCC3264\x86_64-w64-mingw32\lib/libmsvcrt.a(dcfxs00082.o)
                                                  D:/CODEX/Dev-Cpp/TDM-GCC3264/bin/../lib/gcc/x86_64-w64-mingw32/10.3.0/../../../../x86_64-w64-mingw32/lib/../lib/crt2.o
__imp___iob_func                                  D:\CODEX\Dev-Cpp\TDM-GCC3264\x86_64-w64-mingw32\lib/libmsvcrt.a(dcfxs00083.o)
__imp___lconv_init                                D:\CODEX\Dev-Cpp\TDM-GCC3264\x86_64-w64-mingw32\lib/libmsvcrt.a(dcfxs00091.o)
                                                  D:\CODEX\Dev-Cpp\TDM-GCC3264\x86_64-w64-mingw32\lib/libmingw32.a(lib64_libmingw32_a-charmax.o)
__imp___ms_fwprintf                               D:\CODEX\Dev-Cpp\TDM-GCC3264\x86_64-w64-mingw32\lib/libmsvcrt.a(dcfxs01106.o)
__imp___p__acmdln                                 D:\CODEX\Dev-Cpp\TDM-GCC3264\x86_64-w64-mingw32\lib/libmsvcrt.a(lib64_libmsvcrt_os_a-__p__acmdln.o)
__imp___p__commode                                D:\CODEX\Dev-Cpp\TDM-GCC3264\x86_64-w64-mingw32\lib/libmsvcrt.a(lib64_libmsvcrt_os_a-__p__commode.o)
__imp___p__fmode                                  D:\CODEX\Dev-Cpp\TDM-GCC3264\x86_64-w64-mingw32\lib/libmsvcrt.a(lib64_libmsvcrt_os_a-__p__fmode.o)
__imp___set_app_type                              D:\CODEX\Dev-Cpp\TDM-GCC3264\x86_64-w64-mingw32\lib/libmsvcrt.a(dcfxs00097.o)
__imp___setusermatherr                            D:\CODEX\Dev-Cpp\TDM-GCC3264\x86_64-w64-mingw32\lib/libmsvcrt.a(dcfxs00099.o)
__imp__acmdln                                     D:\CODEX\Dev-Cpp\TDM-GCC3264\x86_64-w64-mingw32\lib/libmsvcrt.a(dcfxs00116.o)
                                                  D:\CODEX\Dev-Cpp\TDM-GCC3264\x86_64-w64-mingw32\lib/libmsvcrt.a(lib64_libmsvcrt_os_a-__p__acmdln.o)
__imp__amsg_exit                                  D:\CODEX\Dev-Cpp\TDM-GCC3264\x86_64-w64-mingw32\lib/libmsvcrt.a(dcfxs00123.o)
__imp__beginthreadex                              D:\CODEX\Dev-Cpp\TDM-GCC3264\x86_64-w64-mingw32\lib/libmsvcrt.a(dcfxs00137.o)
                                                  D:\CODEX\Dev-Cpp\TDM-GCC3264\x86_64-w64-mingw32\lib/libpthread.a(libwinpthread_la-thread.o)
__imp__cexit                                      D:\CODEX\Dev-Cpp\TDM-GCC3264\x86_64-w64-mingw32\lib/libmsvcrt.a(dcfxs00141.o)
__imp__commode                                    D:\CODEX\Dev-Cpp\TDM-GCC3264\x86_64-w64-mingw32\lib/libmsvcrt.a(dcfxs00157.o)
                                                  D:\CODEX\Dev-Cpp\TDM-GCC3264\x86_64-w64-mingw32\lib/libmsvcrt.a(lib64_libmsvcrt_os_a-__p__commode.o)
__imp__endthreadex                                D:\CODEX\Dev-Cpp\TDM-GCC3264\x86_64-w64-mingw32\lib/libmsvcrt.a(dcfxs00201.o)
                                                  D:\CODEX\Dev-Cpp\TDM-GCC3264\x86_64-w64-mingw32\lib/libpthread.a(libwinpthread_la-thread.o)
__imp__errno                                      D:\CODEX\Dev-Cpp\TDM-GCC3264\x86_64-w64-mingw32\lib/libmsvcrt.a(dcfxs00204.o)
                                                  D:\CODEX\Dev-Cpp\TDM-GCC3264\x86_64-w64-mingw32\lib/libpthread.a(libwinpthread_la-sched.o)
__imp__fmode                                      D:\CODEX\Dev-Cpp\TDM-GCC3264\x86_64-w64-mingw32\lib/libmsvcrt.a(dcfxs00254.o)
                                                  D:\CODEX\Dev-Cpp\TDM-GCC3264\x86_64-w64-mingw32\lib/libmsvcrt.a(lib64_libmsvcrt_os_a-__p__fmode.o)
__imp__get_invalid_parameter_handler              D:\CODEX\Dev-Cpp\TDM-GCC3264\x86_64-w64-mingw32\lib/libmsvcrt.a(lib64_libmsvcrt_os_a-invalid_parameter_handler.o)
__imp__initterm                                   D:\CODEX\Dev-Cpp\TDM-GCC3264\x86_64-w64-mingw32\lib/libmsvcrt.a(dcfxs00332.o)
__imp__lock                                       D:\CODEX\Dev-Cpp\TDM-GCC3264\x86_64-w64-mingw32\lib/libmsvcrt.a(dcfxs00443.o)
__imp__lock_file                                  D:\CODEX\Dev-Cpp\TDM-GCC3264\x86_64-w64-mingw32\lib/libmsvcrt.a(lib64_libmsvcrt_os_a-mingw_lock.o)
__imp__onexit                                     D:\CODEX\Dev-Cpp\TDM-GCC3264\x86_64-w64-mingw32\lib/libmsvcrt.a(dcfxs00615.o)
__imp__set_invalid_parameter_handler              D:\CODEX\Dev-Cpp\TDM-GCC3264\x86_64-w64-mingw32\lib/libmsvcrt.a(lib64_libmsvcrt_os_a-invalid_parameter_handler.o)
__imp__setjmp                                     D:\CODEX\Dev-Cpp\TDM-GCC3264\x86_64-w64-mingw32\lib/libmsvcrt.a(dcfxs00672.o)
__imp__ultoa                                      D:\CODEX\Dev-Cpp\TDM-GCC3264\x86_64-w64-mingw32\lib/libmsvcrt.a(dcfxs00809.o)
                                                  D:\CODEX\Dev-Cpp\TDM-GCC3264\x86_64-w64-mingw32\lib/libpthread.a(libwinpthread_la-thread.o)
__imp__unlock                                     D:\CODEX\Dev-Cpp\TDM-GCC3264\x86_64-w64-mingw32\lib/libmsvcrt.a(dcfxs00821.o)
__imp__unlock_file                                D:\CODEX\Dev-Cpp\TDM-GCC3264\x86_64-w64-mingw32\lib/libmsvcrt.a(lib64_libmsvcrt_os_a-mingw_lock.o)
__imp_abort                                       D:\CODEX\Dev-Cpp\TDM-GCC3264\x86_64-w64-mingw32\lib/libmsvcrt.a(dcfxs01037.o)
__imp_calloc                                      D:\CODEX\Dev-Cpp\TDM-GCC3264\x86_64-w64-mingw32\lib/libmsvcrt.a(dcfxs01054.o)
__imp_exit                                        D:\CODEX\Dev-Cpp\TDM-GCC3264\x86_64-w64-mingw32\lib/libmsvcrt.a(dcfxs01068.o)
__imp_fprintf                                     D:\CODEX\Dev-Cpp\TDM-GCC3264\x86_64-w64-mingw32\lib/libmsvcrt.a(dcfxs01090.o)
__imp_fputc                                       D:\CODEX\Dev-Cpp\TDM-GCC3264\x86_64-w64-mingw32\lib/libmsvcrt.a(dcfxs01092.o)
__imp_fputs                                       D:\CODEX\Dev-Cpp\TDM-GCC3264\x86_64-w64-mingw32\lib/libmsvcrt.a(dcfxs01093.o)
__imp_fputwc                                      D:\CODEX\Dev-Cpp\TDM-GCC3264\x86_64-w64-mingw32\lib/libmsvcrt.a(dcfxs01094.o)
__imp_free                                        D:\CODEX\Dev-Cpp\TDM-GCC3264\x86_64-w64-mingw32\lib/libmsvcrt.a(dcfxs01097.o)
__imp_fwrite                                      D:\CODEX\Dev-Cpp\TDM-GCC3264\x86_64-w64-mingw32\lib/libmsvcrt.a(dcfxs01109.o)
__imp_localeconv                                  D:\CODEX\Dev-Cpp\TDM-GCC3264\x86_64-w64-mingw32\lib/libmsvcrt.a(dcfxs01149.o)
__imp_longjmp                                     D:\CODEX\Dev-Cpp\TDM-GCC3264\x86_64-w64-mingw32\lib/libmsvcrt.a(dcfxs01155.o)
                                                  D:\CODEX\Dev-Cpp\TDM-GCC3264\x86_64-w64-mingw32\lib/libpthread.a(libwinpthread_la-thread.o)
__imp_malloc                                      D:\CODEX\Dev-Cpp\TDM-GCC3264\x86_64-w64-mingw32\lib/libmsvcrt.a(dcfxs01156.o)
__imp_memccpy                                     D:\CODEX\Dev-Cpp\TDM-GCC3264\x86_64-w64-mingw32\lib/libmsvcrt.a(dcfxs00602.o)
__imp_memcmp                                      D:\CODEX\Dev-Cpp\TDM-GCC3264\x86_64-w64-mingw32\lib/libmsvcrt.a(dcfxs01163.o)
__imp_memcpy                                      D:\CODEX\Dev-Cpp\TDM-GCC3264\x86_64-w64-mingw32\lib/libmsvcrt.a(dcfxs01164.o)
__imp_memmove                                     D:\CODEX\Dev-Cpp\TDM-GCC3264\x86_64-w64-mingw32\lib/libmsvcrt.a(dcfxs01165.o)
__imp_memset                                      D:\CODEX\Dev-Cpp\TDM-GCC3264\x86_64-w64-mingw32\lib/libmsvcrt.a(dcfxs01166.o)
__imp_printf                                      D:\CODEX\Dev-Cpp\TDM-GCC3264\x86_64-w64-mingw32\lib/libmsvcrt.a(dcfxs01174.o)
__imp_realloc                                     D:\CODEX\Dev-Cpp\TDM-GCC3264\x86_64-w64-mingw32\lib/libmsvcrt.a(dcfxs01187.o)
__imp_signal                                      D:\CODEX\Dev-Cpp\TDM-GCC3264\x86_64-w64-mingw32\lib/libmsvcrt.a(dcfxs01196.o)
__imp_strcmp                                      D:\CODEX\Dev-Cpp\TDM-GCC3264\x86_64-w64-mingw32\lib/libmsvcrt.a(dcfxs01212.o)
__imp_strdup                                      D:\CODEX\Dev-Cpp\TDM-GCC3264\x86_64-w64-mingw32\lib/libmsvcrt.a(dcfxs00734.o)
__imp_strerror                                    D:\CODEX\Dev-Cpp\TDM-GCC3264\x86_64-w64-mingw32\lib/libmsvcrt.a(dcfxs01217.o)
__imp_strlen                                      D:\CODEX\Dev-Cpp\TDM-GCC3264\x86_64-w64-mingw32\lib/libmsvcrt.a(dcfxs01219.o)
__imp_strncmp                                     D:\CODEX\Dev-Cpp\TDM-GCC3264\x86_64-w64-mingw32\lib/libmsvcrt.a(dcfxs01222.o)
__imp_vfprintf                                    D:\CODEX\Dev-Cpp\TDM-GCC3264\x86_64-w64-mingw32\lib/libmsvcrt.a(dcfxs01258.o)
__imp_wcslen                                      D:\CODEX\Dev-Cpp\TDM-GCC3264\x86_64-w64-mingw32\lib/libmsvcrt.a(dcfxs01283.o)
__imp_write                                       D:\CODEX\Dev-Cpp\TDM-GCC3264\x86_64-w64-mingw32\lib/libmsvcrt.a(dcfxs00991.o)
__iob_func                                        D:\CODEX\Dev-Cpp\TDM-GCC3264\x86_64-w64-mingw32\lib/libmsvcrt.a(dcfxs00083.o)
                                                  D:\CODEX\Dev-Cpp\TDM-GCC3264\x86_64-w64-mingw32\lib/libmsvcrt.a(lib64_libmsvcrt_os_a-acrt_iob_func.o)
__lconv_init                                      D:\CODEX\Dev-Cpp\TDM-GCC3264\x86_64-w64-mingw32\lib/libmsvcrt.a(dcfxs00091.o)
__lib64_libkernel32_a_iname                       D:\CODEX\Dev-Cpp\TDM-GCC3264\x86_64-w64-mingw32\lib/libkernel32.a(dwdrt.o)
                                                  D:\CODEX\Dev-Cpp\TDM-GCC3264\x86_64-w64-mingw32\lib/libkernel32.a(dwdrh.o)
__lib64_libmsvcrt_os_a_iname                      D:\CODEX\Dev-Cpp\TDM-GCC3264\x86_64-w64-mingw32\lib/libmsvcrt.a(dcfxt.o)
                                                  D:\CODEX\Dev-Cpp\TDM-GCC3264\x86_64-w64-mingw32\lib/libmsvcrt.a(dcfxh.o)
__lib64_libuser32_a_iname                         D:\CODEX\Dev-Cpp\TDM-GCC3264\x86_64-w64-mingw32\lib/libuser32.a(dcjzt.o)
                                                  D:\CODEX\Dev-Cpp\TDM-GCC3264\x86_64-w64-mingw32\lib/libuser32.a(dcjzh.o)
__lshift_D2A                                      D:\CODEX\Dev-Cpp\TDM-GCC3264\x86_64-w64-mingw32\lib/libmingwex.a(lib64_libmingwex_a-misc.o)
                                                  D:\CODEX\Dev-Cpp\TDM-GCC3264\x86_64-w64-mingw32\lib/libmingwex.a(lib64_libmingwex_a-gdtoa.o)
__main                                            D:\CODEX\Dev-Cpp\TDM-GCC3264\x86_64-w64-mingw32\lib/libmingw32.a(lib64_libmingw32_a-gccmain.o)
                                                  C:\Users\ARABBI~1\AppData\Local\Temp\main.exe.6iMB3F.ltrans0.ltrans.o
                                                  D:/CODEX/Dev-Cpp/TDM-GCC3264/bin/../lib/gcc/x86_64-w64-mingw32/10.3.0/../../../../x86_64-w64-mingw32/lib/../lib/crt2.o
__mingw_GetSectionCount                           D:\CODEX\Dev-Cpp\TDM-GCC3264\x86_64-w64-mingw32\lib/libmingw32.a(lib64_libmingw32_a-pesect.o)
                                                  D:\CODEX\Dev-Cpp\TDM-GCC3264\x86_64-w64-mingw32\lib/libmingw32.a(lib64_libmingw32_a-pseudo-reloc.o)
__mingw_GetSectionForAddress                      D:\CODEX\Dev-Cpp\TDM-GCC3264\x86_64-w64-mingw32\lib/libmingw32.a(lib64_libmingw32_a-pesect.o)
                                                  D:\CODEX\Dev-Cpp\TDM-GCC3264\x86_64-w64-mingw32\lib/libmingw32.a(lib64_libmingw32_a-pseudo-reloc.o)
__mingw_TLScallback                               D:\CODEX\Dev-Cpp\TDM-GCC3264\x86_64-w64-mingw32\lib/libmingw32.a(lib64_libmingw32_a-tlsthrd.o)
                                                  D:\CODEX\Dev-Cpp\TDM-GCC3264\x86_64-w64-mingw32\lib/libmingw32.a(lib64_libmingw32_a-tlssup.o)
__mingw_enum_import_library_names                 D:\CODEX\Dev-Cpp\TDM-GCC3264\x86_64-w64-mingw32\lib/libmingw32.a(lib64_libmingw32_a-pesect.o)
__mingw_module_is_dll                             D:/CODEX/Dev-Cpp/TDM-GCC3264/bin/../lib/gcc/x86_64-w64-mingw32/10.3.0/../../../../x86_64-w64-mingw32/lib/../lib/crt2.o
__mingw_oldexcpt_handler                          D:\CODEX\Dev-Cpp\TDM-GCC3264\x86_64-w64-mingw32\lib/libmingw32.a(lib64_libmingw32_a-crt_handler.o)
                                                  D:/CODEX/Dev-Cpp/TDM-GCC3264/bin/../lib/gcc/x86_64-w64-mingw32/10.3.0/../../../../x86_64-w64-mingw32/lib/../lib/crt2.o
__mingw_pformat                                   D:\CODEX\Dev-Cpp\TDM-GCC3264\x86_64-w64-mingw32\lib/libmingwex.a(lib64_libmingwex_a-mingw_pformat.o)
                                                  D:\CODEX\Dev-Cpp\TDM-GCC3264\x86_64-w64-mingw32\lib/libmingwex.a(lib64_libmingwex_a-mingw_vsprintf.o)
__mingw_pinit                                     D:\CODEX\Dev-Cpp\TDM-GCC3264\x86_64-w64-mingw32\lib/libmingw32.a(lib64_libmingw32_a-charmax.o)
__mingw_raise_matherr                             D:\CODEX\Dev-Cpp\TDM-GCC3264\x86_64-w64-mingw32\lib/libmingw32.a(lib64_libmingw32_a-usermatherr.o)
__mingw_setusermatherr                            D:\CODEX\Dev-Cpp\TDM-GCC3264\x86_64-w64-mingw32\lib/libmingw32.a(lib64_libmingw32_a-usermatherr.o)
                                                  D:/CODEX/Dev-Cpp/TDM-GCC3264/bin/../lib/gcc/x86_64-w64-mingw32/10.3.0/../../../../x86_64-w64-mingw32/lib/../lib/crt2.o
__mingw_vfwprintf                                 D:\CODEX\Dev-Cpp\TDM-GCC3264\x86_64-w64-mingw32\lib/libmingwex.a(lib64_libmingwex_a-mingw_vfprintfw.o)
                                                  C:\Users\ARABBI~1\AppData\Local\Temp\main.exe.6iMB3F.ltrans0.ltrans.o
                                                  C:\Users\ARABBI~1\AppData\Local\Temp\ccJboNLv.o (symbol from plugin)
__mingw_vsprintf                                  D:\CODEX\Dev-Cpp\TDM-GCC3264\x86_64-w64-mingw32\lib/libmingwex.a(lib64_libmingwex_a-mingw_vsprintf.o)
                                                  D:/CODEX/Dev-Cpp/TDM-GCC3264/bin/../lib/gcc/x86_64-w64-mingw32/10.3.0\libstdc++.a(cp-demangle.o)
__mingw_winmain_hInstance                         D:/CODEX/Dev-Cpp/TDM-GCC3264/bin/../lib/gcc/x86_64-w64-mingw32/10.3.0/../../../../x86_64-w64-mingw32/lib/../lib/crt2.o
__mingw_winmain_lpCmdLine                         D:/CODEX/Dev-Cpp/TDM-GCC3264/bin/../lib/gcc/x86_64-w64-mingw32/10.3.0/../../../../x86_64-w64-mingw32/lib/../lib/crt2.o
__mingw_winmain_nShowCmd                          D:/CODEX/Dev-Cpp/TDM-GCC3264/bin/../lib/gcc/x86_64-w64-mingw32/10.3.0/../../../../x86_64-w64-mingw32/lib/../lib/crt2.o
__mingw_wpformat                                  D:\CODEX\Dev-Cpp\TDM-GCC3264\x86_64-w64-mingw32\lib/libmingwex.a(lib64_libmingwex_a-mingw_pformatw.o)
                                                  D:\CODEX\Dev-Cpp\TDM-GCC3264\x86_64-w64-mingw32\lib/libmingwex.a(lib64_libmingwex_a-mingw_vfprintfw.o)
__ms_fwprintf                                     D:\CODEX\Dev-Cpp\TDM-GCC3264\x86_64-w64-mingw32\lib/libmsvcrt.a(dcfxs01106.o)
                                                  D:\CODEX\Dev-Cpp\TDM-GCC3264\x86_64-w64-mingw32\lib/libmingwex.a(lib64_libmingwex_a-mingw_pformatw.o)
__mult_D2A                                        D:\CODEX\Dev-Cpp\TDM-GCC3264\x86_64-w64-mingw32\lib/libmingwex.a(lib64_libmingwex_a-misc.o)
                                                  D:\CODEX\Dev-Cpp\TDM-GCC3264\x86_64-w64-mingw32\lib/libmingwex.a(lib64_libmingwex_a-gdtoa.o)
__multadd_D2A                                     D:\CODEX\Dev-Cpp\TDM-GCC3264\x86_64-w64-mingw32\lib/libmingwex.a(lib64_libmingwex_a-misc.o)
                                                  D:\CODEX\Dev-Cpp\TDM-GCC3264\x86_64-w64-mingw32\lib/libmingwex.a(lib64_libmingwex_a-gdtoa.o)
__native_dllmain_reason                           D:\CODEX\Dev-Cpp\TDM-GCC3264\x86_64-w64-mingw32\lib/libmingw32.a(lib64_libmingw32_a-natstart.o)
__native_startup_lock                             D:\CODEX\Dev-Cpp\TDM-GCC3264\x86_64-w64-mingw32\lib/libmingw32.a(lib64_libmingw32_a-natstart.o)
                                                  D:/CODEX/Dev-Cpp/TDM-GCC3264/bin/../lib/gcc/x86_64-w64-mingw32/10.3.0/../../../../x86_64-w64-mingw32/lib/../lib/crt2.o
__native_startup_state                            D:\CODEX\Dev-Cpp\TDM-GCC3264\x86_64-w64-mingw32\lib/libmingw32.a(lib64_libmingw32_a-natstart.o)
                                                  D:/CODEX/Dev-Cpp/TDM-GCC3264/bin/../lib/gcc/x86_64-w64-mingw32/10.3.0/../../../../x86_64-w64-mingw32/lib/../lib/crt2.o
__native_vcclrit_reason                           D:\CODEX\Dev-Cpp\TDM-GCC3264\x86_64-w64-mingw32\lib/libmingw32.a(lib64_libmingw32_a-natstart.o)
__nrv_alloc_D2A                                   D:\CODEX\Dev-Cpp\TDM-GCC3264\x86_64-w64-mingw32\lib/libmingwex.a(lib64_libmingwex_a-dmisc.o)
                                                  D:\CODEX\Dev-Cpp\TDM-GCC3264\x86_64-w64-mingw32\lib/libmingwex.a(lib64_libmingwex_a-gdtoa.o)
__p__acmdln                                       D:\CODEX\Dev-Cpp\TDM-GCC3264\x86_64-w64-mingw32\lib/libmsvcrt.a(lib64_libmsvcrt_os_a-__p__acmdln.o)
                                                  D:/CODEX/Dev-Cpp/TDM-GCC3264/bin/../lib/gcc/x86_64-w64-mingw32/10.3.0/../../../../x86_64-w64-mingw32/lib/../lib/crt2.o
__p__commode                                      D:\CODEX\Dev-Cpp\TDM-GCC3264\x86_64-w64-mingw32\lib/libmsvcrt.a(lib64_libmsvcrt_os_a-__p__commode.o)
                                                  D:/CODEX/Dev-Cpp/TDM-GCC3264/bin/../lib/gcc/x86_64-w64-mingw32/10.3.0/../../../../x86_64-w64-mingw32/lib/../lib/crt2.o
__p__fmode                                        D:\CODEX\Dev-Cpp\TDM-GCC3264\x86_64-w64-mingw32\lib/libmsvcrt.a(lib64_libmsvcrt_os_a-__p__fmode.o)
                                                  D:/CODEX/Dev-Cpp/TDM-GCC3264/bin/../lib/gcc/x86_64-w64-mingw32/10.3.0/../../../../x86_64-w64-mingw32/lib/../lib/crt2.o
__pow5mult_D2A                                    D:\CODEX\Dev-Cpp\TDM-GCC3264\x86_64-w64-mingw32\lib/libmingwex.a(lib64_libmingwex_a-misc.o)
                                                  D:\CODEX\Dev-Cpp\TDM-GCC3264\x86_64-w64-mingw32\lib/libmingwex.a(lib64_libmingwex_a-gdtoa.o)
__pth_gpointer_locked                             D:\CODEX\Dev-Cpp\TDM-GCC3264\x86_64-w64-mingw32\lib/libpthread.a(libwinpthread_la-thread.o)
                                                  D:\CODEX\Dev-Cpp\TDM-GCC3264\x86_64-w64-mingw32\lib/libpthread.a(libwinpthread_la-sched.o)
__pthread_clock_nanosleep                         D:\CODEX\Dev-Cpp\TDM-GCC3264\x86_64-w64-mingw32\lib/libpthread.a(libwinpthread_la-cond.o)
__pthread_shallcancel                             D:\CODEX\Dev-Cpp\TDM-GCC3264\x86_64-w64-mingw32\lib/libpthread.a(libwinpthread_la-thread.o)
                                                  D:\CODEX\Dev-Cpp\TDM-GCC3264\x86_64-w64-mingw32\lib/libpthread.a(libwinpthread_la-cond.o)
__quorem_D2A                                      D:\CODEX\Dev-Cpp\TDM-GCC3264\x86_64-w64-mingw32\lib/libmingwex.a(lib64_libmingwex_a-dmisc.o)
                                                  D:\CODEX\Dev-Cpp\TDM-GCC3264\x86_64-w64-mingw32\lib/libmingwex.a(lib64_libmingwex_a-gdtoa.o)
__rshift_D2A                                      D:\CODEX\Dev-Cpp\TDM-GCC3264\x86_64-w64-mingw32\lib/libmingwex.a(lib64_libmingwex_a-gmisc.o)
                                                  D:\CODEX\Dev-Cpp\TDM-GCC3264\x86_64-w64-mingw32\lib/libmingwex.a(lib64_libmingwex_a-gdtoa.o)
__rv_alloc_D2A                                    D:\CODEX\Dev-Cpp\TDM-GCC3264\x86_64-w64-mingw32\lib/libmingwex.a(lib64_libmingwex_a-dmisc.o)
                                                  D:\CODEX\Dev-Cpp\TDM-GCC3264\x86_64-w64-mingw32\lib/libmingwex.a(lib64_libmingwex_a-gdtoa.o)
__set_app_type                                    D:\CODEX\Dev-Cpp\TDM-GCC3264\x86_64-w64-mingw32\lib/libmsvcrt.a(dcfxs00097.o)
                                                  D:/CODEX/Dev-Cpp/TDM-GCC3264/bin/../lib/gcc/x86_64-w64-mingw32/10.3.0/../../../../x86_64-w64-mingw32/lib/../lib/crt2.o
__setusermatherr                                  D:\CODEX\Dev-Cpp\TDM-GCC3264\x86_64-w64-mingw32\lib/libmsvcrt.a(dcfxs00099.o)
                                                  D:\CODEX\Dev-Cpp\TDM-GCC3264\x86_64-w64-mingw32\lib/libmingw32.a(lib64_libmingw32_a-usermatherr.o)
__shmem3_winpthreads_tdm_cleanup_local_region     D:\CODEX\Dev-Cpp\TDM-GCC3264\x86_64-w64-mingw32\lib/libpthread.a(libwinpthread_la-shmem3_mingw.o)
__shmem3_winpthreads_tdm_init_local_region        D:\CODEX\Dev-Cpp\TDM-GCC3264\x86_64-w64-mingw32\lib/libpthread.a(libwinpthread_la-shmem3_mingw.o)
                                                  D:\CODEX\Dev-Cpp\TDM-GCC3264\x86_64-w64-mingw32\lib/libpthread.a(libwinpthread_la-cond.o)
                                                  D:\CODEX\Dev-Cpp\TDM-GCC3264\x86_64-w64-mingw32\lib/libpthread.a(libwinpthread_la-rwlock.o)
                                                  D:\CODEX\Dev-Cpp\TDM-GCC3264\x86_64-w64-mingw32\lib/libpthread.a(libwinpthread_la-thread.o)
__shmem3_winpthreads_tdm_local_shmem_region       D:\CODEX\Dev-Cpp\TDM-GCC3264\x86_64-w64-mingw32\lib/libpthread.a(libwinpthread_la-shmem3_mingw.o)
                                                  D:\CODEX\Dev-Cpp\TDM-GCC3264\x86_64-w64-mingw32\lib/libpthread.a(libwinpthread_la-cond.o)
                                                  D:\CODEX\Dev-Cpp\TDM-GCC3264\x86_64-w64-mingw32\lib/libpthread.a(libwinpthread_la-rwlock.o)
                                                  D:\CODEX\Dev-Cpp\TDM-GCC3264\x86_64-w64-mingw32\lib/libpthread.a(libwinpthread_la-thread.o)
__shmem__pthread_cancelling_shmem                 D:\CODEX\Dev-Cpp\TDM-GCC3264\x86_64-w64-mingw32\lib/libpthread.a(libwinpthread_la-thread.o)
__shmem__pthread_concur_shmem                     D:\CODEX\Dev-Cpp\TDM-GCC3264\x86_64-w64-mingw32\lib/libpthread.a(libwinpthread_la-thread.o)
__shmem__pthread_key_dest_shmem                   D:\CODEX\Dev-Cpp\TDM-GCC3264\x86_64-w64-mingw32\lib/libpthread.a(libwinpthread_la-thread.o)
__shmem__pthread_key_lock_shmem                   D:\CODEX\Dev-Cpp\TDM-GCC3264\x86_64-w64-mingw32\lib/libpthread.a(libwinpthread_la-thread.o)
__shmem__pthread_key_max_shmem                    D:\CODEX\Dev-Cpp\TDM-GCC3264\x86_64-w64-mingw32\lib/libpthread.a(libwinpthread_la-thread.o)
__shmem__pthread_key_sch_shmem                    D:\CODEX\Dev-Cpp\TDM-GCC3264\x86_64-w64-mingw32\lib/libpthread.a(libwinpthread_la-thread.o)
__shmem__pthread_tls_once_shmem                   D:\CODEX\Dev-Cpp\TDM-GCC3264\x86_64-w64-mingw32\lib/libpthread.a(libwinpthread_la-thread.o)
__shmem__pthread_tls_shmem                        D:\CODEX\Dev-Cpp\TDM-GCC3264\x86_64-w64-mingw32\lib/libpthread.a(libwinpthread_la-thread.o)
__shmem_cond_locked_shmem_cond                    D:\CODEX\Dev-Cpp\TDM-GCC3264\x86_64-w64-mingw32\lib/libpthread.a(libwinpthread_la-cond.o)
__shmem_cond_locked_shmem_rwlock                  D:\CODEX\Dev-Cpp\TDM-GCC3264\x86_64-w64-mingw32\lib/libpthread.a(libwinpthread_la-rwlock.o)
__shmem_dummy_concurrency_level_shmem             D:\CODEX\Dev-Cpp\TDM-GCC3264\x86_64-w64-mingw32\lib/libpthread.a(libwinpthread_la-thread.o)
__shmem_eh_globals_eh_globals                     D:/CODEX/Dev-Cpp/TDM-GCC3264/bin/../lib/gcc/x86_64-w64-mingw32/10.3.0\libstdc++.a(eh_globals.o)
__shmem_eh_globals_init                           D:/CODEX/Dev-Cpp/TDM-GCC3264/bin/../lib/gcc/x86_64-w64-mingw32/10.3.0\libstdc++.a(eh_globals.o)
__shmem_idListCnt_shmem                           D:\CODEX\Dev-Cpp\TDM-GCC3264\x86_64-w64-mingw32\lib/libpthread.a(libwinpthread_la-thread.o)
__shmem_idListMax_shmem                           D:\CODEX\Dev-Cpp\TDM-GCC3264\x86_64-w64-mingw32\lib/libpthread.a(libwinpthread_la-thread.o)
__shmem_idListNextId_shmem                        D:\CODEX\Dev-Cpp\TDM-GCC3264\x86_64-w64-mingw32\lib/libpthread.a(libwinpthread_la-thread.o)
__shmem_idList_shmem                              D:\CODEX\Dev-Cpp\TDM-GCC3264\x86_64-w64-mingw32\lib/libpthread.a(libwinpthread_la-thread.o)
__shmem_init__pthread_cancelling_shmem            D:\CODEX\Dev-Cpp\TDM-GCC3264\x86_64-w64-mingw32\lib/libpthread.a(libwinpthread_la-thread.o)
__shmem_init__pthread_concur_shmem                D:\CODEX\Dev-Cpp\TDM-GCC3264\x86_64-w64-mingw32\lib/libpthread.a(libwinpthread_la-thread.o)
__shmem_init__pthread_key_dest_shmem              D:\CODEX\Dev-Cpp\TDM-GCC3264\x86_64-w64-mingw32\lib/libpthread.a(libwinpthread_la-thread.o)
__shmem_init__pthread_key_lock_shmem              D:\CODEX\Dev-Cpp\TDM-GCC3264\x86_64-w64-mingw32\lib/libpthread.a(libwinpthread_la-thread.o)
__shmem_init__pthread_key_max_shmem               D:\CODEX\Dev-Cpp\TDM-GCC3264\x86_64-w64-mingw32\lib/libpthread.a(libwinpthread_la-thread.o)
__shmem_init__pthread_key_sch_shmem               D:\CODEX\Dev-Cpp\TDM-GCC3264\x86_64-w64-mingw32\lib/libpthread.a(libwinpthread_la-thread.o)
__shmem_init__pthread_tls_once_shmem              D:\CODEX\Dev-Cpp\TDM-GCC3264\x86_64-w64-mingw32\lib/libpthread.a(libwinpthread_la-thread.o)
__shmem_init__pthread_tls_shmem                   D:\CODEX\Dev-Cpp\TDM-GCC3264\x86_64-w64-mingw32\lib/libpthread.a(libwinpthread_la-thread.o)
__shmem_init_cond_locked_shmem_cond               D:\CODEX\Dev-Cpp\TDM-GCC3264\x86_64-w64-mingw32\lib/libpthread.a(libwinpthread_la-cond.o)
__shmem_init_cond_locked_shmem_rwlock             D:\CODEX\Dev-Cpp\TDM-GCC3264\x86_64-w64-mingw32\lib/libpthread.a(libwinpthread_la-rwlock.o)
__shmem_init_dummy_concurrency_level_shmem        D:\CODEX\Dev-Cpp\TDM-GCC3264\x86_64-w64-mingw32\lib/libpthread.a(libwinpthread_la-thread.o)
__shmem_init_eh_globals_eh_globals                D:/CODEX/Dev-Cpp/TDM-GCC3264/bin/../lib/gcc/x86_64-w64-mingw32/10.3.0\libstdc++.a(eh_globals.o)
__shmem_init_eh_globals_init                      D:/CODEX/Dev-Cpp/TDM-GCC3264/bin/../lib/gcc/x86_64-w64-mingw32/10.3.0\libstdc++.a(eh_globals.o)
__shmem_init_eh_term_handler__terminate_handler   D:/CODEX/Dev-Cpp/TDM-GCC3264/bin/../lib/gcc/x86_64-w64-mingw32/10.3.0\libstdc++.a(eh_term_handler.o)
                                                  D:/CODEX/Dev-Cpp/TDM-GCC3264/bin/../lib/gcc/x86_64-w64-mingw32/10.3.0\libstdc++.a(eh_terminate.o)
__shmem_init_eh_unex_handler__unexpected_handler  D:/CODEX/Dev-Cpp/TDM-GCC3264/bin/../lib/gcc/x86_64-w64-mingw32/10.3.0\libstdc++.a(eh_unex_handler.o)
                                                  D:/CODEX/Dev-Cpp/TDM-GCC3264/bin/../lib/gcc/x86_64-w64-mingw32/10.3.0\libstdc++.a(eh_terminate.o)
__shmem_init_idListCnt_shmem                      D:\CODEX\Dev-Cpp\TDM-GCC3264\x86_64-w64-mingw32\lib/libpthread.a(libwinpthread_la-thread.o)
__shmem_init_idListMax_shmem                      D:\CODEX\Dev-Cpp\TDM-GCC3264\x86_64-w64-mingw32\lib/libpthread.a(libwinpthread_la-thread.o)
__shmem_init_idListNextId_shmem                   D:\CODEX\Dev-Cpp\TDM-GCC3264\x86_64-w64-mingw32\lib/libpthread.a(libwinpthread_la-thread.o)
__shmem_init_idList_shmem                         D:\CODEX\Dev-Cpp\TDM-GCC3264\x86_64-w64-mingw32\lib/libpthread.a(libwinpthread_la-thread.o)
__shmem_init_mtx_pthr_locked_shmem                D:\CODEX\Dev-Cpp\TDM-GCC3264\x86_64-w64-mingw32\lib/libpthread.a(libwinpthread_la-thread.o)
__shmem_init_once_global_shmem                    D:\CODEX\Dev-Cpp\TDM-GCC3264\x86_64-w64-mingw32\lib/libpthread.a(libwinpthread_la-thread.o)
__shmem_init_once_obj_shmem                       D:\CODEX\Dev-Cpp\TDM-GCC3264\x86_64-w64-mingw32\lib/libpthread.a(libwinpthread_la-thread.o)
__shmem_init_pthr_last_shmem                      D:\CODEX\Dev-Cpp\TDM-GCC3264\x86_64-w64-mingw32\lib/libpthread.a(libwinpthread_la-thread.o)
__shmem_init_pthr_root_shmem                      D:\CODEX\Dev-Cpp\TDM-GCC3264\x86_64-w64-mingw32\lib/libpthread.a(libwinpthread_la-thread.o)
__shmem_init_rwl_global_shmem                     D:\CODEX\Dev-Cpp\TDM-GCC3264\x86_64-w64-mingw32\lib/libpthread.a(libwinpthread_la-rwlock.o)
__shmem_mtx_pthr_locked_shmem                     D:\CODEX\Dev-Cpp\TDM-GCC3264\x86_64-w64-mingw32\lib/libpthread.a(libwinpthread_la-thread.o)
__shmem_once_global_shmem                         D:\CODEX\Dev-Cpp\TDM-GCC3264\x86_64-w64-mingw32\lib/libpthread.a(libwinpthread_la-thread.o)
__shmem_once_obj_shmem                            D:\CODEX\Dev-Cpp\TDM-GCC3264\x86_64-w64-mingw32\lib/libpthread.a(libwinpthread_la-thread.o)
__shmem_pthr_last_shmem                           D:\CODEX\Dev-Cpp\TDM-GCC3264\x86_64-w64-mingw32\lib/libpthread.a(libwinpthread_la-thread.o)
__shmem_pthr_root_shmem                           D:\CODEX\Dev-Cpp\TDM-GCC3264\x86_64-w64-mingw32\lib/libpthread.a(libwinpthread_la-thread.o)
__shmem_rwl_global_shmem                          D:\CODEX\Dev-Cpp\TDM-GCC3264\x86_64-w64-mingw32\lib/libpthread.a(libwinpthread_la-rwlock.o)
__strcp_D2A                                       D:\CODEX\Dev-Cpp\TDM-GCC3264\x86_64-w64-mingw32\lib/libmingwex.a(lib64_libmingwex_a-misc.o)
__tens_D2A                                        D:\CODEX\Dev-Cpp\TDM-GCC3264\x86_64-w64-mingw32\lib/libmingwex.a(lib64_libmingwex_a-misc.o)
                                                  D:\CODEX\Dev-Cpp\TDM-GCC3264\x86_64-w64-mingw32\lib/libmingwex.a(lib64_libmingwex_a-gdtoa.o)
__tinytens_D2A                                    D:\CODEX\Dev-Cpp\TDM-GCC3264\x86_64-w64-mingw32\lib/libmingwex.a(lib64_libmingwex_a-misc.o)
__tlregdtor                                       D:\CODEX\Dev-Cpp\TDM-GCC3264\x86_64-w64-mingw32\lib/libmingw32.a(lib64_libmingw32_a-tlssup.o)
__trailz_D2A                                      D:\CODEX\Dev-Cpp\TDM-GCC3264\x86_64-w64-mingw32\lib/libmingwex.a(lib64_libmingwex_a-gmisc.o)
                                                  D:\CODEX\Dev-Cpp\TDM-GCC3264\x86_64-w64-mingw32\lib/libmingwex.a(lib64_libmingwex_a-gdtoa.o)
__xc_a                                            D:\CODEX\Dev-Cpp\TDM-GCC3264\x86_64-w64-mingw32\lib/libmingw32.a(lib64_libmingw32_a-cinitexe.o)
                                                  D:/CODEX/Dev-Cpp/TDM-GCC3264/bin/../lib/gcc/x86_64-w64-mingw32/10.3.0/../../../../x86_64-w64-mingw32/lib/../lib/crt2.o
__xc_z                                            D:\CODEX\Dev-Cpp\TDM-GCC3264\x86_64-w64-mingw32\lib/libmingw32.a(lib64_libmingw32_a-cinitexe.o)
                                                  D:/CODEX/Dev-Cpp/TDM-GCC3264/bin/../lib/gcc/x86_64-w64-mingw32/10.3.0/../../../../x86_64-w64-mingw32/lib/../lib/crt2.o
__xi_a                                            D:\CODEX\Dev-Cpp\TDM-GCC3264\x86_64-w64-mingw32\lib/libmingw32.a(lib64_libmingw32_a-cinitexe.o)
                                                  D:/CODEX/Dev-Cpp/TDM-GCC3264/bin/../lib/gcc/x86_64-w64-mingw32/10.3.0/../../../../x86_64-w64-mingw32/lib/../lib/crt2.o
__xi_z                                            D:\CODEX\Dev-Cpp\TDM-GCC3264\x86_64-w64-mingw32\lib/libmingw32.a(lib64_libmingw32_a-cinitexe.o)
                                                  D:/CODEX/Dev-Cpp/TDM-GCC3264/bin/../lib/gcc/x86_64-w64-mingw32/10.3.0/../../../../x86_64-w64-mingw32/lib/../lib/crt2.o
__xl_a                                            D:\CODEX\Dev-Cpp\TDM-GCC3264\x86_64-w64-mingw32\lib/libmingw32.a(lib64_libmingw32_a-tlssup.o)
__xl_c                                            D:\CODEX\Dev-Cpp\TDM-GCC3264\x86_64-w64-mingw32\lib/libmingw32.a(lib64_libmingw32_a-tlssup.o)
__xl_d                                            D:\CODEX\Dev-Cpp\TDM-GCC3264\x86_64-w64-mingw32\lib/libmingw32.a(lib64_libmingw32_a-tlssup.o)
__xl_f                                            D:\CODEX\Dev-Cpp\TDM-GCC3264\x86_64-w64-mingw32\lib/libpthread.a(libwinpthread_la-thread.o)
__xl_z                                            D:\CODEX\Dev-Cpp\TDM-GCC3264\x86_64-w64-mingw32\lib/libmingw32.a(lib64_libmingw32_a-tlssup.o)
_amsg_exit                                        D:\CODEX\Dev-Cpp\TDM-GCC3264\x86_64-w64-mingw32\lib/libmsvcrt.a(dcfxs00123.o)
                                                  D:/CODEX/Dev-Cpp/TDM-GCC3264/bin/../lib/gcc/x86_64-w64-mingw32/10.3.0/../../../../x86_64-w64-mingw32/lib/../lib/crt2.o
_beginthreadex                                    D:\CODEX\Dev-Cpp\TDM-GCC3264\x86_64-w64-mingw32\lib/libmsvcrt.a(dcfxs00137.o)
_cexit                                            D:\CODEX\Dev-Cpp\TDM-GCC3264\x86_64-w64-mingw32\lib/libmsvcrt.a(dcfxs00141.o)
                                                  D:/CODEX/Dev-Cpp/TDM-GCC3264/bin/../lib/gcc/x86_64-w64-mingw32/10.3.0/../../../../x86_64-w64-mingw32/lib/../lib/crt2.o
_charmax                                          D:\CODEX\Dev-Cpp\TDM-GCC3264\x86_64-w64-mingw32\lib/libmingw32.a(lib64_libmingw32_a-charmax.o)
_commode                                          D:\CODEX\Dev-Cpp\TDM-GCC3264\x86_64-w64-mingw32\lib/libmingw32.a(lib64_libmingw32_a-xncommod.o)
                                                  D:/CODEX/Dev-Cpp/TDM-GCC3264/bin/../lib/gcc/x86_64-w64-mingw32/10.3.0/../../../../x86_64-w64-mingw32/lib/../lib/crt2.o
_dowildcard                                       D:\CODEX\Dev-Cpp\TDM-GCC3264\x86_64-w64-mingw32\lib/libmingw32.a(lib64_libmingw32_a-wildcard.o)
                                                  D:/CODEX/Dev-Cpp/TDM-GCC3264/bin/../lib/gcc/x86_64-w64-mingw32/10.3.0/../../../../x86_64-w64-mingw32/lib/../lib/crt2.o
_endthreadex                                      D:\CODEX\Dev-Cpp\TDM-GCC3264\x86_64-w64-mingw32\lib/libmsvcrt.a(dcfxs00201.o)
_errno                                            D:\CODEX\Dev-Cpp\TDM-GCC3264\x86_64-w64-mingw32\lib/libmsvcrt.a(dcfxs00204.o)
                                                  D:\CODEX\Dev-Cpp\TDM-GCC3264\x86_64-w64-mingw32\lib/libmsvcrt.a(lib64_libmsvcrt_os_a-wcrtomb.o)
                                                  D:\CODEX\Dev-Cpp\TDM-GCC3264\x86_64-w64-mingw32\lib/libmsvcrt.a(lib64_libmsvcrt_os_a-mbrtowc.o)
                                                  D:\CODEX\Dev-Cpp\TDM-GCC3264\x86_64-w64-mingw32\lib/libmingwex.a(lib64_libmingwex_a-mingw_pformatw.o)
                                                  D:\CODEX\Dev-Cpp\TDM-GCC3264\x86_64-w64-mingw32\lib/libmingwex.a(lib64_libmingwex_a-mingw_pformat.o)
_fmode                                            D:\CODEX\Dev-Cpp\TDM-GCC3264\x86_64-w64-mingw32\lib/libmingw32.a(lib64_libmingw32_a-xtxtmode.o)
                                                  D:/CODEX/Dev-Cpp/TDM-GCC3264/bin/../lib/gcc/x86_64-w64-mingw32/10.3.0/../../../../x86_64-w64-mingw32/lib/../lib/crt2.o
_fpreset                                          D:\CODEX\Dev-Cpp\TDM-GCC3264\x86_64-w64-mingw32\lib/libmingw32.a(lib64_libmingw32_a-CRT_fp10.o)
                                                  D:\CODEX\Dev-Cpp\TDM-GCC3264\x86_64-w64-mingw32\lib/libpthread.a(libwinpthread_la-thread.o)
                                                  D:\CODEX\Dev-Cpp\TDM-GCC3264\x86_64-w64-mingw32\lib/libmingw32.a(lib64_libmingw32_a-tlsthrd.o)
                                                  D:\CODEX\Dev-Cpp\TDM-GCC3264\x86_64-w64-mingw32\lib/libmingw32.a(lib64_libmingw32_a-crt_handler.o)
                                                  D:/CODEX/Dev-Cpp/TDM-GCC3264/bin/../lib/gcc/x86_64-w64-mingw32/10.3.0/../../../../x86_64-w64-mingw32/lib/../lib/crt2.o
_get_invalid_parameter_handler                    D:\CODEX\Dev-Cpp\TDM-GCC3264\x86_64-w64-mingw32\lib/libmsvcrt.a(lib64_libmsvcrt_os_a-invalid_parameter_handler.o)
_gnu_exception_handler                            D:\CODEX\Dev-Cpp\TDM-GCC3264\x86_64-w64-mingw32\lib/libmingw32.a(lib64_libmingw32_a-crt_handler.o)
                                                  D:\CODEX\Dev-Cpp\TDM-GCC3264\x86_64-w64-mingw32\lib/libpthread.a(libwinpthread_la-thread.o)
                                                  D:/CODEX/Dev-Cpp/TDM-GCC3264/bin/../lib/gcc/x86_64-w64-mingw32/10.3.0/../../../../x86_64-w64-mingw32/lib/../lib/crt2.o
_head_lib64_libkernel32_a                         D:\CODEX\Dev-Cpp\TDM-GCC3264\x86_64-w64-mingw32\lib/libkernel32.a(dwdrh.o)
                                                  D:\CODEX\Dev-Cpp\TDM-GCC3264\x86_64-w64-mingw32\lib/libkernel32.a(dwdrs00918.o)
                                                  D:\CODEX\Dev-Cpp\TDM-GCC3264\x86_64-w64-mingw32\lib/libkernel32.a(dwdrs01035.o)
                                                  D:\CODEX\Dev-Cpp\TDM-GCC3264\x86_64-w64-mingw32\lib/libkernel32.a(dwdrs01546.o)
                                                  D:\CODEX\Dev-Cpp\TDM-GCC3264\x86_64-w64-mingw32\lib/libkernel32.a(dwdrs00004.o)
                                                  D:\CODEX\Dev-Cpp\TDM-GCC3264\x86_64-w64-mingw32\lib/libkernel32.a(dwdrs00019.o)
                                                  D:\CODEX\Dev-Cpp\TDM-GCC3264\x86_64-w64-mingw32\lib/libkernel32.a(dwdrs00140.o)
                                                  D:\CODEX\Dev-Cpp\TDM-GCC3264\x86_64-w64-mingw32\lib/libkernel32.a(dwdrs00196.o)
                                                  D:\CODEX\Dev-Cpp\TDM-GCC3264\x86_64-w64-mingw32\lib/libkernel32.a(dwdrs00223.o)
                                                  D:\CODEX\Dev-Cpp\TDM-GCC3264\x86_64-w64-mingw32\lib/libkernel32.a(dwdrs00242.o)
                                                  D:\CODEX\Dev-Cpp\TDM-GCC3264\x86_64-w64-mingw32\lib/libkernel32.a(dwdrs00280.o)
                                                  D:\CODEX\Dev-Cpp\TDM-GCC3264\x86_64-w64-mingw32\lib/libkernel32.a(dwdrs00282.o)
                                                  D:\CODEX\Dev-Cpp\TDM-GCC3264\x86_64-w64-mingw32\lib/libkernel32.a(dwdrs00312.o)
                                                  D:\CODEX\Dev-Cpp\TDM-GCC3264\x86_64-w64-mingw32\lib/libkernel32.a(dwdrs00318.o)
                                                  D:\CODEX\Dev-Cpp\TDM-GCC3264\x86_64-w64-mingw32\lib/libkernel32.a(dwdrs00386.o)
                                                  D:\CODEX\Dev-Cpp\TDM-GCC3264\x86_64-w64-mingw32\lib/libkernel32.a(dwdrs00437.o)
                                                  D:\CODEX\Dev-Cpp\TDM-GCC3264\x86_64-w64-mingw32\lib/libkernel32.a(dwdrs00459.o)
                                                  D:\CODEX\Dev-Cpp\TDM-GCC3264\x86_64-w64-mingw32\lib/libkernel32.a(dwdrs00551.o)
                                                  D:\CODEX\Dev-Cpp\TDM-GCC3264\x86_64-w64-mingw32\lib/libkernel32.a(dwdrs00552.o)
                                                  D:\CODEX\Dev-Cpp\TDM-GCC3264\x86_64-w64-mingw32\lib/libkernel32.a(dwdrs00555.o)
                                                  D:\CODEX\Dev-Cpp\TDM-GCC3264\x86_64-w64-mingw32\lib/libkernel32.a(dwdrs00556.o)
                                                  D:\CODEX\Dev-Cpp\TDM-GCC3264\x86_64-w64-mingw32\lib/libkernel32.a(dwdrs00626.o)
                                                  D:\CODEX\Dev-Cpp\TDM-GCC3264\x86_64-w64-mingw32\lib/libkernel32.a(dwdrs00629.o)
                                                  D:\CODEX\Dev-Cpp\TDM-GCC3264\x86_64-w64-mingw32\lib/libkernel32.a(dwdrs00710.o)
                                                  D:\CODEX\Dev-Cpp\TDM-GCC3264\x86_64-w64-mingw32\lib/libkernel32.a(dwdrs00768.o)
                                                  D:\CODEX\Dev-Cpp\TDM-GCC3264\x86_64-w64-mingw32\lib/libkernel32.a(dwdrs00782.o)
                                                  D:\CODEX\Dev-Cpp\TDM-GCC3264\x86_64-w64-mingw32\lib/libkernel32.a(dwdrs00792.o)
                                                  D:\CODEX\Dev-Cpp\TDM-GCC3264\x86_64-w64-mingw32\lib/libkernel32.a(dwdrs00798.o)
                                                  D:\CODEX\Dev-Cpp\TDM-GCC3264\x86_64-w64-mingw32\lib/libkernel32.a(dwdrs00891.o)
                                                  D:\CODEX\Dev-Cpp\TDM-GCC3264\x86_64-w64-mingw32\lib/libkernel32.a(dwdrs00919.o)
                                                  D:\CODEX\Dev-Cpp\TDM-GCC3264\x86_64-w64-mingw32\lib/libkernel32.a(dwdrs00983.o)
                                                  D:\CODEX\Dev-Cpp\TDM-GCC3264\x86_64-w64-mingw32\lib/libkernel32.a(dwdrs01001.o)
                                                  D:\CODEX\Dev-Cpp\TDM-GCC3264\x86_64-w64-mingw32\lib/libkernel32.a(dwdrs01068.o)
                                                  D:\CODEX\Dev-Cpp\TDM-GCC3264\x86_64-w64-mingw32\lib/libkernel32.a(dwdrs01077.o)
                                                  D:\CODEX\Dev-Cpp\TDM-GCC3264\x86_64-w64-mingw32\lib/libkernel32.a(dwdrs01130.o)
                                                  D:\CODEX\Dev-Cpp\TDM-GCC3264\x86_64-w64-mingw32\lib/libkernel32.a(dwdrs01131.o)
                                                  D:\CODEX\Dev-Cpp\TDM-GCC3264\x86_64-w64-mingw32\lib/libkernel32.a(dwdrs01152.o)
                                                  D:\CODEX\Dev-Cpp\TDM-GCC3264\x86_64-w64-mingw32\lib/libkernel32.a(dwdrs01191.o)
                                                  D:\CODEX\Dev-Cpp\TDM-GCC3264\x86_64-w64-mingw32\lib/libkernel32.a(dwdrs01195.o)
                                                  D:\CODEX\Dev-Cpp\TDM-GCC3264\x86_64-w64-mingw32\lib/libkernel32.a(dwdrs01206.o)
                                                  D:\CODEX\Dev-Cpp\TDM-GCC3264\x86_64-w64-mingw32\lib/libkernel32.a(dwdrs01213.o)
                                                  D:\CODEX\Dev-Cpp\TDM-GCC3264\x86_64-w64-mingw32\lib/libkernel32.a(dwdrs01220.o)
                                                  D:\CODEX\Dev-Cpp\TDM-GCC3264\x86_64-w64-mingw32\lib/libkernel32.a(dwdrs01305.o)
                                                  D:\CODEX\Dev-Cpp\TDM-GCC3264\x86_64-w64-mingw32\lib/libkernel32.a(dwdrs01333.o)
                                                  D:\CODEX\Dev-Cpp\TDM-GCC3264\x86_64-w64-mingw32\lib/libkernel32.a(dwdrs01344.o)
                                                  D:\CODEX\Dev-Cpp\TDM-GCC3264\x86_64-w64-mingw32\lib/libkernel32.a(dwdrs01367.o)
                                                  D:\CODEX\Dev-Cpp\TDM-GCC3264\x86_64-w64-mingw32\lib/libkernel32.a(dwdrs01377.o)
                                                  D:\CODEX\Dev-Cpp\TDM-GCC3264\x86_64-w64-mingw32\lib/libkernel32.a(dwdrs01417.o)
                                                  D:\CODEX\Dev-Cpp\TDM-GCC3264\x86_64-w64-mingw32\lib/libkernel32.a(dwdrs01442.o)
                                                  D:\CODEX\Dev-Cpp\TDM-GCC3264\x86_64-w64-mingw32\lib/libkernel32.a(dwdrs01444.o)
                                                  D:\CODEX\Dev-Cpp\TDM-GCC3264\x86_64-w64-mingw32\lib/libkernel32.a(dwdrs01445.o)
                                                  D:\CODEX\Dev-Cpp\TDM-GCC3264\x86_64-w64-mingw32\lib/libkernel32.a(dwdrs01451.o)
                                                  D:\CODEX\Dev-Cpp\TDM-GCC3264\x86_64-w64-mingw32\lib/libkernel32.a(dwdrs01491.o)
                                                  D:\CODEX\Dev-Cpp\TDM-GCC3264\x86_64-w64-mingw32\lib/libkernel32.a(dwdrs01493.o)
                                                  D:\CODEX\Dev-Cpp\TDM-GCC3264\x86_64-w64-mingw32\lib/libkernel32.a(dwdrs01500.o)
                                                  D:\CODEX\Dev-Cpp\TDM-GCC3264\x86_64-w64-mingw32\lib/libkernel32.a(dwdrs01502.o)
                                                  D:\CODEX\Dev-Cpp\TDM-GCC3264\x86_64-w64-mingw32\lib/libkernel32.a(dwdrs00238.o)
                                                  D:\CODEX\Dev-Cpp\TDM-GCC3264\x86_64-w64-mingw32\lib/libkernel32.a(dwdrs00649.o)
                                                  D:\CODEX\Dev-Cpp\TDM-GCC3264\x86_64-w64-mingw32\lib/libkernel32.a(dwdrs00742.o)
                                                  D:\CODEX\Dev-Cpp\TDM-GCC3264\x86_64-w64-mingw32\lib/libkernel32.a(dwdrs01393.o)
                                                  D:\CODEX\Dev-Cpp\TDM-GCC3264\x86_64-w64-mingw32\lib/libkernel32.a(dwdrs01409.o)
                                                  D:\CODEX\Dev-Cpp\TDM-GCC3264\x86_64-w64-mingw32\lib/libkernel32.a(dwdrs01583.o)
_head_lib64_libmsvcrt_os_a                        D:\CODEX\Dev-Cpp\TDM-GCC3264\x86_64-w64-mingw32\lib/libmsvcrt.a(dcfxh.o)
                                                  D:\CODEX\Dev-Cpp\TDM-GCC3264\x86_64-w64-mingw32\lib/libmsvcrt.a(dcfxs01163.o)
                                                  D:\CODEX\Dev-Cpp\TDM-GCC3264\x86_64-w64-mingw32\lib/libmsvcrt.a(dcfxs00157.o)
                                                  D:\CODEX\Dev-Cpp\TDM-GCC3264\x86_64-w64-mingw32\lib/libmsvcrt.a(dcfxs00254.o)
                                                  D:\CODEX\Dev-Cpp\TDM-GCC3264\x86_64-w64-mingw32\lib/libmsvcrt.a(dcfxs00063.o)
                                                  D:\CODEX\Dev-Cpp\TDM-GCC3264\x86_64-w64-mingw32\lib/libmsvcrt.a(dcfxs00066.o)
                                                  D:\CODEX\Dev-Cpp\TDM-GCC3264\x86_64-w64-mingw32\lib/libmsvcrt.a(dcfxs00083.o)
                                                  D:\CODEX\Dev-Cpp\TDM-GCC3264\x86_64-w64-mingw32\lib/libmsvcrt.a(dcfxs00116.o)
                                                  D:\CODEX\Dev-Cpp\TDM-GCC3264\x86_64-w64-mingw32\lib/libmsvcrt.a(dcfxs00443.o)
                                                  D:\CODEX\Dev-Cpp\TDM-GCC3264\x86_64-w64-mingw32\lib/libmsvcrt.a(dcfxs00821.o)
                                                  D:\CODEX\Dev-Cpp\TDM-GCC3264\x86_64-w64-mingw32\lib/libmsvcrt.a(dcfxs00081.o)
                                                  D:\CODEX\Dev-Cpp\TDM-GCC3264\x86_64-w64-mingw32\lib/libmsvcrt.a(dcfxs00082.o)
                                                  D:\CODEX\Dev-Cpp\TDM-GCC3264\x86_64-w64-mingw32\lib/libmsvcrt.a(dcfxs00091.o)
                                                  D:\CODEX\Dev-Cpp\TDM-GCC3264\x86_64-w64-mingw32\lib/libmsvcrt.a(dcfxs00097.o)
                                                  D:\CODEX\Dev-Cpp\TDM-GCC3264\x86_64-w64-mingw32\lib/libmsvcrt.a(dcfxs00099.o)
                                                  D:\CODEX\Dev-Cpp\TDM-GCC3264\x86_64-w64-mingw32\lib/libmsvcrt.a(dcfxs00123.o)
                                                  D:\CODEX\Dev-Cpp\TDM-GCC3264\x86_64-w64-mingw32\lib/libmsvcrt.a(dcfxs00137.o)
                                                  D:\CODEX\Dev-Cpp\TDM-GCC3264\x86_64-w64-mingw32\lib/libmsvcrt.a(dcfxs00141.o)
                                                  D:\CODEX\Dev-Cpp\TDM-GCC3264\x86_64-w64-mingw32\lib/libmsvcrt.a(dcfxs00201.o)
                                                  D:\CODEX\Dev-Cpp\TDM-GCC3264\x86_64-w64-mingw32\lib/libmsvcrt.a(dcfxs00204.o)
                                                  D:\CODEX\Dev-Cpp\TDM-GCC3264\x86_64-w64-mingw32\lib/libmsvcrt.a(dcfxs00332.o)
                                                  D:\CODEX\Dev-Cpp\TDM-GCC3264\x86_64-w64-mingw32\lib/libmsvcrt.a(dcfxs00602.o)
                                                  D:\CODEX\Dev-Cpp\TDM-GCC3264\x86_64-w64-mingw32\lib/libmsvcrt.a(dcfxs00615.o)
                                                  D:\CODEX\Dev-Cpp\TDM-GCC3264\x86_64-w64-mingw32\lib/libmsvcrt.a(dcfxs00672.o)
                                                  D:\CODEX\Dev-Cpp\TDM-GCC3264\x86_64-w64-mingw32\lib/libmsvcrt.a(dcfxs00734.o)
                                                  D:\CODEX\Dev-Cpp\TDM-GCC3264\x86_64-w64-mingw32\lib/libmsvcrt.a(dcfxs00809.o)
                                                  D:\CODEX\Dev-Cpp\TDM-GCC3264\x86_64-w64-mingw32\lib/libmsvcrt.a(dcfxs00991.o)
                                                  D:\CODEX\Dev-Cpp\TDM-GCC3264\x86_64-w64-mingw32\lib/libmsvcrt.a(dcfxs01037.o)
                                                  D:\CODEX\Dev-Cpp\TDM-GCC3264\x86_64-w64-mingw32\lib/libmsvcrt.a(dcfxs01054.o)
                                                  D:\CODEX\Dev-Cpp\TDM-GCC3264\x86_64-w64-mingw32\lib/libmsvcrt.a(dcfxs01068.o)
                                                  D:\CODEX\Dev-Cpp\TDM-GCC3264\x86_64-w64-mingw32\lib/libmsvcrt.a(dcfxs01090.o)
                                                  D:\CODEX\Dev-Cpp\TDM-GCC3264\x86_64-w64-mingw32\lib/libmsvcrt.a(dcfxs01092.o)
                                                  D:\CODEX\Dev-Cpp\TDM-GCC3264\x86_64-w64-mingw32\lib/libmsvcrt.a(dcfxs01093.o)
                                                  D:\CODEX\Dev-Cpp\TDM-GCC3264\x86_64-w64-mingw32\lib/libmsvcrt.a(dcfxs01094.o)
                                                  D:\CODEX\Dev-Cpp\TDM-GCC3264\x86_64-w64-mingw32\lib/libmsvcrt.a(dcfxs01097.o)
                                                  D:\CODEX\Dev-Cpp\TDM-GCC3264\x86_64-w64-mingw32\lib/libmsvcrt.a(dcfxs01106.o)
                                                  D:\CODEX\Dev-Cpp\TDM-GCC3264\x86_64-w64-mingw32\lib/libmsvcrt.a(dcfxs01109.o)
                                                  D:\CODEX\Dev-Cpp\TDM-GCC3264\x86_64-w64-mingw32\lib/libmsvcrt.a(dcfxs01149.o)
                                                  D:\CODEX\Dev-Cpp\TDM-GCC3264\x86_64-w64-mingw32\lib/libmsvcrt.a(dcfxs01155.o)
                                                  D:\CODEX\Dev-Cpp\TDM-GCC3264\x86_64-w64-mingw32\lib/libmsvcrt.a(dcfxs01156.o)
                                                  D:\CODEX\Dev-Cpp\TDM-GCC3264\x86_64-w64-mingw32\lib/libmsvcrt.a(dcfxs01164.o)
                                                  D:\CODEX\Dev-Cpp\TDM-GCC3264\x86_64-w64-mingw32\lib/libmsvcrt.a(dcfxs01165.o)
                                                  D:\CODEX\Dev-Cpp\TDM-GCC3264\x86_64-w64-mingw32\lib/libmsvcrt.a(dcfxs01166.o)
                                                  D:\CODEX\Dev-Cpp\TDM-GCC3264\x86_64-w64-mingw32\lib/libmsvcrt.a(dcfxs01174.o)
                                                  D:\CODEX\Dev-Cpp\TDM-GCC3264\x86_64-w64-mingw32\lib/libmsvcrt.a(dcfxs01187.o)
                                                  D:\CODEX\Dev-Cpp\TDM-GCC3264\x86_64-w64-mingw32\lib/libmsvcrt.a(dcfxs01196.o)
                                                  D:\CODEX\Dev-Cpp\TDM-GCC3264\x86_64-w64-mingw32\lib/libmsvcrt.a(dcfxs01212.o)
                                                  D:\CODEX\Dev-Cpp\TDM-GCC3264\x86_64-w64-mingw32\lib/libmsvcrt.a(dcfxs01217.o)
                                                  D:\CODEX\Dev-Cpp\TDM-GCC3264\x86_64-w64-mingw32\lib/libmsvcrt.a(dcfxs01219.o)
                                                  D:\CODEX\Dev-Cpp\TDM-GCC3264\x86_64-w64-mingw32\lib/libmsvcrt.a(dcfxs01222.o)
                                                  D:\CODEX\Dev-Cpp\TDM-GCC3264\x86_64-w64-mingw32\lib/libmsvcrt.a(dcfxs01258.o)
                                                  D:\CODEX\Dev-Cpp\TDM-GCC3264\x86_64-w64-mingw32\lib/libmsvcrt.a(dcfxs01283.o)
_head_lib64_libuser32_a                           D:\CODEX\Dev-Cpp\TDM-GCC3264\x86_64-w64-mingw32\lib/libuser32.a(dcjzh.o)
                                                  D:\CODEX\Dev-Cpp\TDM-GCC3264\x86_64-w64-mingw32\lib/libuser32.a(dcjzs00619.o)
_head_libgcc_s_seh_64_1_dll                       D:/CODEX/Dev-Cpp/TDM-GCC3264/bin/../lib/gcc/x86_64-w64-mingw32/10.3.0/libgcc_s.a(d000000.o)
                                                  D:/CODEX/Dev-Cpp/TDM-GCC3264/bin/../lib/gcc/x86_64-w64-mingw32/10.3.0/libgcc_s.a(d000001.o)
                                                  D:/CODEX/Dev-Cpp/TDM-GCC3264/bin/../lib/gcc/x86_64-w64-mingw32/10.3.0/libgcc_s.a(d000003.o)
                                                  D:/CODEX/Dev-Cpp/TDM-GCC3264/bin/../lib/gcc/x86_64-w64-mingw32/10.3.0/libgcc_s.a(d000007.o)
                                                  D:/CODEX/Dev-Cpp/TDM-GCC3264/bin/../lib/gcc/x86_64-w64-mingw32/10.3.0/libgcc_s.a(d000010.o)
                                                  D:/CODEX/Dev-Cpp/TDM-GCC3264/bin/../lib/gcc/x86_64-w64-mingw32/10.3.0/libgcc_s.a(d000011.o)
                                                  D:/CODEX/Dev-Cpp/TDM-GCC3264/bin/../lib/gcc/x86_64-w64-mingw32/10.3.0/libgcc_s.a(d000012.o)
                                                  D:/CODEX/Dev-Cpp/TDM-GCC3264/bin/../lib/gcc/x86_64-w64-mingw32/10.3.0/libgcc_s.a(d000013.o)
                                                  D:/CODEX/Dev-Cpp/TDM-GCC3264/bin/../lib/gcc/x86_64-w64-mingw32/10.3.0/libgcc_s.a(d000014.o)
                                                  D:/CODEX/Dev-Cpp/TDM-GCC3264/bin/../lib/gcc/x86_64-w64-mingw32/10.3.0/libgcc_s.a(d000015.o)
                                                  D:/CODEX/Dev-Cpp/TDM-GCC3264/bin/../lib/gcc/x86_64-w64-mingw32/10.3.0/libgcc_s.a(d000016.o)
                                                  D:/CODEX/Dev-Cpp/TDM-GCC3264/bin/../lib/gcc/x86_64-w64-mingw32/10.3.0/libgcc_s.a(d000017.o)
                                                  D:/CODEX/Dev-Cpp/TDM-GCC3264/bin/../lib/gcc/x86_64-w64-mingw32/10.3.0/libgcc_s.a(d000018.o)
_initterm                                         D:\CODEX\Dev-Cpp\TDM-GCC3264\x86_64-w64-mingw32\lib/libmsvcrt.a(dcfxs00332.o)
                                                  D:/CODEX/Dev-Cpp/TDM-GCC3264/bin/../lib/gcc/x86_64-w64-mingw32/10.3.0/../../../../x86_64-w64-mingw32/lib/../lib/crt2.o
_lock                                             D:\CODEX\Dev-Cpp\TDM-GCC3264\x86_64-w64-mingw32\lib/libmsvcrt.a(dcfxs00443.o)
                                                  D:\CODEX\Dev-Cpp\TDM-GCC3264\x86_64-w64-mingw32\lib/libmsvcrt.a(lib64_libmsvcrt_os_a-mingw_lock.o)
_lock_file                                        D:\CODEX\Dev-Cpp\TDM-GCC3264\x86_64-w64-mingw32\lib/libmsvcrt.a(lib64_libmsvcrt_os_a-mingw_lock.o)
                                                  D:\CODEX\Dev-Cpp\TDM-GCC3264\x86_64-w64-mingw32\lib/libmingwex.a(lib64_libmingwex_a-mingw_vfprintfw.o)
_matherr                                          D:\CODEX\Dev-Cpp\TDM-GCC3264\x86_64-w64-mingw32\lib/libmingw32.a(lib64_libmingw32_a-merr.o)
                                                  D:/CODEX/Dev-Cpp/TDM-GCC3264/bin/../lib/gcc/x86_64-w64-mingw32/10.3.0/../../../../x86_64-w64-mingw32/lib/../lib/crt2.o
_newmode                                          D:\CODEX\Dev-Cpp\TDM-GCC3264\x86_64-w64-mingw32\lib/libmingw32.a(lib64_libmingw32_a-_newmode.o)
                                                  D:/CODEX/Dev-Cpp/TDM-GCC3264/bin/../lib/gcc/x86_64-w64-mingw32/10.3.0/../../../../x86_64-w64-mingw32/lib/../lib/crt2.o
_onexit                                           D:\CODEX\Dev-Cpp\TDM-GCC3264\x86_64-w64-mingw32\lib/libmsvcrt.a(dcfxs00615.o)
                                                  D:\CODEX\Dev-Cpp\TDM-GCC3264\x86_64-w64-mingw32\lib/libpthread.a(libwinpthread_la-shmem3_mingw.o)
                                                  D:/CODEX/Dev-Cpp/TDM-GCC3264/bin/../lib/gcc/x86_64-w64-mingw32/10.3.0/libgcc.a(eh_shmem3_mingw.o)
                                                  D:/CODEX/Dev-Cpp/TDM-GCC3264/bin/../lib/gcc/x86_64-w64-mingw32/10.3.0/../../../../x86_64-w64-mingw32/lib/../lib/crt2.o
_pei386_runtime_relocator                         D:\CODEX\Dev-Cpp\TDM-GCC3264\x86_64-w64-mingw32\lib/libmingw32.a(lib64_libmingw32_a-pseudo-reloc.o)
                                                  D:/CODEX/Dev-Cpp/TDM-GCC3264/bin/../lib/gcc/x86_64-w64-mingw32/10.3.0/../../../../x86_64-w64-mingw32/lib/../lib/crt2.o
_pthread_cleanup_dest                             D:\CODEX\Dev-Cpp\TDM-GCC3264\x86_64-w64-mingw32\lib/libpthread.a(libwinpthread_la-thread.o)
_pthread_get_state                                D:\CODEX\Dev-Cpp\TDM-GCC3264\x86_64-w64-mingw32\lib/libpthread.a(libwinpthread_la-thread.o)
_pthread_invoke_cancel                            D:\CODEX\Dev-Cpp\TDM-GCC3264\x86_64-w64-mingw32\lib/libpthread.a(libwinpthread_la-thread.o)
_pthread_rel_time_in_ms                           D:\CODEX\Dev-Cpp\TDM-GCC3264\x86_64-w64-mingw32\lib/libpthread.a(libwinpthread_la-misc.o)
                                                  D:\CODEX\Dev-Cpp\TDM-GCC3264\x86_64-w64-mingw32\lib/libpthread.a(libwinpthread_la-cond.o)
_pthread_set_state                                D:\CODEX\Dev-Cpp\TDM-GCC3264\x86_64-w64-mingw32\lib/libpthread.a(libwinpthread_la-thread.o)
_pthread_setnobreak                               D:\CODEX\Dev-Cpp\TDM-GCC3264\x86_64-w64-mingw32\lib/libpthread.a(libwinpthread_la-thread.o)
_pthread_time_in_ms                               D:\CODEX\Dev-Cpp\TDM-GCC3264\x86_64-w64-mingw32\lib/libpthread.a(libwinpthread_la-misc.o)
                                                  D:\CODEX\Dev-Cpp\TDM-GCC3264\x86_64-w64-mingw32\lib/libpthread.a(libwinpthread_la-cond.o)
                                                  D:\CODEX\Dev-Cpp\TDM-GCC3264\x86_64-w64-mingw32\lib/libpthread.a(libwinpthread_la-mutex.o)
_pthread_time_in_ms_from_timespec                 D:\CODEX\Dev-Cpp\TDM-GCC3264\x86_64-w64-mingw32\lib/libpthread.a(libwinpthread_la-misc.o)
                                                  D:\CODEX\Dev-Cpp\TDM-GCC3264\x86_64-w64-mingw32\lib/libpthread.a(libwinpthread_la-cond.o)
                                                  D:\CODEX\Dev-Cpp\TDM-GCC3264\x86_64-w64-mingw32\lib/libpthread.a(libwinpthread_la-thread.o)
                                                  D:\CODEX\Dev-Cpp\TDM-GCC3264\x86_64-w64-mingw32\lib/libpthread.a(libwinpthread_la-mutex.o)
_pthread_tryjoin                                  D:\CODEX\Dev-Cpp\TDM-GCC3264\x86_64-w64-mingw32\lib/libpthread.a(libwinpthread_la-thread.o)
_pthread_wait_for_multiple_objects                D:\CODEX\Dev-Cpp\TDM-GCC3264\x86_64-w64-mingw32\lib/libpthread.a(libwinpthread_la-misc.o)
                                                  D:\CODEX\Dev-Cpp\TDM-GCC3264\x86_64-w64-mingw32\lib/libpthread.a(libwinpthread_la-cond.o)
_pthread_wait_for_single_object                   D:\CODEX\Dev-Cpp\TDM-GCC3264\x86_64-w64-mingw32\lib/libpthread.a(libwinpthread_la-misc.o)
                                                  D:\CODEX\Dev-Cpp\TDM-GCC3264\x86_64-w64-mingw32\lib/libpthread.a(libwinpthread_la-cond.o)
                                                  D:\CODEX\Dev-Cpp\TDM-GCC3264\x86_64-w64-mingw32\lib/libpthread.a(libwinpthread_la-thread.o)
                                                  D:\CODEX\Dev-Cpp\TDM-GCC3264\x86_64-w64-mingw32\lib/libpthread.a(libwinpthread_la-mutex.o)
_set_invalid_parameter_handler                    D:\CODEX\Dev-Cpp\TDM-GCC3264\x86_64-w64-mingw32\lib/libmsvcrt.a(lib64_libmsvcrt_os_a-invalid_parameter_handler.o)
                                                  D:/CODEX/Dev-Cpp/TDM-GCC3264/bin/../lib/gcc/x86_64-w64-mingw32/10.3.0/../../../../x86_64-w64-mingw32/lib/../lib/crt2.o
_setargv                                          D:\CODEX\Dev-Cpp\TDM-GCC3264\x86_64-w64-mingw32\lib/libmingw32.a(lib64_libmingw32_a-dllargv.o)
                                                  D:/CODEX/Dev-Cpp/TDM-GCC3264/bin/../lib/gcc/x86_64-w64-mingw32/10.3.0/../../../../x86_64-w64-mingw32/lib/../lib/crt2.o
_setjmp                                           D:\CODEX\Dev-Cpp\TDM-GCC3264\x86_64-w64-mingw32\lib/libmsvcrt.a(dcfxs00672.o)
                                                  D:\CODEX\Dev-Cpp\TDM-GCC3264\x86_64-w64-mingw32\lib/libpthread.a(libwinpthread_la-thread.o)
_tls_end                                          D:\CODEX\Dev-Cpp\TDM-GCC3264\x86_64-w64-mingw32\lib/libmingw32.a(lib64_libmingw32_a-tlssup.o)
_tls_index                                        D:\CODEX\Dev-Cpp\TDM-GCC3264\x86_64-w64-mingw32\lib/libmingw32.a(lib64_libmingw32_a-tlssup.o)
_tls_start                                        D:\CODEX\Dev-Cpp\TDM-GCC3264\x86_64-w64-mingw32\lib/libmingw32.a(lib64_libmingw32_a-tlssup.o)
_tls_used                                         D:\CODEX\Dev-Cpp\TDM-GCC3264\x86_64-w64-mingw32\lib/libmingw32.a(lib64_libmingw32_a-tlssup.o)
_ultoa                                            D:\CODEX\Dev-Cpp\TDM-GCC3264\x86_64-w64-mingw32\lib/libmsvcrt.a(dcfxs00809.o)
_unlock                                           D:\CODEX\Dev-Cpp\TDM-GCC3264\x86_64-w64-mingw32\lib/libmsvcrt.a(dcfxs00821.o)
                                                  D:\CODEX\Dev-Cpp\TDM-GCC3264\x86_64-w64-mingw32\lib/libmsvcrt.a(lib64_libmsvcrt_os_a-mingw_lock.o)
_unlock_file                                      D:\CODEX\Dev-Cpp\TDM-GCC3264\x86_64-w64-mingw32\lib/libmsvcrt.a(lib64_libmsvcrt_os_a-mingw_lock.o)
                                                  D:\CODEX\Dev-Cpp\TDM-GCC3264\x86_64-w64-mingw32\lib/libmingwex.a(lib64_libmingwex_a-mingw_vfprintfw.o)
abort                                             D:\CODEX\Dev-Cpp\TDM-GCC3264\x86_64-w64-mingw32\lib/libmsvcrt.a(dcfxs01037.o)
                                                  D:\CODEX\Dev-Cpp\TDM-GCC3264\x86_64-w64-mingw32\lib/libpthread.a(libwinpthread_la-thread.o)
                                                  D:\CODEX\Dev-Cpp\TDM-GCC3264\x86_64-w64-mingw32\lib/libmingw32.a(lib64_libmingw32_a-pseudo-reloc.o)
                                                  D:/CODEX/Dev-Cpp/TDM-GCC3264/bin/../lib/gcc/x86_64-w64-mingw32/10.3.0\libstdc++.a(vterminate.o)
                                                  D:/CODEX/Dev-Cpp/TDM-GCC3264/bin/../lib/gcc/x86_64-w64-mingw32/10.3.0\libstdc++.a(eh_terminate.o)
                                                  D:/CODEX/Dev-Cpp/TDM-GCC3264/bin/../lib/gcc/x86_64-w64-mingw32/10.3.0\libstdc++.a(eh_personality.o)
addFF(MATHraw*, unsigned char)                    C:\Users\ARABBI~1\AppData\Local\Temp\ccJboNLv.o (symbol from plugin)
addFI(MATHraw*, unsigned char)                    C:\Users\ARABBI~1\AppData\Local\Temp\ccJboNLv.o (symbol from plugin)
addIF(MATHraw*, unsigned char)                    C:\Users\ARABBI~1\AppData\Local\Temp\ccJboNLv.o (symbol from plugin)
addII(MATHraw*, unsigned char)                    C:\Users\ARABBI~1\AppData\Local\Temp\ccJboNLv.o (symbol from plugin)
andII(MATHraw*, unsigned char)                    C:\Users\ARABBI~1\AppData\Local\Temp\ccJboNLv.o (symbol from plugin)
atexit                                            D:/CODEX/Dev-Cpp/TDM-GCC3264/bin/../lib/gcc/x86_64-w64-mingw32/10.3.0/../../../../x86_64-w64-mingw32/lib/../lib/crt2.o
                                                  D:\CODEX\Dev-Cpp\TDM-GCC3264\x86_64-w64-mingw32\lib/libmingwex.a(lib64_libmingwex_a-misc.o)
                                                  D:\CODEX\Dev-Cpp\TDM-GCC3264\x86_64-w64-mingw32\lib/libmingw32.a(lib64_libmingw32_a-gccmain.o)
                                                  D:/CODEX/Dev-Cpp/TDM-GCC3264/bin/../lib/gcc/x86_64-w64-mingw32/10.3.0\libstdc++.a(eh_globals.o)
                                                  D:/CODEX/Dev-Cpp/TDM-GCC3264/bin/../lib/gcc/x86_64-w64-mingw32/10.3.0\libstdc++.a(eh_alloc.o)
                                                  D:/CODEX/Dev-Cpp/TDM-GCC3264/bin/../lib/gcc/x86_64-w64-mingw32/10.3.0/crtbegin.o
calloc                                            D:\CODEX\Dev-Cpp\TDM-GCC3264\x86_64-w64-mingw32\lib/libmsvcrt.a(dcfxs01054.o)
                                                  D:\CODEX\Dev-Cpp\TDM-GCC3264\x86_64-w64-mingw32\lib/libpthread.a(libwinpthread_la-cond.o)
                                                  D:\CODEX\Dev-Cpp\TDM-GCC3264\x86_64-w64-mingw32\lib/libpthread.a(libwinpthread_la-rwlock.o)
                                                  D:\CODEX\Dev-Cpp\TDM-GCC3264\x86_64-w64-mingw32\lib/libpthread.a(libwinpthread_la-thread.o)
                                                  D:\CODEX\Dev-Cpp\TDM-GCC3264\x86_64-w64-mingw32\lib/libmingw32.a(lib64_libmingw32_a-tlsthrd.o)
cond_print                                        D:\CODEX\Dev-Cpp\TDM-GCC3264\x86_64-w64-mingw32\lib/libpthread.a(libwinpthread_la-cond.o)
cond_print_set                                    D:\CODEX\Dev-Cpp\TDM-GCC3264\x86_64-w64-mingw32\lib/libpthread.a(libwinpthread_la-cond.o)
divFF(MATHraw*, unsigned char)                    C:\Users\ARABBI~1\AppData\Local\Temp\ccJboNLv.o (symbol from plugin)
divFI(MATHraw*, unsigned char)                    C:\Users\ARABBI~1\AppData\Local\Temp\ccJboNLv.o (symbol from plugin)
divIF(MATHraw*, unsigned char)                    C:\Users\ARABBI~1\AppData\Local\Temp\ccJboNLv.o (symbol from plugin)
divII(MATHraw*, unsigned char)                    C:\Users\ARABBI~1\AppData\Local\Temp\ccJboNLv.o (symbol from plugin)
do_sema_b_wait_intern                             D:\CODEX\Dev-Cpp\TDM-GCC3264\x86_64-w64-mingw32\lib/libpthread.a(libwinpthread_la-cond.o)
errW(wchar_t const*)                              C:\Users\ARABBI~1\AppData\Local\Temp\ccJboNLv.o (symbol from plugin)
exit                                              D:\CODEX\Dev-Cpp\TDM-GCC3264\x86_64-w64-mingw32\lib/libmsvcrt.a(dcfxs01068.o)
                                                  C:\Users\ARABBI~1\AppData\Local\Temp\main.exe.6iMB3F.ltrans0.ltrans.o
                                                  D:\CODEX\Dev-Cpp\TDM-GCC3264\x86_64-w64-mingw32\lib/libpthread.a(libwinpthread_la-rwlock.o)
                                                  D:/CODEX/Dev-Cpp/TDM-GCC3264/bin/../lib/gcc/x86_64-w64-mingw32/10.3.0/../../../../x86_64-w64-mingw32/lib/../lib/crt2.o
fpreset                                           D:\CODEX\Dev-Cpp\TDM-GCC3264\x86_64-w64-mingw32\lib/libmingw32.a(lib64_libmingw32_a-CRT_fp10.o)
fprintf                                           D:\CODEX\Dev-Cpp\TDM-GCC3264\x86_64-w64-mingw32\lib/libmsvcrt.a(dcfxs01090.o)
                                                  D:\CODEX\Dev-Cpp\TDM-GCC3264\x86_64-w64-mingw32\lib/libpthread.a(libwinpthread_la-cond.o)
                                                  D:\CODEX\Dev-Cpp\TDM-GCC3264\x86_64-w64-mingw32\lib/libpthread.a(libwinpthread_la-rwlock.o)
                                                  D:\CODEX\Dev-Cpp\TDM-GCC3264\x86_64-w64-mingw32\lib/libpthread.a(libwinpthread_la-thread.o)
                                                  D:\CODEX\Dev-Cpp\TDM-GCC3264\x86_64-w64-mingw32\lib/libmingw32.a(lib64_libmingw32_a-merr.o)
fputc                                             D:\CODEX\Dev-Cpp\TDM-GCC3264\x86_64-w64-mingw32\lib/libmsvcrt.a(dcfxs01092.o)
                                                  D:\CODEX\Dev-Cpp\TDM-GCC3264\x86_64-w64-mingw32\lib/libmingwex.a(lib64_libmingwex_a-mingw_pformat.o)
                                                  D:/CODEX/Dev-Cpp/TDM-GCC3264/bin/../lib/gcc/x86_64-w64-mingw32/10.3.0\libstdc++.a(vterminate.o)
fputs                                             D:\CODEX\Dev-Cpp\TDM-GCC3264\x86_64-w64-mingw32\lib/libmsvcrt.a(dcfxs01093.o)
                                                  D:/CODEX/Dev-Cpp/TDM-GCC3264/bin/../lib/gcc/x86_64-w64-mingw32/10.3.0\libstdc++.a(vterminate.o)
fputwc                                            D:\CODEX\Dev-Cpp\TDM-GCC3264\x86_64-w64-mingw32\lib/libmsvcrt.a(dcfxs01094.o)
                                                  D:\CODEX\Dev-Cpp\TDM-GCC3264\x86_64-w64-mingw32\lib/libmingwex.a(lib64_libmingwex_a-mingw_pformatw.o)
free                                              D:\CODEX\Dev-Cpp\TDM-GCC3264\x86_64-w64-mingw32\lib/libmsvcrt.a(dcfxs01097.o)
                                                  C:\Users\ARABBI~1\AppData\Local\Temp\main.exe.6iMB3F.ltrans0.ltrans.o
                                                  D:\CODEX\Dev-Cpp\TDM-GCC3264\x86_64-w64-mingw32\lib/libmingwex.a(lib64_libmingwex_a-misc.o)
                                                  D:\CODEX\Dev-Cpp\TDM-GCC3264\x86_64-w64-mingw32\lib/libpthread.a(libwinpthread_la-cond.o)
                                                  D:\CODEX\Dev-Cpp\TDM-GCC3264\x86_64-w64-mingw32\lib/libpthread.a(libwinpthread_la-rwlock.o)
                                                  D:\CODEX\Dev-Cpp\TDM-GCC3264\x86_64-w64-mingw32\lib/libpthread.a(libwinpthread_la-thread.o)
                                                  D:\CODEX\Dev-Cpp\TDM-GCC3264\x86_64-w64-mingw32\lib/libpthread.a(libwinpthread_la-mutex.o)
                                                  D:\CODEX\Dev-Cpp\TDM-GCC3264\x86_64-w64-mingw32\lib/libmingw32.a(lib64_libmingw32_a-tlsthrd.o)
                                                  D:/CODEX/Dev-Cpp/TDM-GCC3264/bin/../lib/gcc/x86_64-w64-mingw32/10.3.0\libstdc++.a(eh_globals.o)
                                                  D:/CODEX/Dev-Cpp/TDM-GCC3264/bin/../lib/gcc/x86_64-w64-mingw32/10.3.0\libstdc++.a(cp-demangle.o)
                                                  D:/CODEX/Dev-Cpp/TDM-GCC3264/bin/../lib/gcc/x86_64-w64-mingw32/10.3.0\libstdc++.a(vterminate.o)
                                                  D:/CODEX/Dev-Cpp/TDM-GCC3264/bin/../lib/gcc/x86_64-w64-mingw32/10.3.0\libstdc++.a(eh_alloc.o)
                                                  D:/CODEX/Dev-Cpp/TDM-GCC3264/bin/../lib/gcc/x86_64-w64-mingw32/10.3.0\libstdc++.a(del_op.o)
fwrite                                            D:\CODEX\Dev-Cpp\TDM-GCC3264\x86_64-w64-mingw32\lib/libmsvcrt.a(dcfxs01109.o)
                                                  D:\CODEX\Dev-Cpp\TDM-GCC3264\x86_64-w64-mingw32\lib/libmingw32.a(lib64_libmingw32_a-pseudo-reloc.o)
                                                  D:/CODEX/Dev-Cpp/TDM-GCC3264/bin/../lib/gcc/x86_64-w64-mingw32/10.3.0\libstdc++.a(vterminate.o)
libgcc_s_seh_64_1_dll_iname                       D:/CODEX/Dev-Cpp/TDM-GCC3264/bin/../lib/gcc/x86_64-w64-mingw32/10.3.0/libgcc_s.a(d000123.o)
                                                  D:/CODEX/Dev-Cpp/TDM-GCC3264/bin/../lib/gcc/x86_64-w64-mingw32/10.3.0/libgcc_s.a(d000000.o)
localeconv                                        D:\CODEX\Dev-Cpp\TDM-GCC3264\x86_64-w64-mingw32\lib/libmsvcrt.a(dcfxs01149.o)
                                                  D:\CODEX\Dev-Cpp\TDM-GCC3264\x86_64-w64-mingw32\lib/libmingwex.a(lib64_libmingwex_a-mingw_pformatw.o)
                                                  D:\CODEX\Dev-Cpp\TDM-GCC3264\x86_64-w64-mingw32\lib/libmingwex.a(lib64_libmingwex_a-mingw_pformat.o)
longjmp                                           D:\CODEX\Dev-Cpp\TDM-GCC3264\x86_64-w64-mingw32\lib/libmsvcrt.a(dcfxs01155.o)
lsMATHnode::addnode(MATHraw (*)(MATHraw*, unsigned char), unsigned char, unsigned char) C:\Users\ARABBI~1\AppData\Local\Temp\ccJboNLv.o (symbol from plugin)
lsMATHnode::addnode(float, unsigned char)         C:\Users\ARABBI~1\AppData\Local\Temp\ccJboNLv.o (symbol from plugin)
lsMATHnode::addnode(wchar_t const*, unsigned char) C:\Users\ARABBI~1\AppData\Local\Temp\ccJboNLv.o (symbol from plugin)
lsMATHnode::call()                                C:\Users\ARABBI~1\AppData\Local\Temp\ccJboNLv.o (symbol from plugin)
lsMATHnode::finish_build(bool)                    C:\Users\ARABBI~1\AppData\Local\Temp\ccJboNLv.o (symbol from plugin)
lsMATHnode::track(unsigned char, unsigned long long) C:\Users\ARABBI~1\AppData\Local\Temp\ccJboNLv.o (symbol from plugin)
lsMATHnode::~lsMATHnode()                         C:\Users\ARABBI~1\AppData\Local\Temp\ccJboNLv.o (symbol from plugin)
lsMATHstaticstr::addstr(wchar_t const*)           C:\Users\ARABBI~1\AppData\Local\Temp\ccJboNLv.o (symbol from plugin)
lsMATHstaticstr::extract(unsigned long long, wchar_t*) C:\Users\ARABBI~1\AppData\Local\Temp\ccJboNLv.o (symbol from plugin)
lsMATHstaticstr::find(wchar_t const*)             C:\Users\ARABBI~1\AppData\Local\Temp\ccJboNLv.o (symbol from plugin)
lsMATHstaticstr::getedge(unsigned long long, unsigned long long*, unsigned long long*) C:\Users\ARABBI~1\AppData\Local\Temp\ccJboNLv.o (symbol from plugin)
lsMATHstaticstr::~lsMATHstaticstr()               C:\Users\ARABBI~1\AppData\Local\Temp\ccJboNLv.o (symbol from plugin)
main                                              C:\Users\ARABBI~1\AppData\Local\Temp\main.exe.6iMB3F.ltrans0.ltrans.o
                                                  C:\Users\ARABBI~1\AppData\Local\Temp\ccJboNLv.o (symbol from plugin)
                                                  D:/CODEX/Dev-Cpp/TDM-GCC3264/bin/../lib/gcc/x86_64-w64-mingw32/10.3.0/../../../../x86_64-w64-mingw32/lib/../lib/crt2.o
mainCRTStartup                                    D:/CODEX/Dev-Cpp/TDM-GCC3264/bin/../lib/gcc/x86_64-w64-mingw32/10.3.0/../../../../x86_64-w64-mingw32/lib/../lib/crt2.o
malloc                                            D:\CODEX\Dev-Cpp\TDM-GCC3264\x86_64-w64-mingw32\lib/libmsvcrt.a(dcfxs01156.o)
                                                  C:\Users\ARABBI~1\AppData\Local\Temp\main.exe.6iMB3F.ltrans0.ltrans.o
                                                  D:\CODEX\Dev-Cpp\TDM-GCC3264\x86_64-w64-mingw32\lib/libmingwex.a(lib64_libmingwex_a-misc.o)
                                                  D:\CODEX\Dev-Cpp\TDM-GCC3264\x86_64-w64-mingw32\lib/libpthread.a(libwinpthread_la-thread.o)
                                                  D:\CODEX\Dev-Cpp\TDM-GCC3264\x86_64-w64-mingw32\lib/libpthread.a(libwinpthread_la-mutex.o)
                                                  D:/CODEX/Dev-Cpp/TDM-GCC3264/bin/../lib/gcc/x86_64-w64-mingw32/10.3.0\libstdc++.a(eh_globals.o)
                                                  D:/CODEX/Dev-Cpp/TDM-GCC3264/bin/../lib/gcc/x86_64-w64-mingw32/10.3.0\libstdc++.a(eh_alloc.o)
                                                  D:/CODEX/Dev-Cpp/TDM-GCC3264/bin/../lib/gcc/x86_64-w64-mingw32/10.3.0\libstdc++.a(new_op.o)
                                                  D:/CODEX/Dev-Cpp/TDM-GCC3264/bin/../lib/gcc/x86_64-w64-mingw32/10.3.0/../../../../x86_64-w64-mingw32/lib/../lib/crt2.o
mbrlen                                            D:\CODEX\Dev-Cpp\TDM-GCC3264\x86_64-w64-mingw32\lib/libmsvcrt.a(lib64_libmsvcrt_os_a-mbrtowc.o)
mbrtowc                                           D:\CODEX\Dev-Cpp\TDM-GCC3264\x86_64-w64-mingw32\lib/libmsvcrt.a(lib64_libmsvcrt_os_a-mbrtowc.o)
                                                  D:\CODEX\Dev-Cpp\TDM-GCC3264\x86_64-w64-mingw32\lib/libmingwex.a(lib64_libmingwex_a-mingw_pformatw.o)
                                                  D:\CODEX\Dev-Cpp\TDM-GCC3264\x86_64-w64-mingw32\lib/libmingwex.a(lib64_libmingwex_a-mingw_pformat.o)
mbsrtowcs                                         D:\CODEX\Dev-Cpp\TDM-GCC3264\x86_64-w64-mingw32\lib/libmsvcrt.a(lib64_libmsvcrt_os_a-mbrtowc.o)
memccpy                                           D:\CODEX\Dev-Cpp\TDM-GCC3264\x86_64-w64-mingw32\lib/libmsvcrt.a(dcfxs00602.o)
                                                  D:\CODEX\Dev-Cpp\TDM-GCC3264\x86_64-w64-mingw32\lib/libpthread.a(libwinpthread_la-thread.o)
memcmp                                            D:\CODEX\Dev-Cpp\TDM-GCC3264\x86_64-w64-mingw32\lib/libmsvcrt.a(dcfxs01163.o)
                                                  C:\Users\ARABBI~1\AppData\Local\Temp\main.exe.6iMB3F.ltrans0.ltrans.o
memcpy                                            D:\CODEX\Dev-Cpp\TDM-GCC3264\x86_64-w64-mingw32\lib/libmsvcrt.a(dcfxs01164.o)
                                                  D:\CODEX\Dev-Cpp\TDM-GCC3264\x86_64-w64-mingw32\lib/libmingwex.a(lib64_libmingwex_a-misc.o)
                                                  D:\CODEX\Dev-Cpp\TDM-GCC3264\x86_64-w64-mingw32\lib/libmingwex.a(lib64_libmingwex_a-gdtoa.o)
                                                  D:/CODEX/Dev-Cpp/TDM-GCC3264/bin/../lib/gcc/x86_64-w64-mingw32/10.3.0\libstdc++.a(cp-demangle.o)
                                                  D:/CODEX/Dev-Cpp/TDM-GCC3264/bin/../lib/gcc/x86_64-w64-mingw32/10.3.0/../../../../x86_64-w64-mingw32/lib/../lib/crt2.o
memmove                                           D:\CODEX\Dev-Cpp\TDM-GCC3264\x86_64-w64-mingw32\lib/libmsvcrt.a(dcfxs01165.o)
                                                  D:\CODEX\Dev-Cpp\TDM-GCC3264\x86_64-w64-mingw32\lib/libpthread.a(libwinpthread_la-thread.o)
memset                                            D:\CODEX\Dev-Cpp\TDM-GCC3264\x86_64-w64-mingw32\lib/libmsvcrt.a(dcfxs01166.o)
                                                  D:\CODEX\Dev-Cpp\TDM-GCC3264\x86_64-w64-mingw32\lib/libmingwex.a(lib64_libmingwex_a-misc.o)
                                                  D:\CODEX\Dev-Cpp\TDM-GCC3264\x86_64-w64-mingw32\lib/libmingwex.a(lib64_libmingwex_a-mingw_pformatw.o)
                                                  D:\CODEX\Dev-Cpp\TDM-GCC3264\x86_64-w64-mingw32\lib/libmingwex.a(lib64_libmingwex_a-mingw_pformat.o)
                                                  D:\CODEX\Dev-Cpp\TDM-GCC3264\x86_64-w64-mingw32\lib/libpthread.a(libwinpthread_la-thread.o)
mingw_app_type                                    D:\CODEX\Dev-Cpp\TDM-GCC3264\x86_64-w64-mingw32\lib/libmingw32.a(lib64_libmingw32_a-mingw_helpers.o)
                                                  D:/CODEX/Dev-Cpp/TDM-GCC3264/bin/../lib/gcc/x86_64-w64-mingw32/10.3.0/../../../../x86_64-w64-mingw32/lib/../lib/crt2.o
mingw_initcharmax                                 D:\CODEX\Dev-Cpp\TDM-GCC3264\x86_64-w64-mingw32\lib/libmingw32.a(lib64_libmingw32_a-charmax.o)
                                                  D:/CODEX/Dev-Cpp/TDM-GCC3264/bin/../lib/gcc/x86_64-w64-mingw32/10.3.0/../../../../x86_64-w64-mingw32/lib/../lib/crt2.o
mingw_initltsdrot_force                           D:\CODEX\Dev-Cpp\TDM-GCC3264\x86_64-w64-mingw32\lib/libmingw32.a(lib64_libmingw32_a-tlssup.o)
                                                  D:/CODEX/Dev-Cpp/TDM-GCC3264/bin/../lib/gcc/x86_64-w64-mingw32/10.3.0/../../../../x86_64-w64-mingw32/lib/../lib/crt2.o
mingw_initltsdyn_force                            D:\CODEX\Dev-Cpp\TDM-GCC3264\x86_64-w64-mingw32\lib/libmingw32.a(lib64_libmingw32_a-tlssup.o)
                                                  D:/CODEX/Dev-Cpp/TDM-GCC3264/bin/../lib/gcc/x86_64-w64-mingw32/10.3.0/../../../../x86_64-w64-mingw32/lib/../lib/crt2.o
mingw_initltssuo_force                            D:\CODEX\Dev-Cpp\TDM-GCC3264\x86_64-w64-mingw32\lib/libmingw32.a(lib64_libmingw32_a-tlssup.o)
                                                  D:/CODEX/Dev-Cpp/TDM-GCC3264/bin/../lib/gcc/x86_64-w64-mingw32/10.3.0/../../../../x86_64-w64-mingw32/lib/../lib/crt2.o
mingw_pcinit                                      D:/CODEX/Dev-Cpp/TDM-GCC3264/bin/../lib/gcc/x86_64-w64-mingw32/10.3.0/../../../../x86_64-w64-mingw32/lib/../lib/crt2.o
mingw_pcppinit                                    D:/CODEX/Dev-Cpp/TDM-GCC3264/bin/../lib/gcc/x86_64-w64-mingw32/10.3.0/../../../../x86_64-w64-mingw32/lib/../lib/crt2.o
mulFF(MATHraw*, unsigned char)                    C:\Users\ARABBI~1\AppData\Local\Temp\ccJboNLv.o (symbol from plugin)
mulFI(MATHraw*, unsigned char)                    C:\Users\ARABBI~1\AppData\Local\Temp\ccJboNLv.o (symbol from plugin)
mulIF(MATHraw*, unsigned char)                    C:\Users\ARABBI~1\AppData\Local\Temp\ccJboNLv.o (symbol from plugin)
mulII(MATHraw*, unsigned char)                    C:\Users\ARABBI~1\AppData\Local\Temp\ccJboNLv.o (symbol from plugin)
operator delete(void*)                            D:/CODEX/Dev-Cpp/TDM-GCC3264/bin/../lib/gcc/x86_64-w64-mingw32/10.3.0\libstdc++.a(del_op.o)
                                                  D:/CODEX/Dev-Cpp/TDM-GCC3264/bin/../lib/gcc/x86_64-w64-mingw32/10.3.0\libstdc++.a(del_ops.o)
operator delete(void*, unsigned long long)        D:/CODEX/Dev-Cpp/TDM-GCC3264/bin/../lib/gcc/x86_64-w64-mingw32/10.3.0\libstdc++.a(del_ops.o)
                                                  C:\Users\ARABBI~1\AppData\Local\Temp\main.exe.6iMB3F.ltrans0.ltrans.o
                                                  D:/CODEX/Dev-Cpp/TDM-GCC3264/bin/../lib/gcc/x86_64-w64-mingw32/10.3.0\libstdc++.a(eh_exception.o)
                                                  D:/CODEX/Dev-Cpp/TDM-GCC3264/bin/../lib/gcc/x86_64-w64-mingw32/10.3.0\libstdc++.a(eh_alloc.o)
                                                  D:/CODEX/Dev-Cpp/TDM-GCC3264/bin/../lib/gcc/x86_64-w64-mingw32/10.3.0\libstdc++.a(class_type_info.o)
                                                  D:/CODEX/Dev-Cpp/TDM-GCC3264/bin/../lib/gcc/x86_64-w64-mingw32/10.3.0\libstdc++.a(bad_alloc.o)
                                                  D:/CODEX/Dev-Cpp/TDM-GCC3264/bin/../lib/gcc/x86_64-w64-mingw32/10.3.0\libstdc++.a(tinfo.o)
                                                  D:/CODEX/Dev-Cpp/TDM-GCC3264/bin/../lib/gcc/x86_64-w64-mingw32/10.3.0\libstdc++.a(si_class_type_info.o)
                                                  C:\Users\ARABBI~1\AppData\Local\Temp\ccJboNLv.o (symbol from plugin)
operator new(unsigned long long)                  D:/CODEX/Dev-Cpp/TDM-GCC3264/bin/../lib/gcc/x86_64-w64-mingw32/10.3.0\libstdc++.a(new_op.o)
                                                  C:\Users\ARABBI~1\AppData\Local\Temp\main.exe.6iMB3F.ltrans0.ltrans.o
                                                  C:\Users\ARABBI~1\AppData\Local\Temp\ccJboNLv.o (symbol from plugin)
orII(MATHraw*, unsigned char)                     C:\Users\ARABBI~1\AppData\Local\Temp\ccJboNLv.o (symbol from plugin)
printContainerI(MATHcontainer*)                   C:\Users\ARABBI~1\AppData\Local\Temp\ccJboNLv.o (symbol from plugin)
printContainerS(MATHcontainer*)                   C:\Users\ARABBI~1\AppData\Local\Temp\ccJboNLv.o (symbol from plugin)
printf                                            D:\CODEX\Dev-Cpp\TDM-GCC3264\x86_64-w64-mingw32\lib/libmsvcrt.a(dcfxs01174.o)
                                                  D:\CODEX\Dev-Cpp\TDM-GCC3264\x86_64-w64-mingw32\lib/libpthread.a(libwinpthread_la-rwlock.o)
                                                  D:\CODEX\Dev-Cpp\TDM-GCC3264\x86_64-w64-mingw32\lib/libpthread.a(libwinpthread_la-thread.o)
pthread_attr_destroy                              D:\CODEX\Dev-Cpp\TDM-GCC3264\x86_64-w64-mingw32\lib/libpthread.a(libwinpthread_la-thread.o)
pthread_attr_getdetachstate                       D:\CODEX\Dev-Cpp\TDM-GCC3264\x86_64-w64-mingw32\lib/libpthread.a(libwinpthread_la-thread.o)
pthread_attr_getinheritsched                      D:\CODEX\Dev-Cpp\TDM-GCC3264\x86_64-w64-mingw32\lib/libpthread.a(libwinpthread_la-thread.o)
pthread_attr_getschedparam                        D:\CODEX\Dev-Cpp\TDM-GCC3264\x86_64-w64-mingw32\lib/libpthread.a(libwinpthread_la-sched.o)
pthread_attr_getschedpolicy                       D:\CODEX\Dev-Cpp\TDM-GCC3264\x86_64-w64-mingw32\lib/libpthread.a(libwinpthread_la-sched.o)
pthread_attr_getscope                             D:\CODEX\Dev-Cpp\TDM-GCC3264\x86_64-w64-mingw32\lib/libpthread.a(libwinpthread_la-thread.o)
pthread_attr_getstackaddr                         D:\CODEX\Dev-Cpp\TDM-GCC3264\x86_64-w64-mingw32\lib/libpthread.a(libwinpthread_la-thread.o)
pthread_attr_getstacksize                         D:\CODEX\Dev-Cpp\TDM-GCC3264\x86_64-w64-mingw32\lib/libpthread.a(libwinpthread_la-thread.o)
pthread_attr_init                                 D:\CODEX\Dev-Cpp\TDM-GCC3264\x86_64-w64-mingw32\lib/libpthread.a(libwinpthread_la-thread.o)
pthread_attr_setdetachstate                       D:\CODEX\Dev-Cpp\TDM-GCC3264\x86_64-w64-mingw32\lib/libpthread.a(libwinpthread_la-thread.o)
pthread_attr_setinheritsched                      D:\CODEX\Dev-Cpp\TDM-GCC3264\x86_64-w64-mingw32\lib/libpthread.a(libwinpthread_la-thread.o)
pthread_attr_setschedparam                        D:\CODEX\Dev-Cpp\TDM-GCC3264\x86_64-w64-mingw32\lib/libpthread.a(libwinpthread_la-sched.o)
pthread_attr_setschedpolicy                       D:\CODEX\Dev-Cpp\TDM-GCC3264\x86_64-w64-mingw32\lib/libpthread.a(libwinpthread_la-sched.o)
pthread_attr_setscope                             D:\CODEX\Dev-Cpp\TDM-GCC3264\x86_64-w64-mingw32\lib/libpthread.a(libwinpthread_la-thread.o)
pthread_attr_setstackaddr                         D:\CODEX\Dev-Cpp\TDM-GCC3264\x86_64-w64-mingw32\lib/libpthread.a(libwinpthread_la-thread.o)
pthread_attr_setstacksize                         D:\CODEX\Dev-Cpp\TDM-GCC3264\x86_64-w64-mingw32\lib/libpthread.a(libwinpthread_la-thread.o)
pthread_cancel                                    D:\CODEX\Dev-Cpp\TDM-GCC3264\x86_64-w64-mingw32\lib/libpthread.a(libwinpthread_la-thread.o)
pthread_cond_broadcast                            D:\CODEX\Dev-Cpp\TDM-GCC3264\x86_64-w64-mingw32\lib/libpthread.a(libwinpthread_la-cond.o)
pthread_cond_destroy                              D:\CODEX\Dev-Cpp\TDM-GCC3264\x86_64-w64-mingw32\lib/libpthread.a(libwinpthread_la-cond.o)
                                                  D:\CODEX\Dev-Cpp\TDM-GCC3264\x86_64-w64-mingw32\lib/libpthread.a(libwinpthread_la-rwlock.o)
pthread_cond_init                                 D:\CODEX\Dev-Cpp\TDM-GCC3264\x86_64-w64-mingw32\lib/libpthread.a(libwinpthread_la-cond.o)
                                                  D:\CODEX\Dev-Cpp\TDM-GCC3264\x86_64-w64-mingw32\lib/libpthread.a(libwinpthread_la-rwlock.o)
pthread_cond_signal                               D:\CODEX\Dev-Cpp\TDM-GCC3264\x86_64-w64-mingw32\lib/libpthread.a(libwinpthread_la-cond.o)
                                                  D:\CODEX\Dev-Cpp\TDM-GCC3264\x86_64-w64-mingw32\lib/libpthread.a(libwinpthread_la-rwlock.o)
pthread_cond_timedwait                            D:\CODEX\Dev-Cpp\TDM-GCC3264\x86_64-w64-mingw32\lib/libpthread.a(libwinpthread_la-cond.o)
                                                  D:\CODEX\Dev-Cpp\TDM-GCC3264\x86_64-w64-mingw32\lib/libpthread.a(libwinpthread_la-rwlock.o)
pthread_cond_timedwait_relative_np                D:\CODEX\Dev-Cpp\TDM-GCC3264\x86_64-w64-mingw32\lib/libpthread.a(libwinpthread_la-cond.o)
pthread_cond_wait                                 D:\CODEX\Dev-Cpp\TDM-GCC3264\x86_64-w64-mingw32\lib/libpthread.a(libwinpthread_la-cond.o)
                                                  D:\CODEX\Dev-Cpp\TDM-GCC3264\x86_64-w64-mingw32\lib/libpthread.a(libwinpthread_la-rwlock.o)
pthread_condattr_destroy                          D:\CODEX\Dev-Cpp\TDM-GCC3264\x86_64-w64-mingw32\lib/libpthread.a(libwinpthread_la-cond.o)
pthread_condattr_getclock                         D:\CODEX\Dev-Cpp\TDM-GCC3264\x86_64-w64-mingw32\lib/libpthread.a(libwinpthread_la-cond.o)
pthread_condattr_getpshared                       D:\CODEX\Dev-Cpp\TDM-GCC3264\x86_64-w64-mingw32\lib/libpthread.a(libwinpthread_la-cond.o)
pthread_condattr_init                             D:\CODEX\Dev-Cpp\TDM-GCC3264\x86_64-w64-mingw32\lib/libpthread.a(libwinpthread_la-cond.o)
pthread_condattr_setclock                         D:\CODEX\Dev-Cpp\TDM-GCC3264\x86_64-w64-mingw32\lib/libpthread.a(libwinpthread_la-cond.o)
pthread_condattr_setpshared                       D:\CODEX\Dev-Cpp\TDM-GCC3264\x86_64-w64-mingw32\lib/libpthread.a(libwinpthread_la-cond.o)
pthread_create                                    D:\CODEX\Dev-Cpp\TDM-GCC3264\x86_64-w64-mingw32\lib/libpthread.a(libwinpthread_la-thread.o)
pthread_create_wrapper                            D:\CODEX\Dev-Cpp\TDM-GCC3264\x86_64-w64-mingw32\lib/libpthread.a(libwinpthread_la-thread.o)
pthread_delay_np                                  D:\CODEX\Dev-Cpp\TDM-GCC3264\x86_64-w64-mingw32\lib/libpthread.a(libwinpthread_la-thread.o)
pthread_delay_np_ms                               D:\CODEX\Dev-Cpp\TDM-GCC3264\x86_64-w64-mingw32\lib/libpthread.a(libwinpthread_la-thread.o)
                                                  D:\CODEX\Dev-Cpp\TDM-GCC3264\x86_64-w64-mingw32\lib/libpthread.a(libwinpthread_la-cond.o)
pthread_detach                                    D:\CODEX\Dev-Cpp\TDM-GCC3264\x86_64-w64-mingw32\lib/libpthread.a(libwinpthread_la-thread.o)
pthread_equal                                     D:\CODEX\Dev-Cpp\TDM-GCC3264\x86_64-w64-mingw32\lib/libpthread.a(libwinpthread_la-thread.o)
pthread_exit                                      D:\CODEX\Dev-Cpp\TDM-GCC3264\x86_64-w64-mingw32\lib/libpthread.a(libwinpthread_la-thread.o)
pthread_get_concurrency                           D:\CODEX\Dev-Cpp\TDM-GCC3264\x86_64-w64-mingw32\lib/libpthread.a(libwinpthread_la-thread.o)
pthread_getclean                                  D:\CODEX\Dev-Cpp\TDM-GCC3264\x86_64-w64-mingw32\lib/libpthread.a(libwinpthread_la-thread.o)
                                                  D:\CODEX\Dev-Cpp\TDM-GCC3264\x86_64-w64-mingw32\lib/libpthread.a(libwinpthread_la-cond.o)
                                                  D:\CODEX\Dev-Cpp\TDM-GCC3264\x86_64-w64-mingw32\lib/libpthread.a(libwinpthread_la-rwlock.o)
pthread_getconcurrency                            D:\CODEX\Dev-Cpp\TDM-GCC3264\x86_64-w64-mingw32\lib/libpthread.a(libwinpthread_la-thread.o)
pthread_getevent                                  D:\CODEX\Dev-Cpp\TDM-GCC3264\x86_64-w64-mingw32\lib/libpthread.a(libwinpthread_la-thread.o)
                                                  D:\CODEX\Dev-Cpp\TDM-GCC3264\x86_64-w64-mingw32\lib/libpthread.a(libwinpthread_la-cond.o)
pthread_gethandle                                 D:\CODEX\Dev-Cpp\TDM-GCC3264\x86_64-w64-mingw32\lib/libpthread.a(libwinpthread_la-thread.o)
pthread_getname_np                                D:\CODEX\Dev-Cpp\TDM-GCC3264\x86_64-w64-mingw32\lib/libpthread.a(libwinpthread_la-thread.o)
pthread_getschedparam                             D:\CODEX\Dev-Cpp\TDM-GCC3264\x86_64-w64-mingw32\lib/libpthread.a(libwinpthread_la-sched.o)
pthread_getspecific                               D:\CODEX\Dev-Cpp\TDM-GCC3264\x86_64-w64-mingw32\lib/libpthread.a(libwinpthread_la-thread.o)
                                                  D:/CODEX/Dev-Cpp/TDM-GCC3264/bin/../lib/gcc/x86_64-w64-mingw32/10.3.0\libstdc++.a(eh_globals.o)
pthread_join                                      D:\CODEX\Dev-Cpp\TDM-GCC3264\x86_64-w64-mingw32\lib/libpthread.a(libwinpthread_la-thread.o)
pthread_key_create                                D:\CODEX\Dev-Cpp\TDM-GCC3264\x86_64-w64-mingw32\lib/libpthread.a(libwinpthread_la-thread.o)
                                                  D:/CODEX/Dev-Cpp/TDM-GCC3264/bin/../lib/gcc/x86_64-w64-mingw32/10.3.0\libstdc++.a(eh_globals.o)
pthread_key_delete                                D:\CODEX\Dev-Cpp\TDM-GCC3264\x86_64-w64-mingw32\lib/libpthread.a(libwinpthread_la-thread.o)
                                                  D:/CODEX/Dev-Cpp/TDM-GCC3264/bin/../lib/gcc/x86_64-w64-mingw32/10.3.0\libstdc++.a(eh_globals.o)
pthread_kill                                      D:\CODEX\Dev-Cpp\TDM-GCC3264\x86_64-w64-mingw32\lib/libpthread.a(libwinpthread_la-thread.o)
pthread_mutex_destroy                             D:\CODEX\Dev-Cpp\TDM-GCC3264\x86_64-w64-mingw32\lib/libpthread.a(libwinpthread_la-mutex.o)
                                                  D:\CODEX\Dev-Cpp\TDM-GCC3264\x86_64-w64-mingw32\lib/libpthread.a(libwinpthread_la-rwlock.o)
                                                  D:\CODEX\Dev-Cpp\TDM-GCC3264\x86_64-w64-mingw32\lib/libpthread.a(libwinpthread_la-thread.o)
                                                  D:/CODEX/Dev-Cpp/TDM-GCC3264/bin/../lib/gcc/x86_64-w64-mingw32/10.3.0\libstdc++.a(eh_alloc.o)
pthread_mutex_init                                D:\CODEX\Dev-Cpp\TDM-GCC3264\x86_64-w64-mingw32\lib/libpthread.a(libwinpthread_la-mutex.o)
                                                  D:\CODEX\Dev-Cpp\TDM-GCC3264\x86_64-w64-mingw32\lib/libpthread.a(libwinpthread_la-rwlock.o)
                                                  D:\CODEX\Dev-Cpp\TDM-GCC3264\x86_64-w64-mingw32\lib/libpthread.a(libwinpthread_la-thread.o)
                                                  D:/CODEX/Dev-Cpp/TDM-GCC3264/bin/../lib/gcc/x86_64-w64-mingw32/10.3.0\libstdc++.a(eh_alloc.o)
pthread_mutex_lock                                D:\CODEX\Dev-Cpp\TDM-GCC3264\x86_64-w64-mingw32\lib/libpthread.a(libwinpthread_la-mutex.o)
                                                  D:\CODEX\Dev-Cpp\TDM-GCC3264\x86_64-w64-mingw32\lib/libpthread.a(libwinpthread_la-cond.o)
                                                  D:\CODEX\Dev-Cpp\TDM-GCC3264\x86_64-w64-mingw32\lib/libpthread.a(libwinpthread_la-rwlock.o)
                                                  D:\CODEX\Dev-Cpp\TDM-GCC3264\x86_64-w64-mingw32\lib/libpthread.a(libwinpthread_la-thread.o)
                                                  D:/CODEX/Dev-Cpp/TDM-GCC3264/bin/../lib/gcc/x86_64-w64-mingw32/10.3.0\libstdc++.a(eh_alloc.o)
pthread_mutex_timedlock                           D:\CODEX\Dev-Cpp\TDM-GCC3264\x86_64-w64-mingw32\lib/libpthread.a(libwinpthread_la-mutex.o)
                                                  D:\CODEX\Dev-Cpp\TDM-GCC3264\x86_64-w64-mingw32\lib/libpthread.a(libwinpthread_la-rwlock.o)
pthread_mutex_trylock                             D:\CODEX\Dev-Cpp\TDM-GCC3264\x86_64-w64-mingw32\lib/libpthread.a(libwinpthread_la-mutex.o)
                                                  D:\CODEX\Dev-Cpp\TDM-GCC3264\x86_64-w64-mingw32\lib/libpthread.a(libwinpthread_la-rwlock.o)
pthread_mutex_unlock                              D:\CODEX\Dev-Cpp\TDM-GCC3264\x86_64-w64-mingw32\lib/libpthread.a(libwinpthread_la-mutex.o)
                                                  D:\CODEX\Dev-Cpp\TDM-GCC3264\x86_64-w64-mingw32\lib/libpthread.a(libwinpthread_la-cond.o)
                                                  D:\CODEX\Dev-Cpp\TDM-GCC3264\x86_64-w64-mingw32\lib/libpthread.a(libwinpthread_la-rwlock.o)
                                                  D:\CODEX\Dev-Cpp\TDM-GCC3264\x86_64-w64-mingw32\lib/libpthread.a(libwinpthread_la-thread.o)
                                                  D:/CODEX/Dev-Cpp/TDM-GCC3264/bin/../lib/gcc/x86_64-w64-mingw32/10.3.0\libstdc++.a(eh_alloc.o)
pthread_mutexattr_destroy                         D:\CODEX\Dev-Cpp\TDM-GCC3264\x86_64-w64-mingw32\lib/libpthread.a(libwinpthread_la-mutex.o)
pthread_mutexattr_getprioceiling                  D:\CODEX\Dev-Cpp\TDM-GCC3264\x86_64-w64-mingw32\lib/libpthread.a(libwinpthread_la-mutex.o)
pthread_mutexattr_getprotocol                     D:\CODEX\Dev-Cpp\TDM-GCC3264\x86_64-w64-mingw32\lib/libpthread.a(libwinpthread_la-mutex.o)
pthread_mutexattr_getpshared                      D:\CODEX\Dev-Cpp\TDM-GCC3264\x86_64-w64-mingw32\lib/libpthread.a(libwinpthread_la-mutex.o)
pthread_mutexattr_gettype                         D:\CODEX\Dev-Cpp\TDM-GCC3264\x86_64-w64-mingw32\lib/libpthread.a(libwinpthread_la-mutex.o)
pthread_mutexattr_init                            D:\CODEX\Dev-Cpp\TDM-GCC3264\x86_64-w64-mingw32\lib/libpthread.a(libwinpthread_la-mutex.o)
pthread_mutexattr_setprioceiling                  D:\CODEX\Dev-Cpp\TDM-GCC3264\x86_64-w64-mingw32\lib/libpthread.a(libwinpthread_la-mutex.o)
pthread_mutexattr_setprotocol                     D:\CODEX\Dev-Cpp\TDM-GCC3264\x86_64-w64-mingw32\lib/libpthread.a(libwinpthread_la-mutex.o)
pthread_mutexattr_setpshared                      D:\CODEX\Dev-Cpp\TDM-GCC3264\x86_64-w64-mingw32\lib/libpthread.a(libwinpthread_la-mutex.o)
pthread_mutexattr_settype                         D:\CODEX\Dev-Cpp\TDM-GCC3264\x86_64-w64-mingw32\lib/libpthread.a(libwinpthread_la-mutex.o)
pthread_num_processors_np                         D:\CODEX\Dev-Cpp\TDM-GCC3264\x86_64-w64-mingw32\lib/libpthread.a(libwinpthread_la-thread.o)
pthread_once                                      D:\CODEX\Dev-Cpp\TDM-GCC3264\x86_64-w64-mingw32\lib/libpthread.a(libwinpthread_la-thread.o)
pthread_rwlock_destroy                            D:\CODEX\Dev-Cpp\TDM-GCC3264\x86_64-w64-mingw32\lib/libpthread.a(libwinpthread_la-rwlock.o)
pthread_rwlock_init                               D:\CODEX\Dev-Cpp\TDM-GCC3264\x86_64-w64-mingw32\lib/libpthread.a(libwinpthread_la-rwlock.o)
pthread_rwlock_rdlock                             D:\CODEX\Dev-Cpp\TDM-GCC3264\x86_64-w64-mingw32\lib/libpthread.a(libwinpthread_la-rwlock.o)
                                                  D:\CODEX\Dev-Cpp\TDM-GCC3264\x86_64-w64-mingw32\lib/libpthread.a(libwinpthread_la-thread.o)
pthread_rwlock_timedrdlock                        D:\CODEX\Dev-Cpp\TDM-GCC3264\x86_64-w64-mingw32\lib/libpthread.a(libwinpthread_la-rwlock.o)
pthread_rwlock_timedwrlock                        D:\CODEX\Dev-Cpp\TDM-GCC3264\x86_64-w64-mingw32\lib/libpthread.a(libwinpthread_la-rwlock.o)
pthread_rwlock_tryrdlock                          D:\CODEX\Dev-Cpp\TDM-GCC3264\x86_64-w64-mingw32\lib/libpthread.a(libwinpthread_la-rwlock.o)
pthread_rwlock_trywrlock                          D:\CODEX\Dev-Cpp\TDM-GCC3264\x86_64-w64-mingw32\lib/libpthread.a(libwinpthread_la-rwlock.o)
pthread_rwlock_unlock                             D:\CODEX\Dev-Cpp\TDM-GCC3264\x86_64-w64-mingw32\lib/libpthread.a(libwinpthread_la-rwlock.o)
                                                  D:\CODEX\Dev-Cpp\TDM-GCC3264\x86_64-w64-mingw32\lib/libpthread.a(libwinpthread_la-thread.o)
pthread_rwlock_wrlock                             D:\CODEX\Dev-Cpp\TDM-GCC3264\x86_64-w64-mingw32\lib/libpthread.a(libwinpthread_la-rwlock.o)
                                                  D:\CODEX\Dev-Cpp\TDM-GCC3264\x86_64-w64-mingw32\lib/libpthread.a(libwinpthread_la-thread.o)
pthread_rwlockattr_destroy                        D:\CODEX\Dev-Cpp\TDM-GCC3264\x86_64-w64-mingw32\lib/libpthread.a(libwinpthread_la-rwlock.o)
pthread_rwlockattr_getpshared                     D:\CODEX\Dev-Cpp\TDM-GCC3264\x86_64-w64-mingw32\lib/libpthread.a(libwinpthread_la-rwlock.o)
pthread_rwlockattr_init                           D:\CODEX\Dev-Cpp\TDM-GCC3264\x86_64-w64-mingw32\lib/libpthread.a(libwinpthread_la-rwlock.o)
pthread_rwlockattr_setpshared                     D:\CODEX\Dev-Cpp\TDM-GCC3264\x86_64-w64-mingw32\lib/libpthread.a(libwinpthread_la-rwlock.o)
pthread_self                                      D:\CODEX\Dev-Cpp\TDM-GCC3264\x86_64-w64-mingw32\lib/libpthread.a(libwinpthread_la-thread.o)
pthread_set_concurrency                           D:\CODEX\Dev-Cpp\TDM-GCC3264\x86_64-w64-mingw32\lib/libpthread.a(libwinpthread_la-thread.o)
pthread_set_num_processors_np                     D:\CODEX\Dev-Cpp\TDM-GCC3264\x86_64-w64-mingw32\lib/libpthread.a(libwinpthread_la-thread.o)
pthread_setcancelstate                            D:\CODEX\Dev-Cpp\TDM-GCC3264\x86_64-w64-mingw32\lib/libpthread.a(libwinpthread_la-thread.o)
pthread_setcanceltype                             D:\CODEX\Dev-Cpp\TDM-GCC3264\x86_64-w64-mingw32\lib/libpthread.a(libwinpthread_la-thread.o)
pthread_setconcurrency                            D:\CODEX\Dev-Cpp\TDM-GCC3264\x86_64-w64-mingw32\lib/libpthread.a(libwinpthread_la-thread.o)
pthread_setname_np                                D:\CODEX\Dev-Cpp\TDM-GCC3264\x86_64-w64-mingw32\lib/libpthread.a(libwinpthread_la-thread.o)
pthread_setschedparam                             D:\CODEX\Dev-Cpp\TDM-GCC3264\x86_64-w64-mingw32\lib/libpthread.a(libwinpthread_la-sched.o)
pthread_setspecific                               D:\CODEX\Dev-Cpp\TDM-GCC3264\x86_64-w64-mingw32\lib/libpthread.a(libwinpthread_la-thread.o)
                                                  D:/CODEX/Dev-Cpp/TDM-GCC3264/bin/../lib/gcc/x86_64-w64-mingw32/10.3.0\libstdc++.a(eh_globals.o)
pthread_spin_destroy                              D:\CODEX\Dev-Cpp\TDM-GCC3264\x86_64-w64-mingw32\lib/libpthread.a(libwinpthread_la-spinlock.o)
                                                  D:\CODEX\Dev-Cpp\TDM-GCC3264\x86_64-w64-mingw32\lib/libpthread.a(libwinpthread_la-thread.o)
pthread_spin_init                                 D:\CODEX\Dev-Cpp\TDM-GCC3264\x86_64-w64-mingw32\lib/libpthread.a(libwinpthread_la-spinlock.o)
pthread_spin_lock                                 D:\CODEX\Dev-Cpp\TDM-GCC3264\x86_64-w64-mingw32\lib/libpthread.a(libwinpthread_la-spinlock.o)
                                                  D:\CODEX\Dev-Cpp\TDM-GCC3264\x86_64-w64-mingw32\lib/libpthread.a(libwinpthread_la-cond.o)
                                                  D:\CODEX\Dev-Cpp\TDM-GCC3264\x86_64-w64-mingw32\lib/libpthread.a(libwinpthread_la-rwlock.o)
                                                  D:\CODEX\Dev-Cpp\TDM-GCC3264\x86_64-w64-mingw32\lib/libpthread.a(libwinpthread_la-thread.o)
pthread_spin_trylock                              D:\CODEX\Dev-Cpp\TDM-GCC3264\x86_64-w64-mingw32\lib/libpthread.a(libwinpthread_la-spinlock.o)
pthread_spin_unlock                               D:\CODEX\Dev-Cpp\TDM-GCC3264\x86_64-w64-mingw32\lib/libpthread.a(libwinpthread_la-spinlock.o)
                                                  D:\CODEX\Dev-Cpp\TDM-GCC3264\x86_64-w64-mingw32\lib/libpthread.a(libwinpthread_la-cond.o)
                                                  D:\CODEX\Dev-Cpp\TDM-GCC3264\x86_64-w64-mingw32\lib/libpthread.a(libwinpthread_la-rwlock.o)
                                                  D:\CODEX\Dev-Cpp\TDM-GCC3264\x86_64-w64-mingw32\lib/libpthread.a(libwinpthread_la-thread.o)
pthread_testcancel                                D:\CODEX\Dev-Cpp\TDM-GCC3264\x86_64-w64-mingw32\lib/libpthread.a(libwinpthread_la-thread.o)
                                                  D:\CODEX\Dev-Cpp\TDM-GCC3264\x86_64-w64-mingw32\lib/libpthread.a(libwinpthread_la-cond.o)
pthread_timechange_handler_np                     D:\CODEX\Dev-Cpp\TDM-GCC3264\x86_64-w64-mingw32\lib/libpthread.a(libwinpthread_la-thread.o)
pthread_tls_init                                  D:\CODEX\Dev-Cpp\TDM-GCC3264\x86_64-w64-mingw32\lib/libpthread.a(libwinpthread_la-thread.o)
realloc                                           D:\CODEX\Dev-Cpp\TDM-GCC3264\x86_64-w64-mingw32\lib/libmsvcrt.a(dcfxs01187.o)
                                                  C:\Users\ARABBI~1\AppData\Local\Temp\main.exe.6iMB3F.ltrans0.ltrans.o
                                                  D:\CODEX\Dev-Cpp\TDM-GCC3264\x86_64-w64-mingw32\lib/libpthread.a(libwinpthread_la-thread.o)
                                                  D:/CODEX/Dev-Cpp/TDM-GCC3264/bin/../lib/gcc/x86_64-w64-mingw32/10.3.0\libstdc++.a(cp-demangle.o)
rwl_print                                         D:\CODEX\Dev-Cpp\TDM-GCC3264\x86_64-w64-mingw32\lib/libpthread.a(libwinpthread_la-rwlock.o)
rwl_print_set                                     D:\CODEX\Dev-Cpp\TDM-GCC3264\x86_64-w64-mingw32\lib/libpthread.a(libwinpthread_la-rwlock.o)
sched_get_priority_max                            D:\CODEX\Dev-Cpp\TDM-GCC3264\x86_64-w64-mingw32\lib/libpthread.a(libwinpthread_la-sched.o)
sched_get_priority_min                            D:\CODEX\Dev-Cpp\TDM-GCC3264\x86_64-w64-mingw32\lib/libpthread.a(libwinpthread_la-sched.o)
sched_getscheduler                                D:\CODEX\Dev-Cpp\TDM-GCC3264\x86_64-w64-mingw32\lib/libpthread.a(libwinpthread_la-sched.o)
sched_setscheduler                                D:\CODEX\Dev-Cpp\TDM-GCC3264\x86_64-w64-mingw32\lib/libpthread.a(libwinpthread_la-sched.o)
sched_yield                                       D:\CODEX\Dev-Cpp\TDM-GCC3264\x86_64-w64-mingw32\lib/libpthread.a(libwinpthread_la-sched.o)
                                                  D:\CODEX\Dev-Cpp\TDM-GCC3264\x86_64-w64-mingw32\lib/libpthread.a(libwinpthread_la-cond.o)
sigmaF(MATHraw*, unsigned char)                   C:\Users\ARABBI~1\AppData\Local\Temp\ccJboNLv.o (symbol from plugin)
sigmaI(MATHraw*, unsigned char)                   C:\Users\ARABBI~1\AppData\Local\Temp\ccJboNLv.o (symbol from plugin)
signal                                            D:\CODEX\Dev-Cpp\TDM-GCC3264\x86_64-w64-mingw32\lib/libmsvcrt.a(dcfxs01196.o)
                                                  D:\CODEX\Dev-Cpp\TDM-GCC3264\x86_64-w64-mingw32\lib/libmingw32.a(lib64_libmingw32_a-crt_handler.o)
std::bad_alloc::what() const                      D:/CODEX/Dev-Cpp/TDM-GCC3264/bin/../lib/gcc/x86_64-w64-mingw32/10.3.0\libstdc++.a(bad_alloc.o)
std::bad_alloc::~bad_alloc()                      D:/CODEX/Dev-Cpp/TDM-GCC3264/bin/../lib/gcc/x86_64-w64-mingw32/10.3.0\libstdc++.a(bad_alloc.o)
std::bad_alloc::~bad_alloc()                      D:/CODEX/Dev-Cpp/TDM-GCC3264/bin/../lib/gcc/x86_64-w64-mingw32/10.3.0\libstdc++.a(bad_alloc.o)
std::bad_alloc::~bad_alloc()                      D:/CODEX/Dev-Cpp/TDM-GCC3264/bin/../lib/gcc/x86_64-w64-mingw32/10.3.0\libstdc++.a(bad_alloc.o)
                                                  D:/CODEX/Dev-Cpp/TDM-GCC3264/bin/../lib/gcc/x86_64-w64-mingw32/10.3.0\libstdc++.a(new_op.o)
std::bad_exception::what() const                  D:/CODEX/Dev-Cpp/TDM-GCC3264/bin/../lib/gcc/x86_64-w64-mingw32/10.3.0\libstdc++.a(eh_exception.o)
std::bad_exception::~bad_exception()              D:/CODEX/Dev-Cpp/TDM-GCC3264/bin/../lib/gcc/x86_64-w64-mingw32/10.3.0\libstdc++.a(eh_exception.o)
std::bad_exception::~bad_exception()              D:/CODEX/Dev-Cpp/TDM-GCC3264/bin/../lib/gcc/x86_64-w64-mingw32/10.3.0\libstdc++.a(eh_exception.o)
std::bad_exception::~bad_exception()              D:/CODEX/Dev-Cpp/TDM-GCC3264/bin/../lib/gcc/x86_64-w64-mingw32/10.3.0\libstdc++.a(eh_exception.o)
                                                  D:/CODEX/Dev-Cpp/TDM-GCC3264/bin/../lib/gcc/x86_64-w64-mingw32/10.3.0\libstdc++.a(eh_personality.o)
std::exception::what() const                      D:/CODEX/Dev-Cpp/TDM-GCC3264/bin/../lib/gcc/x86_64-w64-mingw32/10.3.0\libstdc++.a(eh_exception.o)
std::exception::~exception()                      D:/CODEX/Dev-Cpp/TDM-GCC3264/bin/../lib/gcc/x86_64-w64-mingw32/10.3.0\libstdc++.a(eh_exception.o)
                                                  D:/CODEX/Dev-Cpp/TDM-GCC3264/bin/../lib/gcc/x86_64-w64-mingw32/10.3.0\libstdc++.a(eh_alloc.o)
                                                  D:/CODEX/Dev-Cpp/TDM-GCC3264/bin/../lib/gcc/x86_64-w64-mingw32/10.3.0\libstdc++.a(bad_alloc.o)
std::exception::~exception()                      D:/CODEX/Dev-Cpp/TDM-GCC3264/bin/../lib/gcc/x86_64-w64-mingw32/10.3.0\libstdc++.a(eh_exception.o)
std::exception::~exception()                      D:/CODEX/Dev-Cpp/TDM-GCC3264/bin/../lib/gcc/x86_64-w64-mingw32/10.3.0\libstdc++.a(eh_exception.o)
std::get_new_handler()                            D:/CODEX/Dev-Cpp/TDM-GCC3264/bin/../lib/gcc/x86_64-w64-mingw32/10.3.0\libstdc++.a(new_handler.o)
                                                  D:/CODEX/Dev-Cpp/TDM-GCC3264/bin/../lib/gcc/x86_64-w64-mingw32/10.3.0\libstdc++.a(new_op.o)
std::get_terminate()                              D:/CODEX/Dev-Cpp/TDM-GCC3264/bin/../lib/gcc/x86_64-w64-mingw32/10.3.0\libstdc++.a(eh_terminate.o)
                                                  D:/CODEX/Dev-Cpp/TDM-GCC3264/bin/../lib/gcc/x86_64-w64-mingw32/10.3.0\libstdc++.a(eh_throw.o)
std::get_unexpected()                             D:/CODEX/Dev-Cpp/TDM-GCC3264/bin/../lib/gcc/x86_64-w64-mingw32/10.3.0\libstdc++.a(eh_terminate.o)
                                                  D:/CODEX/Dev-Cpp/TDM-GCC3264/bin/../lib/gcc/x86_64-w64-mingw32/10.3.0\libstdc++.a(eh_throw.o)
std::nothrow                                      D:/CODEX/Dev-Cpp/TDM-GCC3264/bin/../lib/gcc/x86_64-w64-mingw32/10.3.0\libstdc++.a(new_handler.o)
std::set_new_handler(void (*)())                  D:/CODEX/Dev-Cpp/TDM-GCC3264/bin/../lib/gcc/x86_64-w64-mingw32/10.3.0\libstdc++.a(new_handler.o)
std::set_terminate(void (*)())                    D:/CODEX/Dev-Cpp/TDM-GCC3264/bin/../lib/gcc/x86_64-w64-mingw32/10.3.0\libstdc++.a(eh_terminate.o)
std::set_unexpected(void (*)())                   D:/CODEX/Dev-Cpp/TDM-GCC3264/bin/../lib/gcc/x86_64-w64-mingw32/10.3.0\libstdc++.a(eh_terminate.o)
std::terminate()                                  D:/CODEX/Dev-Cpp/TDM-GCC3264/bin/../lib/gcc/x86_64-w64-mingw32/10.3.0\libstdc++.a(eh_terminate.o)
                                                  D:/CODEX/Dev-Cpp/TDM-GCC3264/bin/../lib/gcc/x86_64-w64-mingw32/10.3.0\libstdc++.a(eh_globals.o)
                                                  D:/CODEX/Dev-Cpp/TDM-GCC3264/bin/../lib/gcc/x86_64-w64-mingw32/10.3.0\libstdc++.a(eh_catch.o)
                                                  D:/CODEX/Dev-Cpp/TDM-GCC3264/bin/../lib/gcc/x86_64-w64-mingw32/10.3.0\libstdc++.a(eh_call.o)
                                                  D:/CODEX/Dev-Cpp/TDM-GCC3264/bin/../lib/gcc/x86_64-w64-mingw32/10.3.0\libstdc++.a(pure.o)
                                                  D:/CODEX/Dev-Cpp/TDM-GCC3264/bin/../lib/gcc/x86_64-w64-mingw32/10.3.0\libstdc++.a(eh_unex_handler.o)
                                                  D:/CODEX/Dev-Cpp/TDM-GCC3264/bin/../lib/gcc/x86_64-w64-mingw32/10.3.0\libstdc++.a(eh_throw.o)
                                                  D:/CODEX/Dev-Cpp/TDM-GCC3264/bin/../lib/gcc/x86_64-w64-mingw32/10.3.0\libstdc++.a(eh_personality.o)
                                                  D:/CODEX/Dev-Cpp/TDM-GCC3264/bin/../lib/gcc/x86_64-w64-mingw32/10.3.0\libstdc++.a(eh_alloc.o)
std::type_info::__do_catch(std::type_info const*, void**, unsigned int) const D:/CODEX/Dev-Cpp/TDM-GCC3264/bin/../lib/gcc/x86_64-w64-mingw32/10.3.0\libstdc++.a(tinfo.o)
std::type_info::__do_upcast(__cxxabiv1::__class_type_info const*, void**) const D:/CODEX/Dev-Cpp/TDM-GCC3264/bin/../lib/gcc/x86_64-w64-mingw32/10.3.0\libstdc++.a(tinfo.o)
std::type_info::__is_function_p() const           D:/CODEX/Dev-Cpp/TDM-GCC3264/bin/../lib/gcc/x86_64-w64-mingw32/10.3.0\libstdc++.a(tinfo.o)
                                                  D:/CODEX/Dev-Cpp/TDM-GCC3264/bin/../lib/gcc/x86_64-w64-mingw32/10.3.0\libstdc++.a(class_type_info.o)
                                                  D:/CODEX/Dev-Cpp/TDM-GCC3264/bin/../lib/gcc/x86_64-w64-mingw32/10.3.0\libstdc++.a(si_class_type_info.o)
std::type_info::__is_pointer_p() const            D:/CODEX/Dev-Cpp/TDM-GCC3264/bin/../lib/gcc/x86_64-w64-mingw32/10.3.0\libstdc++.a(tinfo.o)
                                                  D:/CODEX/Dev-Cpp/TDM-GCC3264/bin/../lib/gcc/x86_64-w64-mingw32/10.3.0\libstdc++.a(class_type_info.o)
                                                  D:/CODEX/Dev-Cpp/TDM-GCC3264/bin/../lib/gcc/x86_64-w64-mingw32/10.3.0\libstdc++.a(si_class_type_info.o)
std::type_info::operator==(std::type_info const&) const D:/CODEX/Dev-Cpp/TDM-GCC3264/bin/../lib/gcc/x86_64-w64-mingw32/10.3.0\libstdc++.a(tinfo.o)
                                                  D:/CODEX/Dev-Cpp/TDM-GCC3264/bin/../lib/gcc/x86_64-w64-mingw32/10.3.0\libstdc++.a(class_type_info.o)
                                                  D:/CODEX/Dev-Cpp/TDM-GCC3264/bin/../lib/gcc/x86_64-w64-mingw32/10.3.0\libstdc++.a(si_class_type_info.o)
std::type_info::~type_info()                      D:/CODEX/Dev-Cpp/TDM-GCC3264/bin/../lib/gcc/x86_64-w64-mingw32/10.3.0\libstdc++.a(tinfo.o)
                                                  D:/CODEX/Dev-Cpp/TDM-GCC3264/bin/../lib/gcc/x86_64-w64-mingw32/10.3.0\libstdc++.a(class_type_info.o)
std::type_info::~type_info()                      D:/CODEX/Dev-Cpp/TDM-GCC3264/bin/../lib/gcc/x86_64-w64-mingw32/10.3.0\libstdc++.a(tinfo.o)
std::type_info::~type_info()                      D:/CODEX/Dev-Cpp/TDM-GCC3264/bin/../lib/gcc/x86_64-w64-mingw32/10.3.0\libstdc++.a(tinfo.o)
std::uncaught_exception()                         D:/CODEX/Dev-Cpp/TDM-GCC3264/bin/../lib/gcc/x86_64-w64-mingw32/10.3.0\libstdc++.a(eh_catch.o)
std::uncaught_exceptions()                        D:/CODEX/Dev-Cpp/TDM-GCC3264/bin/../lib/gcc/x86_64-w64-mingw32/10.3.0\libstdc++.a(eh_catch.o)
std::unexpected()                                 D:/CODEX/Dev-Cpp/TDM-GCC3264/bin/../lib/gcc/x86_64-w64-mingw32/10.3.0\libstdc++.a(eh_terminate.o)
                                                  D:/CODEX/Dev-Cpp/TDM-GCC3264/bin/../lib/gcc/x86_64-w64-mingw32/10.3.0\libstdc++.a(eh_personality.o)
strcmp                                            D:\CODEX\Dev-Cpp\TDM-GCC3264\x86_64-w64-mingw32\lib/libmsvcrt.a(dcfxs01212.o)
                                                  D:/CODEX/Dev-Cpp/TDM-GCC3264/bin/../lib/gcc/x86_64-w64-mingw32/10.3.0\libstdc++.a(cp-demangle.o)
                                                  D:/CODEX/Dev-Cpp/TDM-GCC3264/bin/../lib/gcc/x86_64-w64-mingw32/10.3.0\libstdc++.a(tinfo.o)
strdup                                            D:\CODEX\Dev-Cpp\TDM-GCC3264\x86_64-w64-mingw32\lib/libmsvcrt.a(dcfxs00734.o)
                                                  D:\CODEX\Dev-Cpp\TDM-GCC3264\x86_64-w64-mingw32\lib/libpthread.a(libwinpthread_la-thread.o)
strerror                                          D:\CODEX\Dev-Cpp\TDM-GCC3264\x86_64-w64-mingw32\lib/libmsvcrt.a(dcfxs01217.o)
                                                  D:\CODEX\Dev-Cpp\TDM-GCC3264\x86_64-w64-mingw32\lib/libmingwex.a(lib64_libmingwex_a-mingw_pformatw.o)
                                                  D:\CODEX\Dev-Cpp\TDM-GCC3264\x86_64-w64-mingw32\lib/libmingwex.a(lib64_libmingwex_a-mingw_pformat.o)
strlen                                            D:\CODEX\Dev-Cpp\TDM-GCC3264\x86_64-w64-mingw32\lib/libmsvcrt.a(dcfxs01219.o)
                                                  D:\CODEX\Dev-Cpp\TDM-GCC3264\x86_64-w64-mingw32\lib/libmingwex.a(lib64_libmingwex_a-mingw_pformatw.o)
                                                  D:\CODEX\Dev-Cpp\TDM-GCC3264\x86_64-w64-mingw32\lib/libmingwex.a(lib64_libmingwex_a-mingw_pformat.o)
                                                  D:\CODEX\Dev-Cpp\TDM-GCC3264\x86_64-w64-mingw32\lib/libmingw32.a(lib64_libmingw32_a-pesect.o)
                                                  D:/CODEX/Dev-Cpp/TDM-GCC3264/bin/../lib/gcc/x86_64-w64-mingw32/10.3.0\libstdc++.a(cp-demangle.o)
                                                  D:/CODEX/Dev-Cpp/TDM-GCC3264/bin/../lib/gcc/x86_64-w64-mingw32/10.3.0/../../../../x86_64-w64-mingw32/lib/../lib/crt2.o
strncmp                                           D:\CODEX\Dev-Cpp\TDM-GCC3264\x86_64-w64-mingw32\lib/libmsvcrt.a(dcfxs01222.o)
                                                  D:\CODEX\Dev-Cpp\TDM-GCC3264\x86_64-w64-mingw32\lib/libmingw32.a(lib64_libmingw32_a-pesect.o)
strnlen                                           D:\CODEX\Dev-Cpp\TDM-GCC3264\x86_64-w64-mingw32\lib/libmingwex.a(lib64_libmingwex_a-strnlen.o)
                                                  D:\CODEX\Dev-Cpp\TDM-GCC3264\x86_64-w64-mingw32\lib/libmingwex.a(lib64_libmingwex_a-mingw_pformatw.o)
                                                  D:\CODEX\Dev-Cpp\TDM-GCC3264\x86_64-w64-mingw32\lib/libmingwex.a(lib64_libmingwex_a-mingw_pformat.o)
subFF(MATHraw*, unsigned char)                    C:\Users\ARABBI~1\AppData\Local\Temp\ccJboNLv.o (symbol from plugin)
subFI(MATHraw*, unsigned char)                    C:\Users\ARABBI~1\AppData\Local\Temp\ccJboNLv.o (symbol from plugin)
subIF(MATHraw*, unsigned char)                    C:\Users\ARABBI~1\AppData\Local\Temp\ccJboNLv.o (symbol from plugin)
subII(MATHraw*, unsigned char)                    C:\Users\ARABBI~1\AppData\Local\Temp\ccJboNLv.o (symbol from plugin)
test()                                            C:\Users\ARABBI~1\AppData\Local\Temp\ccJboNLv.o (symbol from plugin)
thread_print                                      D:\CODEX\Dev-Cpp\TDM-GCC3264\x86_64-w64-mingw32\lib/libpthread.a(libwinpthread_la-thread.o)
thread_print_set                                  D:\CODEX\Dev-Cpp\TDM-GCC3264\x86_64-w64-mingw32\lib/libpthread.a(libwinpthread_la-thread.o)
transaction clone for std::bad_exception::what() const D:/CODEX/Dev-Cpp/TDM-GCC3264/bin/../lib/gcc/x86_64-w64-mingw32/10.3.0\libstdc++.a(eh_exception.o)
transaction clone for std::bad_exception::~bad_exception() const D:/CODEX/Dev-Cpp/TDM-GCC3264/bin/../lib/gcc/x86_64-w64-mingw32/10.3.0\libstdc++.a(eh_exception.o)
transaction clone for std::exception::what() const D:/CODEX/Dev-Cpp/TDM-GCC3264/bin/../lib/gcc/x86_64-w64-mingw32/10.3.0\libstdc++.a(eh_exception.o)
transaction clone for std::exception::~exception() const D:/CODEX/Dev-Cpp/TDM-GCC3264/bin/../lib/gcc/x86_64-w64-mingw32/10.3.0\libstdc++.a(eh_exception.o)
typeinfo for __cxxabiv1::__class_type_info        D:/CODEX/Dev-Cpp/TDM-GCC3264/bin/../lib/gcc/x86_64-w64-mingw32/10.3.0\libstdc++.a(si_class_type_info.o)
                                                  D:/CODEX/Dev-Cpp/TDM-GCC3264/bin/../lib/gcc/x86_64-w64-mingw32/10.3.0\libstdc++.a(class_type_info.o)
typeinfo for __cxxabiv1::__forced_unwind          D:/CODEX/Dev-Cpp/TDM-GCC3264/bin/../lib/gcc/x86_64-w64-mingw32/10.3.0\libstdc++.a(eh_exception.o)
                                                  D:/CODEX/Dev-Cpp/TDM-GCC3264/bin/../lib/gcc/x86_64-w64-mingw32/10.3.0\libstdc++.a(eh_personality.o)
typeinfo for __cxxabiv1::__foreign_exception      D:/CODEX/Dev-Cpp/TDM-GCC3264/bin/../lib/gcc/x86_64-w64-mingw32/10.3.0\libstdc++.a(eh_exception.o)
                                                  D:/CODEX/Dev-Cpp/TDM-GCC3264/bin/../lib/gcc/x86_64-w64-mingw32/10.3.0\libstdc++.a(eh_personality.o)
typeinfo for __cxxabiv1::__si_class_type_info     D:/CODEX/Dev-Cpp/TDM-GCC3264/bin/../lib/gcc/x86_64-w64-mingw32/10.3.0\libstdc++.a(si_class_type_info.o)
typeinfo for __gnu_cxx::__concurrence_lock_error  D:/CODEX/Dev-Cpp/TDM-GCC3264/bin/../lib/gcc/x86_64-w64-mingw32/10.3.0\libstdc++.a(eh_alloc.o)
typeinfo for __gnu_cxx::__concurrence_unlock_error D:/CODEX/Dev-Cpp/TDM-GCC3264/bin/../lib/gcc/x86_64-w64-mingw32/10.3.0\libstdc++.a(eh_alloc.o)
typeinfo for std::bad_alloc                       D:/CODEX/Dev-Cpp/TDM-GCC3264/bin/../lib/gcc/x86_64-w64-mingw32/10.3.0\libstdc++.a(new_op.o)
                                                  D:/CODEX/Dev-Cpp/TDM-GCC3264/bin/../lib/gcc/x86_64-w64-mingw32/10.3.0\libstdc++.a(bad_alloc.o)
typeinfo for std::bad_exception                   D:/CODEX/Dev-Cpp/TDM-GCC3264/bin/../lib/gcc/x86_64-w64-mingw32/10.3.0\libstdc++.a(eh_exception.o)
                                                  D:/CODEX/Dev-Cpp/TDM-GCC3264/bin/../lib/gcc/x86_64-w64-mingw32/10.3.0\libstdc++.a(eh_personality.o)
typeinfo for std::exception                       D:/CODEX/Dev-Cpp/TDM-GCC3264/bin/../lib/gcc/x86_64-w64-mingw32/10.3.0\libstdc++.a(new_op.o)
                                                  D:/CODEX/Dev-Cpp/TDM-GCC3264/bin/../lib/gcc/x86_64-w64-mingw32/10.3.0\libstdc++.a(vterminate.o)
                                                  D:/CODEX/Dev-Cpp/TDM-GCC3264/bin/../lib/gcc/x86_64-w64-mingw32/10.3.0\libstdc++.a(eh_personality.o)
                                                  D:/CODEX/Dev-Cpp/TDM-GCC3264/bin/../lib/gcc/x86_64-w64-mingw32/10.3.0\libstdc++.a(eh_exception.o)
                                                  D:/CODEX/Dev-Cpp/TDM-GCC3264/bin/../lib/gcc/x86_64-w64-mingw32/10.3.0\libstdc++.a(eh_alloc.o)
                                                  D:/CODEX/Dev-Cpp/TDM-GCC3264/bin/../lib/gcc/x86_64-w64-mingw32/10.3.0\libstdc++.a(bad_alloc.o)
typeinfo for std::type_info                       D:/CODEX/Dev-Cpp/TDM-GCC3264/bin/../lib/gcc/x86_64-w64-mingw32/10.3.0\libstdc++.a(si_class_type_info.o)
                                                  D:/CODEX/Dev-Cpp/TDM-GCC3264/bin/../lib/gcc/x86_64-w64-mingw32/10.3.0\libstdc++.a(class_type_info.o)
                                                  D:/CODEX/Dev-Cpp/TDM-GCC3264/bin/../lib/gcc/x86_64-w64-mingw32/10.3.0\libstdc++.a(tinfo.o)
typeinfo name for __cxxabiv1::__class_type_info   D:/CODEX/Dev-Cpp/TDM-GCC3264/bin/../lib/gcc/x86_64-w64-mingw32/10.3.0\libstdc++.a(si_class_type_info.o)
                                                  D:/CODEX/Dev-Cpp/TDM-GCC3264/bin/../lib/gcc/x86_64-w64-mingw32/10.3.0\libstdc++.a(class_type_info.o)
typeinfo name for __cxxabiv1::__forced_unwind     D:/CODEX/Dev-Cpp/TDM-GCC3264/bin/../lib/gcc/x86_64-w64-mingw32/10.3.0\libstdc++.a(eh_exception.o)
                                                  D:/CODEX/Dev-Cpp/TDM-GCC3264/bin/../lib/gcc/x86_64-w64-mingw32/10.3.0\libstdc++.a(eh_personality.o)
typeinfo name for __cxxabiv1::__foreign_exception D:/CODEX/Dev-Cpp/TDM-GCC3264/bin/../lib/gcc/x86_64-w64-mingw32/10.3.0\libstdc++.a(eh_exception.o)
                                                  D:/CODEX/Dev-Cpp/TDM-GCC3264/bin/../lib/gcc/x86_64-w64-mingw32/10.3.0\libstdc++.a(eh_personality.o)
typeinfo name for __cxxabiv1::__si_class_type_info D:/CODEX/Dev-Cpp/TDM-GCC3264/bin/../lib/gcc/x86_64-w64-mingw32/10.3.0\libstdc++.a(si_class_type_info.o)
typeinfo name for __gnu_cxx::__concurrence_lock_error D:/CODEX/Dev-Cpp/TDM-GCC3264/bin/../lib/gcc/x86_64-w64-mingw32/10.3.0\libstdc++.a(eh_alloc.o)
typeinfo name for __gnu_cxx::__concurrence_unlock_error D:/CODEX/Dev-Cpp/TDM-GCC3264/bin/../lib/gcc/x86_64-w64-mingw32/10.3.0\libstdc++.a(eh_alloc.o)
typeinfo name for std::bad_alloc                  D:/CODEX/Dev-Cpp/TDM-GCC3264/bin/../lib/gcc/x86_64-w64-mingw32/10.3.0\libstdc++.a(new_op.o)
                                                  D:/CODEX/Dev-Cpp/TDM-GCC3264/bin/../lib/gcc/x86_64-w64-mingw32/10.3.0\libstdc++.a(bad_alloc.o)
typeinfo name for std::bad_exception              D:/CODEX/Dev-Cpp/TDM-GCC3264/bin/../lib/gcc/x86_64-w64-mingw32/10.3.0\libstdc++.a(eh_exception.o)
                                                  D:/CODEX/Dev-Cpp/TDM-GCC3264/bin/../lib/gcc/x86_64-w64-mingw32/10.3.0\libstdc++.a(eh_personality.o)
typeinfo name for std::exception                  D:/CODEX/Dev-Cpp/TDM-GCC3264/bin/../lib/gcc/x86_64-w64-mingw32/10.3.0\libstdc++.a(new_op.o)
                                                  D:/CODEX/Dev-Cpp/TDM-GCC3264/bin/../lib/gcc/x86_64-w64-mingw32/10.3.0\libstdc++.a(vterminate.o)
                                                  D:/CODEX/Dev-Cpp/TDM-GCC3264/bin/../lib/gcc/x86_64-w64-mingw32/10.3.0\libstdc++.a(eh_personality.o)
                                                  D:/CODEX/Dev-Cpp/TDM-GCC3264/bin/../lib/gcc/x86_64-w64-mingw32/10.3.0\libstdc++.a(eh_exception.o)
                                                  D:/CODEX/Dev-Cpp/TDM-GCC3264/bin/../lib/gcc/x86_64-w64-mingw32/10.3.0\libstdc++.a(eh_alloc.o)
                                                  D:/CODEX/Dev-Cpp/TDM-GCC3264/bin/../lib/gcc/x86_64-w64-mingw32/10.3.0\libstdc++.a(bad_alloc.o)
typeinfo name for std::type_info                  D:/CODEX/Dev-Cpp/TDM-GCC3264/bin/../lib/gcc/x86_64-w64-mingw32/10.3.0\libstdc++.a(si_class_type_info.o)
                                                  D:/CODEX/Dev-Cpp/TDM-GCC3264/bin/../lib/gcc/x86_64-w64-mingw32/10.3.0\libstdc++.a(class_type_info.o)
                                                  D:/CODEX/Dev-Cpp/TDM-GCC3264/bin/../lib/gcc/x86_64-w64-mingw32/10.3.0\libstdc++.a(tinfo.o)
vfprintf                                          D:\CODEX\Dev-Cpp\TDM-GCC3264\x86_64-w64-mingw32\lib/libmsvcrt.a(dcfxs01258.o)
                                                  D:\CODEX\Dev-Cpp\TDM-GCC3264\x86_64-w64-mingw32\lib/libmingw32.a(lib64_libmingw32_a-pseudo-reloc.o)
vtable for __cxxabiv1::__class_type_info          D:/CODEX/Dev-Cpp/TDM-GCC3264/bin/../lib/gcc/x86_64-w64-mingw32/10.3.0\libstdc++.a(class_type_info.o)
                                                  D:/CODEX/Dev-Cpp/TDM-GCC3264/bin/../lib/gcc/x86_64-w64-mingw32/10.3.0\libstdc++.a(vterminate.o)
                                                  D:/CODEX/Dev-Cpp/TDM-GCC3264/bin/../lib/gcc/x86_64-w64-mingw32/10.3.0\libstdc++.a(eh_personality.o)
                                                  D:/CODEX/Dev-Cpp/TDM-GCC3264/bin/../lib/gcc/x86_64-w64-mingw32/10.3.0\libstdc++.a(eh_exception.o)
                                                  D:/CODEX/Dev-Cpp/TDM-GCC3264/bin/../lib/gcc/x86_64-w64-mingw32/10.3.0\libstdc++.a(eh_alloc.o)
                                                  D:/CODEX/Dev-Cpp/TDM-GCC3264/bin/../lib/gcc/x86_64-w64-mingw32/10.3.0\libstdc++.a(bad_alloc.o)
                                                  D:/CODEX/Dev-Cpp/TDM-GCC3264/bin/../lib/gcc/x86_64-w64-mingw32/10.3.0\libstdc++.a(tinfo.o)
                                                  D:/CODEX/Dev-Cpp/TDM-GCC3264/bin/../lib/gcc/x86_64-w64-mingw32/10.3.0\libstdc++.a(si_class_type_info.o)
                                                  D:/CODEX/Dev-Cpp/TDM-GCC3264/bin/../lib/gcc/x86_64-w64-mingw32/10.3.0\libstdc++.a(new_op.o)
vtable for __cxxabiv1::__forced_unwind            D:/CODEX/Dev-Cpp/TDM-GCC3264/bin/../lib/gcc/x86_64-w64-mingw32/10.3.0\libstdc++.a(eh_exception.o)
vtable for __cxxabiv1::__foreign_exception        D:/CODEX/Dev-Cpp/TDM-GCC3264/bin/../lib/gcc/x86_64-w64-mingw32/10.3.0\libstdc++.a(eh_exception.o)
vtable for __cxxabiv1::__si_class_type_info       D:/CODEX/Dev-Cpp/TDM-GCC3264/bin/../lib/gcc/x86_64-w64-mingw32/10.3.0\libstdc++.a(si_class_type_info.o)
                                                  D:/CODEX/Dev-Cpp/TDM-GCC3264/bin/../lib/gcc/x86_64-w64-mingw32/10.3.0\libstdc++.a(eh_personality.o)
                                                  D:/CODEX/Dev-Cpp/TDM-GCC3264/bin/../lib/gcc/x86_64-w64-mingw32/10.3.0\libstdc++.a(eh_exception.o)
                                                  D:/CODEX/Dev-Cpp/TDM-GCC3264/bin/../lib/gcc/x86_64-w64-mingw32/10.3.0\libstdc++.a(eh_alloc.o)
                                                  D:/CODEX/Dev-Cpp/TDM-GCC3264/bin/../lib/gcc/x86_64-w64-mingw32/10.3.0\libstdc++.a(class_type_info.o)
                                                  D:/CODEX/Dev-Cpp/TDM-GCC3264/bin/../lib/gcc/x86_64-w64-mingw32/10.3.0\libstdc++.a(bad_alloc.o)
                                                  D:/CODEX/Dev-Cpp/TDM-GCC3264/bin/../lib/gcc/x86_64-w64-mingw32/10.3.0\libstdc++.a(new_op.o)
vtable for __gnu_cxx::__concurrence_lock_error    D:/CODEX/Dev-Cpp/TDM-GCC3264/bin/../lib/gcc/x86_64-w64-mingw32/10.3.0\libstdc++.a(eh_alloc.o)
vtable for __gnu_cxx::__concurrence_unlock_error  D:/CODEX/Dev-Cpp/TDM-GCC3264/bin/../lib/gcc/x86_64-w64-mingw32/10.3.0\libstdc++.a(eh_alloc.o)
vtable for std::bad_alloc                         D:/CODEX/Dev-Cpp/TDM-GCC3264/bin/../lib/gcc/x86_64-w64-mingw32/10.3.0\libstdc++.a(bad_alloc.o)
                                                  D:/CODEX/Dev-Cpp/TDM-GCC3264/bin/../lib/gcc/x86_64-w64-mingw32/10.3.0\libstdc++.a(new_op.o)
vtable for std::bad_exception                     D:/CODEX/Dev-Cpp/TDM-GCC3264/bin/../lib/gcc/x86_64-w64-mingw32/10.3.0\libstdc++.a(eh_exception.o)
                                                  D:/CODEX/Dev-Cpp/TDM-GCC3264/bin/../lib/gcc/x86_64-w64-mingw32/10.3.0\libstdc++.a(eh_personality.o)
vtable for std::exception                         D:/CODEX/Dev-Cpp/TDM-GCC3264/bin/../lib/gcc/x86_64-w64-mingw32/10.3.0\libstdc++.a(eh_exception.o)
vtable for std::type_info                         D:/CODEX/Dev-Cpp/TDM-GCC3264/bin/../lib/gcc/x86_64-w64-mingw32/10.3.0\libstdc++.a(tinfo.o)
wcrtomb                                           D:\CODEX\Dev-Cpp\TDM-GCC3264\x86_64-w64-mingw32\lib/libmsvcrt.a(lib64_libmsvcrt_os_a-wcrtomb.o)
                                                  D:\CODEX\Dev-Cpp\TDM-GCC3264\x86_64-w64-mingw32\lib/libmingwex.a(lib64_libmingwex_a-mingw_pformat.o)
wcslen                                            D:\CODEX\Dev-Cpp\TDM-GCC3264\x86_64-w64-mingw32\lib/libmsvcrt.a(dcfxs01283.o)
                                                  C:\Users\ARABBI~1\AppData\Local\Temp\main.exe.6iMB3F.ltrans0.ltrans.o
                                                  D:\CODEX\Dev-Cpp\TDM-GCC3264\x86_64-w64-mingw32\lib/libmingwex.a(lib64_libmingwex_a-mingw_pformatw.o)
                                                  D:\CODEX\Dev-Cpp\TDM-GCC3264\x86_64-w64-mingw32\lib/libmingwex.a(lib64_libmingwex_a-mingw_pformat.o)
                                                  C:\Users\ARABBI~1\AppData\Local\Temp\ccJboNLv.o (symbol from plugin)
wcsnlen                                           D:\CODEX\Dev-Cpp\TDM-GCC3264\x86_64-w64-mingw32\lib/libmingwex.a(lib64_libmingwex_a-wcsnlen.o)
                                                  D:\CODEX\Dev-Cpp\TDM-GCC3264\x86_64-w64-mingw32\lib/libmingwex.a(lib64_libmingwex_a-mingw_pformatw.o)
                                                  D:\CODEX\Dev-Cpp\TDM-GCC3264\x86_64-w64-mingw32\lib/libmingwex.a(lib64_libmingwex_a-mingw_pformat.o)
wcsrtombs                                         D:\CODEX\Dev-Cpp\TDM-GCC3264\x86_64-w64-mingw32\lib/libmsvcrt.a(lib64_libmsvcrt_os_a-wcrtomb.o)
wprintf                                           C:\Users\ARABBI~1\AppData\Local\Temp\ccJboNLv.o (symbol from plugin)
write                                             D:\CODEX\Dev-Cpp\TDM-GCC3264\x86_64-w64-mingw32\lib/libmsvcrt.a(dcfxs00991.o)
                                                  D:/CODEX/Dev-Cpp/TDM-GCC3264/bin/../lib/gcc/x86_64-w64-mingw32/10.3.0\libstdc++.a(pure.o)
xorII(MATHraw*, unsigned char)                    C:\Users\ARABBI~1\AppData\Local\Temp\ccJboNLv.o (symbol from plugin)
